__cxx_global_var_init
_ZNSt8ios_base4InitC1Ev
_ZNSt8ios_base4InitD1Ev
__cxa_atexit
_ZNK5boost6system14error_category23default_error_conditionEi
llvm.dbg.declare
_ZN5boost6system15error_conditionC2EiRKNS0_14error_categoryE
_ZNK5boost6system6detail22generic_error_category7messageB5cxx11Ei
_ZN5boost6system6detail30generic_error_category_messageB5cxx11Ei
_ZNK5boost6system6detail21system_error_category23default_error_conditionEi
_ZN5boost6system6detail45system_category_default_error_condition_posixEi
_ZNK5boost6system6detail12std_category10equivalentEiRKSt15error_condition
_ZNKSt15error_condition8categoryEv
_ZNKSt3_V214error_categoryeqERKS0_
_ZNKSt15error_condition5valueEv
_ZNSt3_V216generic_categoryEv
_ZN5boost6system16generic_categoryEv
_ZNK5boost6system14error_categorycvRKNSt3_V214error_categoryEEv
__gxx_personality_v0
__clang_call_terminate
__cxa_begin_catch
_ZSt9terminatev
__dynamic_cast
_ZSteqRKSt15error_conditionS1_
_ZNK5boost6system12system_error4whatEv
_ZNKSt7__cxx1112basic_stringIcSt11char_traitsIcESaIcEE5emptyEv
_ZNKSt13runtime_error4whatEv
_ZNSt7__cxx1112basic_stringIcSt11char_traitsIcESaIcEEaSEPKc
_ZNSt7__cxx1112basic_stringIcSt11char_traitsIcESaIcEEpLEPKc
_ZNK5boost6system10error_code7messageB5cxx11Ev
_ZNSt7__cxx1112basic_stringIcSt11char_traitsIcESaIcEEpLERKS4_
_ZNSt7__cxx1112basic_stringIcSt11char_traitsIcESaIcEED1Ev
__cxa_end_catch
_ZNKSt7__cxx1112basic_stringIcSt11char_traitsIcESaIcEE5c_strEv
_ZN14social_network11init_loggerEv
_ZN5boost3log12v2s_mt_posix33register_simple_formatter_factoryINS1_7trivial14severity_levelEcEEvRKNS1_14attribute_nameE
_ZN5boost3log12v2s_mt_posix14attribute_nameC2EPKc
_ZN5boost3log12v2s_mt_posix21add_common_attributesEv
_ZN5boost3log12v2s_mt_posix15add_console_logIcNS_9parameter3aux25tagged_argument_list_of_1INS4_15tagged_argumentINS1_8keywords3tag6formatEA38_KcEEEEEENS_10shared_ptrINS1_5sinks16synchronous_sinkINSF_26basic_text_ostream_backendIT_EEEEEERSt13basic_ostreamISI_St11char_traitsISI_EERKT0_
_ZNK5boost9parameter7keywordINS_3log12v2s_mt_posix8keywords3tag6formatEEaSIA38_cEENS_14lazy_enable_ifINS_4mp116detail12mp_if_c_implIXscbsrSt9is_scalarIT_E5valueESt17integral_constantIbLb1EEJSt7is_sameINS0_17forward_referenceESK_EEE4typeENSD_IXscbsrNSD_IXscbsrSt19is_lvalue_referenceIRKSF_E5valueESI_JSH_IbXeqszclgssr5boost9parameter3auxE29is_cv_reference_wrapper_checkscPNSt16remove_referenceISQ_E4typeELDnEELm1EEEEE4typeE5valueENS0_3aux23tag_if_lvalue_referenceIS6_SQ_EEJNSD_IXscbsrSE_INSt12remove_constISQ_E4typeEE5valueENSZ_13tag_if_scalarIS6_SQ_EEJNSB_11mp_identityINSZ_25tagged_argument_list_of_1INSZ_20tagged_argument_rrefIS6_SQ_EEEEEEEE4typeEEE4typeEE4typeESQ_
_ZN5boost10shared_ptrINS_3log12v2s_mt_posix5sinks16synchronous_sinkINS3_26basic_text_ostream_backendIcEEEEED2Ev
_ZN5boost3log12v2s_mt_posix4core3getEv
_ZNK5boost10shared_ptrINS_3log12v2s_mt_posix4coreEEptEv
_ZN5boost3log12v2s_mt_posix4core10set_filterERKNS1_6filterE
_ZN5boost3log12v2s_mt_posix6filterC2IKNS_7phoenix5actorINS_5proto7exprns_10basic_exprINS6_6tagns_3tag13greater_equalENS6_7argsns_5list2INS1_11expressions15attribute_actorINS1_7trivial14severity_levelENS1_16fallback_to_noneENSG_3tag8severityES5_EENS5_INS8_INSA_8terminalENSC_4termISH_EELl0EEEEEEELl2EEEEEEEOT_
_ZN5boost3log12v2s_mt_posix6filterD2Ev
_ZN5boost10shared_ptrINS_3log12v2s_mt_posix4coreEED2Ev
_ZN14social_network16load_config_fileERKNSt7__cxx1112basic_stringIcSt11char_traitsIcESaIcEEEPN8nlohmann10basic_jsonISt3mapSt6vectorS5_blmdSaNS8_14adl_serializerEEE
_ZNSt14basic_ifstreamIcSt11char_traitsIcEEC1Ev
_ZNSt14basic_ifstreamIcSt11char_traitsIcEE4openERKNSt7__cxx1112basic_stringIcS1_SaIcEEESt13_Ios_Openmode
_ZNSt14basic_ifstreamIcSt11char_traitsIcEE7is_openEv
_ZN8nlohmannrsERSiRNS_10basic_jsonISt3mapSt6vectorNSt7__cxx1112basic_stringIcSt11char_traitsIcESaIcEEEblmdSaNS_14adl_serializerEEE
_ZNSt14basic_ifstreamIcSt11char_traitsIcEE5closeEv
_ZN5boost3log12v2s_mt_posix7trivial6logger3getEv
_ZN5boost3log12v2s_mt_posix7sources22basic_composite_loggerIcNS2_18severity_logger_mtINS1_7trivial14severity_levelEEENS2_18multi_thread_modelINS1_3aux14light_rw_mutexEEENS2_8featuresIJNS2_8severityIS6_EEEEEE11open_recordINS_9parameter3aux25tagged_argument_list_of_1INSJ_15tagged_argumentINS1_8keywords3tag8severityEKS6_EEEEEENS1_6recordERKT_
_ZNK5boost9parameter7keywordINS_3log12v2s_mt_posix8keywords3tag8severityEEaSINS3_7trivial14severity_levelEEENS_14lazy_enable_ifINS_4mp116detail12mp_if_c_implIXscbsrSt9is_scalarIT_E5valueESt17integral_constantIbLb1EEJSt7is_sameINS0_17forward_referenceESL_EEE4typeENSE_IXscbsrNSE_IXscbsrSt19is_lvalue_referenceIRKSG_E5valueESJ_JSI_IbXeqszclgssr5boost9parameter3auxE29is_cv_reference_wrapper_checkscPNSt16remove_referenceISR_E4typeELDnEELm1EEEEE4typeE5valueENS0_3aux23tag_if_lvalue_referenceIS6_SR_EEJNSE_IXscbsrSF_INSt12remove_constISR_E4typeEE5valueENS10_13tag_if_scalarIS6_SR_EEJNSC_11mp_identityINS10_25tagged_argument_list_of_1INS10_20tagged_argument_rrefIS6_SR_EEEEEEEE4typeEEE4typeEE4typeESR_
_ZNK5boost3log12v2s_mt_posix6recordntEv
_ZNK5boost3log12v2s_mt_posix3aux11record_pumpINS1_7sources18severity_logger_mtINS1_7trivial14severity_levelEEEE6streamEv
_ZN5boost3log12v2s_mt_posix20basic_record_ostreamIcElsEPKc
strrchr
_ZN5boost3log12v2s_mt_posix20basic_record_ostreamIcElsEi
_ZN5boost3log12v2s_mt_posix3aux11record_pumpINS1_7sources18severity_logger_mtINS1_7trivial14severity_levelEEEED2Ev
_ZN5boost3log12v2s_mt_posix6recordD2Ev
_ZNSt14basic_ifstreamIcSt11char_traitsIcEED1Ev
_ZN14social_network11load_configEPN8nlohmann10basic_jsonISt3mapSt6vectorNSt7__cxx1112basic_stringIcSt11char_traitsIcESaIcEEEblmdSaNS0_14adl_serializerEEE
getenv
strlen
_ZN8nlohmann10basic_jsonISt3mapSt6vectorNSt7__cxx1112basic_stringIcSt11char_traitsIcESaIcEEEblmdSaNS_14adl_serializerEE5parseEONS_6detail13input_adapterESt8functionIFbiNSB_6parserISA_E13parse_event_tERSA_EEb
_ZN8nlohmann6detail13input_adapterC2IPcLi0EEET_
_ZNSt8functionIFbiN8nlohmann6detail6parserINS0_10basic_jsonISt3mapSt6vectorNSt7__cxx1112basic_stringIcSt11char_traitsIcESaIcEEEblmdSaNS0_14adl_serializerEEEE13parse_event_tERSD_EEC2EDn
_ZN8nlohmann10basic_jsonISt3mapSt6vectorNSt7__cxx1112basic_stringIcSt11char_traitsIcESaIcEEEblmdSaNS_14adl_serializerEEaSESA_
_ZN8nlohmann10basic_jsonISt3mapSt6vectorNSt7__cxx1112basic_stringIcSt11char_traitsIcESaIcEEEblmdSaNS_14adl_serializerEED2Ev
_ZNSt8functionIFbiN8nlohmann6detail6parserINS0_10basic_jsonISt3mapSt6vectorNSt7__cxx1112basic_stringIcSt11char_traitsIcESaIcEEEblmdSaNS0_14adl_serializerEEEE13parse_event_tERSD_EED2Ev
_ZN8nlohmann6detail13input_adapterD2Ev
_ZNSaIcEC1Ev
_ZNSt7__cxx1112basic_stringIcSt11char_traitsIcESaIcEEC1EPKcRKS3_
_ZNSaIcED1Ev
__cxx_global_var_init.10
_ZN11opentracing2v226propagation_error_categoryEv
_ZNSt10error_codeC2EiRKNSt3_V214error_categoryE
__cxx_global_var_init.11
__cxx_global_var_init.12
__cxx_global_var_init.13
__cxx_global_var_init.14
_ZN14social_network11SetUpTracerERKNSt7__cxx1112basic_stringIcSt11char_traitsIcESaIcEEES7_
_ZN4YAML8LoadFileERKNSt7__cxx1112basic_stringIcSt11char_traitsIcESaIcEEE
_ZN13jaegertracing6Config5parseERKN4YAML4NodeE
_ZN13jaegertracing6Tracer4makeERKNSt7__cxx1112basic_stringIcSt11char_traitsIcESaIcEEERKNS_6ConfigERKSt10shared_ptrINS_7logging6LoggerEE
_ZN13jaegertracing7logging13consoleLoggerEv
_ZNSt10shared_ptrIN13jaegertracing7logging6LoggerEEC2IS2_St14default_deleteIS2_EvEEOSt10unique_ptrIT_T0_E
_ZNSt10shared_ptrIN13jaegertracing7logging6LoggerEED2Ev
_ZNSt10unique_ptrIN13jaegertracing7logging6LoggerESt14default_deleteIS2_EED2Ev
_ZN11opentracing2v26Tracer10InitGlobalESt10shared_ptrIS1_E
_ZSt19static_pointer_castIN11opentracing2v26TracerES2_ESt10shared_ptrIT_ERKS3_IT0_E
_ZNSt10shared_ptrIN11opentracing2v26TracerEED2Ev
_ZN13jaegertracing6ConfigD2Ev
_ZN4YAML4NodeD2Ev
_ZN14social_network15UniqueIdHandlerC2EPSt5mutexRKNSt7__cxx1112basic_stringIcSt11char_traitsIcESaIcEEEPNS_10ClientPoolINS_12ThriftClientINS_24ComposePostServiceClientEEEEE
_ZN14social_network17UniqueIdServiceIfC2Ev
_ZNSt7__cxx1112basic_stringIcSt11char_traitsIcESaIcEEC1Ev
_ZN5boost3log12v2s_mt_posixlsINS1_20basic_record_ostreamIcEENSt7__cxx1112basic_stringIcSt11char_traitsIcESaIcEEEEENS1_3aux38enable_record_ostream_generic_operatorIT_T0_Lb0ERSD_E4typeESF_RKSE_
_ZNSt7__cxx1112basic_stringIcSt11char_traitsIcESaIcEEaSERKS4_
_ZN14social_network15UniqueIdHandler14UploadUniqueIdElNS_8PostType4typeERKSt3mapINSt7__cxx1112basic_stringIcSt11char_traitsIcESaIcEEES9_St4lessIS9_ESaISt4pairIKS9_S9_EEE
_ZN14social_network13TextMapReaderC2ERKSt3mapINSt7__cxx1112basic_stringIcSt11char_traitsIcESaIcEEES7_St4lessIS7_ESaISt4pairIKS7_S7_EEE
_ZNSt3mapINSt7__cxx1112basic_stringIcSt11char_traitsIcESaIcEEES5_St4lessIS5_ESaISt4pairIKS5_S5_EEEC2Ev
_ZN14social_network13TextMapWriterC2ERSt3mapINSt7__cxx1112basic_stringIcSt11char_traitsIcESaIcEEES7_St4lessIS7_ESaISt4pairIKS7_S7_EEE
_ZN11opentracing2v26Tracer6GlobalEv
_ZNKSt19__shared_ptr_accessIN11opentracing2v26TracerELN9__gnu_cxx12_Lock_policyE2ELb0ELb0EEptEv
_ZNK11opentracing2v26Tracer9StartSpanENS0_11string_viewESt16initializer_listINS0_14option_wrapperINS0_15StartSpanOptionEEEE
_ZN11opentracing2v211string_viewC2EPKc
_ZN11opentracing2v27ChildOfEPKNS0_11SpanContextE
_ZN11opentracing2v28expectedISt10unique_ptrINS0_11SpanContextESt14default_deleteIS3_EESt10error_codeEptEv
_ZNKSt10unique_ptrIN11opentracing2v211SpanContextESt14default_deleteIS2_EE3getEv
_ZN11opentracing2v214option_wrapperINS0_15StartSpanOptionEEC2ERKS2_
_ZN11opentracing2v213SpanReferenceD2Ev
_ZNKSt10unique_ptrIN11opentracing2v24SpanESt14default_deleteIS2_EEptEv
_ZN11opentracing2v28expectedIvSt10error_codeED2Ev
_ZNSt5mutex4lockEv
_ZNSt6chrono13duration_castINS_8durationIlSt5ratioILl1ELl1000EEEElS2_ILl1ELl1000000000EEEENSt9enable_ifIXsr13__is_durationIT_EE5valueES7_E4typeERKNS1_IT0_T1_EE
_ZNSt6chrono3_V212system_clock3nowEv
_ZNKSt6chrono10time_pointINS_3_V212system_clockENS_8durationIlSt5ratioILl1ELl1000000000EEEEE16time_since_epochEv
_ZNKSt6chrono8durationIlSt5ratioILl1ELl1000EEE5countEv
_ZN14social_networkL10GetCounterEl
_ZNSt5mutex6unlockEv
_ZNSt7__cxx1118basic_stringstreamIcSt11char_traitsIcESaIcEEC1Ev
_ZNSolsEPFRSt8ios_baseS0_E
_ZSt3hexRSt8ios_base
_ZNSolsEl
_ZNKSt7__cxx1118basic_stringstreamIcSt11char_traitsIcESaIcEE3strEv
_ZNKSt7__cxx1112basic_stringIcSt11char_traitsIcESaIcEE4sizeEv
_ZNSt7__cxx1112basic_stringIcSt11char_traitsIcESaIcEE5eraseEmm
_ZStplIcSt11char_traitsIcESaIcEENSt7__cxx1112basic_stringIT_T0_T1_EEOS8_RKS8_
_ZNSt7__cxx1112basic_stringIcSt11char_traitsIcESaIcEEC1EmcRKS3_
_ZNSt7__cxx1112basic_stringIcSt11char_traitsIcESaIcEEaSEOS4_
_ZNSt9basic_iosIcSt11char_traitsIcEE5clearESt12_Ios_Iostate
_ZNSt7__cxx1118basic_stringstreamIcSt11char_traitsIcESaIcEE3strERKNS_12basic_stringIcS2_S3_EE
_ZNSolsEi
_ZStplIcSt11char_traitsIcESaIcEENSt7__cxx1112basic_stringIT_T0_T1_EERKS8_SA_
_ZNSt7__cxx115stoulERKNS_12basic_stringIcSt11char_traitsIcESaIcEEEPmi
_ZN5boost3log12v2s_mt_posix20basic_record_ostreamIcElsEl
_ZN14social_network10ClientPoolINS_12ThriftClientINS_24ComposePostServiceClientEEEE3PopEv
_ZN14social_network16ServiceExceptionC2Ev
__cxa_allocate_exception
_ZN14social_network16ServiceExceptionC1ERKS0_
__cxa_free_exception
_ZN14social_network16ServiceExceptionD1Ev
__cxa_throw
_ZNK14social_network12ThriftClientINS_24ComposePostServiceClientEE9GetClientEv
_ZN14social_network10ClientPoolINS_12ThriftClientINS_24ComposePostServiceClientEEEE13StartRpcTraceEPKcPS3_
_ZNKSt10unique_ptrIN14social_network10ClientPoolINS0_12ThriftClientINS0_24ComposePostServiceClientEEEE13RpcTraceGuardESt14default_deleteIS6_EEptEv
_ZN14social_network10ClientPoolINS_12ThriftClientINS_24ComposePostServiceClientEEEE13RpcTraceGuard10set_statusEt
_ZN14social_network10ClientPoolINS_12ThriftClientINS_24ComposePostServiceClientEEEE6RemoveEPS3_
__cxa_rethrow
_ZNSt10unique_ptrIN14social_network10ClientPoolINS0_12ThriftClientINS0_24ComposePostServiceClientEEEE13RpcTraceGuardESt14default_deleteIS6_EED2Ev
_ZN14social_network10ClientPoolINS_12ThriftClientINS_24ComposePostServiceClientEEEE4PushEPS3_
_ZN11opentracing2v24Span6FinishESt16initializer_listINS0_14option_wrapperINS0_16FinishSpanOptionEEEE
_ZNSt16initializer_listIN11opentracing2v214option_wrapperINS1_16FinishSpanOptionEEEEC2Ev
_ZNSt7__cxx1118basic_stringstreamIcSt11char_traitsIcESaIcEED1Ev
_ZNSt10unique_ptrIN11opentracing2v24SpanESt14default_deleteIS2_EED2Ev
_ZN11opentracing2v28expectedISt10unique_ptrINS0_11SpanContextESt14default_deleteIS3_EESt10error_codeED2Ev
_ZN14social_network13TextMapWriterD2Ev
_ZNSt3mapINSt7__cxx1112basic_stringIcSt11char_traitsIcESaIcEEES5_St4lessIS5_ESaISt4pairIKS5_S5_EEED2Ev
_ZN14social_network13TextMapReaderD2Ev
_ZN14social_network17HashMacAddressPidERKNSt7__cxx1112basic_stringIcSt11char_traitsIcESaIcEEE
srand
getpid
_ZStplIcSt11char_traitsIcESaIcEENSt7__cxx1112basic_stringIT_T0_T1_EERKS8_OS8_
_ZNSt7__cxx119to_stringEi
rand
_ZNSt7__cxx1112basic_stringIcSt11char_traitsIcESaIcEEixEm
_ZN14social_network12GetMachineIdEPNSt7__cxx1112basic_stringIcSt11char_traitsIcESaIcEEE
_ZNSt14basic_ifstreamIcSt11char_traitsIcEEC1EPKcSt13_Ios_Openmode
_ZSt7getlineIcSt11char_traitsIcESaIcEERSt13basic_istreamIT_T0_ES7_RNSt7__cxx1112basic_stringIS4_S5_T1_EE
_ZNSolsEt
_ZN5boost3log12v2s_mt_posixlsINS1_20basic_record_ostreamIcEENSt7__cxx1112basic_stringIcSt11char_traitsIcESaIcEEEEENS1_3aux38enable_record_ostream_generic_operatorIT_T0_Lb0ERSD_E4typeESF_RSE_
__cxx_global_var_init.24
_ZN8nlohmann10basic_jsonISt3mapSt6vectorNSt7__cxx1112basic_stringIcSt11char_traitsIcESaIcEEEblmdSaNS_14adl_serializerEEC2EDn
__cxx_global_var_init.25
faas_init
_Znwm
_ZNSt5mutexC2Ev
faas_create_func_worker
_ZN10FaasWorkerC2EPvPFiS0_PKcS2_mPS2_PmEPFvS0_S2_mE
_ZdlPv
_ZN8nlohmann10basic_jsonISt3mapSt6vectorNSt7__cxx1112basic_stringIcSt11char_traitsIcESaIcEEEblmdSaNS_14adl_serializerEEixIKcEERSA_PT_
_ZNK8nlohmann10basic_jsonISt3mapSt6vectorNSt7__cxx1112basic_stringIcSt11char_traitsIcESaIcEEEblmdSaNS_14adl_serializerEEcvT_IS8_Li0EEEv
_ZNK8nlohmann10basic_jsonISt3mapSt6vectorNSt7__cxx1112basic_stringIcSt11char_traitsIcESaIcEEEblmdSaNS_14adl_serializerEEcvT_IiLi0EEEv
_ZN14social_network10ClientPoolINS_12ThriftClientINS_24ComposePostServiceClientEEEEC2ERKNSt7__cxx1112basic_stringIcSt11char_traitsIcESaIcEEESC_iiiiSC_P10FaasWorkerSC_SC_
_ZN10FaasWorker12SetProcessorESt10shared_ptrIN6apache6thrift10TProcessorEE
_ZSt11make_sharedIN14social_network24UniqueIdServiceProcessorEJSt10shared_ptrINS0_15UniqueIdHandlerEEEES2_IT_EDpOT0_
_ZSt11make_sharedIN14social_network15UniqueIdHandlerEJRPSt5mutexRNSt7__cxx1112basic_stringIcSt11char_traitsIcESaIcEEERPNS0_10ClientPoolINS0_12ThriftClientINS0_24ComposePostServiceClientEEEEEEESt10shared_ptrIT_EDpOT0_
_ZNSt10shared_ptrIN6apache6thrift10TProcessorEEC2IN14social_network24UniqueIdServiceProcessorEvEEOS_IT_E
_ZNSt10shared_ptrIN6apache6thrift10TProcessorEED2Ev
_ZNSt10shared_ptrIN14social_network24UniqueIdServiceProcessorEED2Ev
_ZNSt10shared_ptrIN14social_network15UniqueIdHandlerEED2Ev
faas_destroy_func_worker
_ZN10FaasWorkerD2Ev
faas_func_call
_ZN10FaasWorker7ProcessEPKcm
__cxa_pure_virtual
_ZNK5boost6system14error_category10equivalentEiRKNS0_15error_conditionE
_ZNK5boost6system14error_category10equivalentERKNS0_10error_codeEi
_ZNK5boost6system14error_category7messageEiPcm
_ZNK5boost6system14error_category6failedEi
_ZNK5boost6system6detail22generic_error_category4nameEv
_ZNK5boost6system6detail22generic_error_category7messageEiPcm
_ZNK5boost6system6detail21system_error_category4nameEv
_ZNK5boost6system6detail21system_error_category7messageB5cxx11Ei
_ZNK5boost6system6detail21system_error_category7messageEiPcm
_ZN5boost6system6detail12std_categoryD2Ev
_ZN5boost6system6detail12std_categoryD0Ev
_ZNK5boost6system6detail12std_category4nameEv
_ZNKSt3_V214error_category10_M_messageB5cxx11Ei
_ZNK5boost6system6detail12std_category7messageB5cxx11Ei
_ZNK5boost6system6detail12std_category23default_error_conditionEi
_ZNK5boost6system6detail12std_category10equivalentERKSt10error_codei
_ZN5boost6system12system_errorD2Ev
_ZN5boost6system12system_errorD0Ev
_ZN14social_network15UniqueIdHandlerD2Ev
_ZN14social_network15UniqueIdHandlerD0Ev
_ZN5boost6system6detail11failed_implEiRKNS0_14error_categoryE
_ZNK5boost6system14error_categoryeqERKS1_
_ZN5boost6system15system_categoryEv
_ZN5boost6system6detail30generic_error_category_messageEiPcm
_ZN5boost6system6detail17strerror_r_helperEPKcS3_
strerror_r
_ZN5boost6system6detail16is_generic_valueEi
_ZN5boost6system6detail15to_std_categoryERKNS0_14error_categoryE
__cxa_guard_acquire
_ZN5boost6system6detail12std_categoryC2EPKNS0_14error_categoryEj
__cxa_guard_abort
__cxa_guard_release
_ZNSt3mapIPKN5boost6system14error_categoryESt10unique_ptrINS1_6detail12std_categoryESt14default_deleteIS7_EENS6_12cat_ptr_lessESaISt4pairIKS4_SA_EEEC2Ev
_ZNSt3mapIPKN5boost6system14error_categoryESt10unique_ptrINS1_6detail12std_categoryESt14default_deleteIS7_EENS6_12cat_ptr_lessESaISt4pairIKS4_SA_EEED2Ev
_ZNSt10lock_guardISt5mutexEC2ERS0_
_ZNSt3mapIPKN5boost6system14error_categoryESt10unique_ptrINS1_6detail12std_categoryESt14default_deleteIS7_EENS6_12cat_ptr_lessESaISt4pairIKS4_SA_EEE4findERSD_
_ZSteqRKSt17_Rb_tree_iteratorISt4pairIKPKN5boost6system14error_categoryESt10unique_ptrINS2_6detail12std_categoryESt14default_deleteIS9_EEEESG_
_ZNSt3mapIPKN5boost6system14error_categoryESt10unique_ptrINS1_6detail12std_categoryESt14default_deleteIS7_EENS6_12cat_ptr_lessESaISt4pairIKS4_SA_EEE3endEv
_ZNSt10unique_ptrIN5boost6system6detail12std_categoryESt14default_deleteIS3_EEC2IS5_vEEPS3_
_ZNSt3mapIPKN5boost6system14error_categoryESt10unique_ptrINS1_6detail12std_categoryESt14default_deleteIS7_EENS6_12cat_ptr_lessESaISt4pairIKS4_SA_EEE6insertEOSE_
_ZSt4moveIRSt10unique_ptrIN5boost6system6detail12std_categoryESt14default_deleteIS4_EEEONSt16remove_referenceIT_E4typeEOSA_
_ZNSt4pairIKPKN5boost6system14error_categoryESt10unique_ptrINS1_6detail12std_categoryESt14default_deleteIS8_EEEC2IS4_SB_Lb1EEEOT_OT0_
_ZNSt4pairIKPKN5boost6system14error_categoryESt10unique_ptrINS1_6detail12std_categoryESt14default_deleteIS8_EEED2Ev
llvm.memcpy.p0i8.p0i8.i64
_ZNSt10unique_ptrIN5boost6system6detail12std_categoryESt14default_deleteIS3_EED2Ev
_ZNKSt17_Rb_tree_iteratorISt4pairIKPKN5boost6system14error_categoryESt10unique_ptrINS2_6detail12std_categoryESt14default_deleteIS9_EEEEptEv
_ZNKSt10unique_ptrIN5boost6system6detail12std_categoryESt14default_deleteIS3_EEdeEv
_ZNSt10lock_guardISt5mutexED2Ev
_ZNSt3_V214error_categoryC2Ev
_ZNSt8_Rb_treeIPKN5boost6system14error_categoryESt4pairIKS4_St10unique_ptrINS1_6detail12std_categoryESt14default_deleteIS9_EEESt10_Select1stISD_ENS8_12cat_ptr_lessESaISD_EEC2Ev
_ZNSt8_Rb_treeIPKN5boost6system14error_categoryESt4pairIKS4_St10unique_ptrINS1_6detail12std_categoryESt14default_deleteIS9_EEESt10_Select1stISD_ENS8_12cat_ptr_lessESaISD_EE13_Rb_tree_implISG_Lb1EEC2Ev
_ZNSaISt13_Rb_tree_nodeISt4pairIKPKN5boost6system14error_categoryESt10unique_ptrINS2_6detail12std_categoryESt14default_deleteIS9_EEEEEC2Ev
_ZNSt20_Rb_tree_key_compareIN5boost6system6detail12cat_ptr_lessEEC2Ev
_ZNSt15_Rb_tree_headerC2Ev
_ZN9__gnu_cxx13new_allocatorISt13_Rb_tree_nodeISt4pairIKPKN5boost6system14error_categoryESt10unique_ptrINS4_6detail12std_categoryESt14default_deleteISB_EEEEEC2Ev
_ZNSt15_Rb_tree_header8_M_resetEv
_ZNSt8_Rb_treeIPKN5boost6system14error_categoryESt4pairIKS4_St10unique_ptrINS1_6detail12std_categoryESt14default_deleteIS9_EEESt10_Select1stISD_ENS8_12cat_ptr_lessESaISD_EED2Ev
_ZNSt8_Rb_treeIPKN5boost6system14error_categoryESt4pairIKS4_St10unique_ptrINS1_6detail12std_categoryESt14default_deleteIS9_EEESt10_Select1stISD_ENS8_12cat_ptr_lessESaISD_EE8_M_eraseEPSt13_Rb_tree_nodeISD_E
_ZNSt8_Rb_treeIPKN5boost6system14error_categoryESt4pairIKS4_St10unique_ptrINS1_6detail12std_categoryESt14default_deleteIS9_EEESt10_Select1stISD_ENS8_12cat_ptr_lessESaISD_EE8_M_beginEv
_ZNSt8_Rb_treeIPKN5boost6system14error_categoryESt4pairIKS4_St10unique_ptrINS1_6detail12std_categoryESt14default_deleteIS9_EEESt10_Select1stISD_ENS8_12cat_ptr_lessESaISD_EE13_Rb_tree_implISG_Lb1EED2Ev
_ZNSt8_Rb_treeIPKN5boost6system14error_categoryESt4pairIKS4_St10unique_ptrINS1_6detail12std_categoryESt14default_deleteIS9_EEESt10_Select1stISD_ENS8_12cat_ptr_lessESaISD_EE8_S_rightEPSt18_Rb_tree_node_base
_ZNSt8_Rb_treeIPKN5boost6system14error_categoryESt4pairIKS4_St10unique_ptrINS1_6detail12std_categoryESt14default_deleteIS9_EEESt10_Select1stISD_ENS8_12cat_ptr_lessESaISD_EE7_S_leftEPSt18_Rb_tree_node_base
_ZNSt8_Rb_treeIPKN5boost6system14error_categoryESt4pairIKS4_St10unique_ptrINS1_6detail12std_categoryESt14default_deleteIS9_EEESt10_Select1stISD_ENS8_12cat_ptr_lessESaISD_EE12_M_drop_nodeEPSt13_Rb_tree_nodeISD_E
_ZNSt8_Rb_treeIPKN5boost6system14error_categoryESt4pairIKS4_St10unique_ptrINS1_6detail12std_categoryESt14default_deleteIS9_EEESt10_Select1stISD_ENS8_12cat_ptr_lessESaISD_EE15_M_destroy_nodeEPSt13_Rb_tree_nodeISD_E
_ZNSt8_Rb_treeIPKN5boost6system14error_categoryESt4pairIKS4_St10unique_ptrINS1_6detail12std_categoryESt14default_deleteIS9_EEESt10_Select1stISD_ENS8_12cat_ptr_lessESaISD_EE11_M_put_nodeEPSt13_Rb_tree_nodeISD_E
_ZNSt16allocator_traitsISaISt13_Rb_tree_nodeISt4pairIKPKN5boost6system14error_categoryESt10unique_ptrINS3_6detail12std_categoryESt14default_deleteISA_EEEEEE7destroyISE_EEvRSG_PT_
_ZNSt8_Rb_treeIPKN5boost6system14error_categoryESt4pairIKS4_St10unique_ptrINS1_6detail12std_categoryESt14default_deleteIS9_EEESt10_Select1stISD_ENS8_12cat_ptr_lessESaISD_EE21_M_get_Node_allocatorEv
_ZNSt13_Rb_tree_nodeISt4pairIKPKN5boost6system14error_categoryESt10unique_ptrINS2_6detail12std_categoryESt14default_deleteIS9_EEEE9_M_valptrEv
_ZN9__gnu_cxx13new_allocatorISt13_Rb_tree_nodeISt4pairIKPKN5boost6system14error_categoryESt10unique_ptrINS4_6detail12std_categoryESt14default_deleteISB_EEEEE7destroyISF_EEvPT_
_ZN9__gnu_cxx16__aligned_membufISt4pairIKPKN5boost6system14error_categoryESt10unique_ptrINS3_6detail12std_categoryESt14default_deleteISA_EEEE6_M_ptrEv
_ZN9__gnu_cxx16__aligned_membufISt4pairIKPKN5boost6system14error_categoryESt10unique_ptrINS3_6detail12std_categoryESt14default_deleteISA_EEEE7_M_addrEv
_ZNSt16allocator_traitsISaISt13_Rb_tree_nodeISt4pairIKPKN5boost6system14error_categoryESt10unique_ptrINS3_6detail12std_categoryESt14default_deleteISA_EEEEEE10deallocateERSG_PSF_m
_ZN9__gnu_cxx13new_allocatorISt13_Rb_tree_nodeISt4pairIKPKN5boost6system14error_categoryESt10unique_ptrINS4_6detail12std_categoryESt14default_deleteISB_EEEEE10deallocateEPSG_m
_ZNSaISt13_Rb_tree_nodeISt4pairIKPKN5boost6system14error_categoryESt10unique_ptrINS2_6detail12std_categoryESt14default_deleteIS9_EEEEED2Ev
_ZN9__gnu_cxx13new_allocatorISt13_Rb_tree_nodeISt4pairIKPKN5boost6system14error_categoryESt10unique_ptrINS4_6detail12std_categoryESt14default_deleteISB_EEEEED2Ev
_ZNSt8_Rb_treeIPKN5boost6system14error_categoryESt4pairIKS4_St10unique_ptrINS1_6detail12std_categoryESt14default_deleteIS9_EEESt10_Select1stISD_ENS8_12cat_ptr_lessESaISD_EE4findERS6_
_ZNSt8_Rb_treeIPKN5boost6system14error_categoryESt4pairIKS4_St10unique_ptrINS1_6detail12std_categoryESt14default_deleteIS9_EEESt10_Select1stISD_ENS8_12cat_ptr_lessESaISD_EE14_M_lower_boundEPSt13_Rb_tree_nodeISD_EPSt18_Rb_tree_node_baseRS6_
_ZNSt8_Rb_treeIPKN5boost6system14error_categoryESt4pairIKS4_St10unique_ptrINS1_6detail12std_categoryESt14default_deleteIS9_EEESt10_Select1stISD_ENS8_12cat_ptr_lessESaISD_EE6_M_endEv
_ZNSt8_Rb_treeIPKN5boost6system14error_categoryESt4pairIKS4_St10unique_ptrINS1_6detail12std_categoryESt14default_deleteIS9_EEESt10_Select1stISD_ENS8_12cat_ptr_lessESaISD_EE3endEv
_ZNK5boost6system6detail12cat_ptr_lessclEPKNS0_14error_categoryES5_
_ZNSt8_Rb_treeIPKN5boost6system14error_categoryESt4pairIKS4_St10unique_ptrINS1_6detail12std_categoryESt14default_deleteIS9_EEESt10_Select1stISD_ENS8_12cat_ptr_lessESaISD_EE6_S_keyEPKSt18_Rb_tree_node_base
_ZNSt8_Rb_treeIPKN5boost6system14error_categoryESt4pairIKS4_St10unique_ptrINS1_6detail12std_categoryESt14default_deleteIS9_EEESt10_Select1stISD_ENS8_12cat_ptr_lessESaISD_EE6_S_keyEPKSt13_Rb_tree_nodeISD_E
_ZNSt17_Rb_tree_iteratorISt4pairIKPKN5boost6system14error_categoryESt10unique_ptrINS2_6detail12std_categoryESt14default_deleteIS9_EEEEC2EPSt18_Rb_tree_node_base
_ZNKSt10_Select1stISt4pairIKPKN5boost6system14error_categoryESt10unique_ptrINS2_6detail12std_categoryESt14default_deleteIS9_EEEEclERKSD_
_ZNKSt13_Rb_tree_nodeISt4pairIKPKN5boost6system14error_categoryESt10unique_ptrINS2_6detail12std_categoryESt14default_deleteIS9_EEEE9_M_valptrEv
_ZNK9__gnu_cxx16__aligned_membufISt4pairIKPKN5boost6system14error_categoryESt10unique_ptrINS3_6detail12std_categoryESt14default_deleteISA_EEEE6_M_ptrEv
_ZNK9__gnu_cxx16__aligned_membufISt4pairIKPKN5boost6system14error_categoryESt10unique_ptrINS3_6detail12std_categoryESt14default_deleteISA_EEEE7_M_addrEv
_ZNK5boost6system14error_categoryltERKS1_
_ZNKSt4lessIPKN5boost6system14error_categoryEEclES4_S4_
_ZNSt15__uniq_ptr_implIN5boost6system6detail12std_categoryESt14default_deleteIS3_EEC2EPS3_
_ZNSt5tupleIJPN5boost6system6detail12std_categoryESt14default_deleteIS3_EEEC2IS4_S6_Lb1EEEv
_ZNSt15__uniq_ptr_implIN5boost6system6detail12std_categoryESt14default_deleteIS3_EE6_M_ptrEv
_ZNSt11_Tuple_implILm0EJPN5boost6system6detail12std_categoryESt14default_deleteIS3_EEEC2Ev
_ZNSt11_Tuple_implILm1EJSt14default_deleteIN5boost6system6detail12std_categoryEEEEC2Ev
_ZNSt10_Head_baseILm0EPN5boost6system6detail12std_categoryELb0EEC2Ev
_ZNSt10_Head_baseILm1ESt14default_deleteIN5boost6system6detail12std_categoryEELb1EEC2Ev
_ZSt3getILm0EJPN5boost6system6detail12std_categoryESt14default_deleteIS3_EEERNSt13tuple_elementIXT_ESt5tupleIJDpT0_EEE4typeERSB_
_ZSt12__get_helperILm0EPN5boost6system6detail12std_categoryEJSt14default_deleteIS3_EEERT0_RSt11_Tuple_implIXT_EJS7_DpT1_EE
_ZNSt11_Tuple_implILm0EJPN5boost6system6detail12std_categoryESt14default_deleteIS3_EEE7_M_headERS7_
_ZNSt10_Head_baseILm0EPN5boost6system6detail12std_categoryELb0EE7_M_headERS5_
_ZNSt8_Rb_treeIPKN5boost6system14error_categoryESt4pairIKS4_St10unique_ptrINS1_6detail12std_categoryESt14default_deleteIS9_EEESt10_Select1stISD_ENS8_12cat_ptr_lessESaISD_EE16_M_insert_uniqueISD_EES5_ISt17_Rb_tree_iteratorISD_EbEOT_
_ZSt4moveIRSt4pairIKPKN5boost6system14error_categoryESt10unique_ptrINS2_6detail12std_categoryESt14default_deleteIS9_EEEEONSt16remove_referenceIT_E4typeEOSG_
_ZNSt8_Rb_treeIPKN5boost6system14error_categoryESt4pairIKS4_St10unique_ptrINS1_6detail12std_categoryESt14default_deleteIS9_EEESt10_Select1stISD_ENS8_12cat_ptr_lessESaISD_EE24_M_get_insert_unique_posERS6_
_ZNKSt10_Select1stISt4pairIKPKN5boost6system14error_categoryESt10unique_ptrINS2_6detail12std_categoryESt14default_deleteIS9_EEEEclERSD_
_ZNSt8_Rb_treeIPKN5boost6system14error_categoryESt4pairIKS4_St10unique_ptrINS1_6detail12std_categoryESt14default_deleteIS9_EEESt10_Select1stISD_ENS8_12cat_ptr_lessESaISD_EE11_Alloc_nodeC2ERSI_
_ZNSt8_Rb_treeIPKN5boost6system14error_categoryESt4pairIKS4_St10unique_ptrINS1_6detail12std_categoryESt14default_deleteIS9_EEESt10_Select1stISD_ENS8_12cat_ptr_lessESaISD_EE10_M_insert_ISD_NSI_11_Alloc_nodeEEESt17_Rb_tree_iteratorISD_EPSt18_Rb_tree_node_baseSO_OT_RT0_
_ZSt7forwardISt4pairIKPKN5boost6system14error_categoryESt10unique_ptrINS2_6detail12std_categoryESt14default_deleteIS9_EEEEOT_RNSt16remove_referenceISE_E4typeE
_ZNSt4pairISt17_Rb_tree_iteratorIS_IKPKN5boost6system14error_categoryESt10unique_ptrINS2_6detail12std_categoryESt14default_deleteIS9_EEEEbEC2ISE_bLb1EEEOT_OT0_
_ZNSt8_Rb_treeIPKN5boost6system14error_categoryESt4pairIKS4_St10unique_ptrINS1_6detail12std_categoryESt14default_deleteIS9_EEESt10_Select1stISD_ENS8_12cat_ptr_lessESaISD_EE5beginEv
_ZNSt4pairIPSt18_Rb_tree_node_baseS1_EC2IRPSt13_Rb_tree_nodeIS_IKPKN5boost6system14error_categoryESt10unique_ptrINS6_6detail12std_categoryESt14default_deleteISD_EEEERS1_Lb1EEEOT_OT0_
_ZNSt17_Rb_tree_iteratorISt4pairIKPKN5boost6system14error_categoryESt10unique_ptrINS2_6detail12std_categoryESt14default_deleteIS9_EEEEmmEv
_ZNSt4pairIPSt18_Rb_tree_node_baseS1_EC2IRS1_Lb1EEEOT_RKS1_
_ZSt7forwardIRPSt13_Rb_tree_nodeISt4pairIKPKN5boost6system14error_categoryESt10unique_ptrINS3_6detail12std_categoryESt14default_deleteISA_EEEEEOT_RNSt16remove_referenceISI_E4typeE
_ZSt7forwardIRPSt18_Rb_tree_node_baseEOT_RNSt16remove_referenceIS3_E4typeE
_ZSt18_Rb_tree_decrementPSt18_Rb_tree_node_base
_ZNKSt8_Rb_treeIPKN5boost6system14error_categoryESt4pairIKS4_St10unique_ptrINS1_6detail12std_categoryESt14default_deleteIS9_EEESt10_Select1stISD_ENS8_12cat_ptr_lessESaISD_EE11_Alloc_nodeclISD_EEPSt13_Rb_tree_nodeISD_EOT_
_ZSt29_Rb_tree_insert_and_rebalancebPSt18_Rb_tree_node_baseS0_RS_
_ZNSt8_Rb_treeIPKN5boost6system14error_categoryESt4pairIKS4_St10unique_ptrINS1_6detail12std_categoryESt14default_deleteIS9_EEESt10_Select1stISD_ENS8_12cat_ptr_lessESaISD_EE14_M_create_nodeIJSD_EEEPSt13_Rb_tree_nodeISD_EDpOT_
_ZNSt8_Rb_treeIPKN5boost6system14error_categoryESt4pairIKS4_St10unique_ptrINS1_6detail12std_categoryESt14default_deleteIS9_EEESt10_Select1stISD_ENS8_12cat_ptr_lessESaISD_EE11_M_get_nodeEv
_ZNSt8_Rb_treeIPKN5boost6system14error_categoryESt4pairIKS4_St10unique_ptrINS1_6detail12std_categoryESt14default_deleteIS9_EEESt10_Select1stISD_ENS8_12cat_ptr_lessESaISD_EE17_M_construct_nodeIJSD_EEEvPSt13_Rb_tree_nodeISD_EDpOT_
_ZNSt16allocator_traitsISaISt13_Rb_tree_nodeISt4pairIKPKN5boost6system14error_categoryESt10unique_ptrINS3_6detail12std_categoryESt14default_deleteISA_EEEEEE8allocateERSG_m
_ZN9__gnu_cxx13new_allocatorISt13_Rb_tree_nodeISt4pairIKPKN5boost6system14error_categoryESt10unique_ptrINS4_6detail12std_categoryESt14default_deleteISB_EEEEE8allocateEmPKv
_ZNK9__gnu_cxx13new_allocatorISt13_Rb_tree_nodeISt4pairIKPKN5boost6system14error_categoryESt10unique_ptrINS4_6detail12std_categoryESt14default_deleteISB_EEEEE8max_sizeEv
_ZSt17__throw_bad_allocv
_ZNSt16allocator_traitsISaISt13_Rb_tree_nodeISt4pairIKPKN5boost6system14error_categoryESt10unique_ptrINS3_6detail12std_categoryESt14default_deleteISA_EEEEEE9constructISE_JSE_EEEvRSG_PT_DpOT0_
_ZN9__gnu_cxx13new_allocatorISt13_Rb_tree_nodeISt4pairIKPKN5boost6system14error_categoryESt10unique_ptrINS4_6detail12std_categoryESt14default_deleteISB_EEEEE9constructISF_JSF_EEEvPT_DpOT0_
_ZNSt4pairIKPKN5boost6system14error_categoryESt10unique_ptrINS1_6detail12std_categoryESt14default_deleteIS8_EEEC2EOSC_
_ZNSt10unique_ptrIN5boost6system6detail12std_categoryESt14default_deleteIS3_EEC2EOS6_
_ZNSt10unique_ptrIN5boost6system6detail12std_categoryESt14default_deleteIS3_EE7releaseEv
_ZSt7forwardISt14default_deleteIN5boost6system6detail12std_categoryEEEOT_RNSt16remove_referenceIS6_E4typeE
_ZNSt10unique_ptrIN5boost6system6detail12std_categoryESt14default_deleteIS3_EE11get_deleterEv
_ZNSt15__uniq_ptr_implIN5boost6system6detail12std_categoryESt14default_deleteIS3_EEC2IS5_EEPS3_OT_
_ZNKSt10unique_ptrIN5boost6system6detail12std_categoryESt14default_deleteIS3_EE3getEv
_ZNKSt15__uniq_ptr_implIN5boost6system6detail12std_categoryESt14default_deleteIS3_EE6_M_ptrEv
_ZSt3getILm0EJPN5boost6system6detail12std_categoryESt14default_deleteIS3_EEERKNSt13tuple_elementIXT_ESt5tupleIJDpT0_EEE4typeERKSB_
_ZSt12__get_helperILm0EPN5boost6system6detail12std_categoryEJSt14default_deleteIS3_EEERKT0_RKSt11_Tuple_implIXT_EJS7_DpT1_EE
_ZNSt11_Tuple_implILm0EJPN5boost6system6detail12std_categoryESt14default_deleteIS3_EEE7_M_headERKS7_
_ZNSt10_Head_baseILm0EPN5boost6system6detail12std_categoryELb0EE7_M_headERKS5_
_ZNSt15__uniq_ptr_implIN5boost6system6detail12std_categoryESt14default_deleteIS3_EE10_M_deleterEv
_ZSt3getILm1EJPN5boost6system6detail12std_categoryESt14default_deleteIS3_EEERNSt13tuple_elementIXT_ESt5tupleIJDpT0_EEE4typeERSB_
_ZSt12__get_helperILm1ESt14default_deleteIN5boost6system6detail12std_categoryEEJEERT0_RSt11_Tuple_implIXT_EJS6_DpT1_EE
_ZNSt11_Tuple_implILm1EJSt14default_deleteIN5boost6system6detail12std_categoryEEEE7_M_headERS6_
_ZNSt10_Head_baseILm1ESt14default_deleteIN5boost6system6detail12std_categoryEELb1EE7_M_headERS6_
_ZNSt5tupleIJPN5boost6system6detail12std_categoryESt14default_deleteIS3_EEEC2IRS4_S6_Lb1EEEOT_OT0_
_ZSt7forwardIRPN5boost6system6detail12std_categoryEEOT_RNSt16remove_referenceIS6_E4typeE
_ZNSt11_Tuple_implILm0EJPN5boost6system6detail12std_categoryESt14default_deleteIS3_EEEC2IRS4_JS6_EvEEOT_DpOT0_
_ZNSt11_Tuple_implILm1EJSt14default_deleteIN5boost6system6detail12std_categoryEEEEC2IS5_EEOT_
_ZNSt10_Head_baseILm0EPN5boost6system6detail12std_categoryELb0EEC2IRS4_EEOT_
_ZNSt10_Head_baseILm1ESt14default_deleteIN5boost6system6detail12std_categoryEELb1EEC2IS5_EEOT_
_ZSt7forwardISt17_Rb_tree_iteratorISt4pairIKPKN5boost6system14error_categoryESt10unique_ptrINS3_6detail12std_categoryESt14default_deleteISA_EEEEEOT_RNSt16remove_referenceISG_E4typeE
_ZSt7forwardIbEOT_RNSt16remove_referenceIS0_E4typeE
_ZSt7forwardIPKN5boost6system14error_categoryEEOT_RNSt16remove_referenceIS5_E4typeE
_ZSt7forwardISt10unique_ptrIN5boost6system6detail12std_categoryESt14default_deleteIS4_EEEOT_RNSt16remove_referenceIS8_E4typeE
_ZNKSt14default_deleteIN5boost6system6detail12std_categoryEEclEPS3_
_ZSt4moveIRPN5boost6system6detail12std_categoryEEONSt16remove_referenceIT_E4typeEOS7_
_ZNK5boost6system10error_code5valueEv
_ZN5boost3log12v2s_mt_posix14attribute_name18get_id_from_stringEPKc
_ZN5boost3log12v2s_mt_posix4core20add_global_attributeERKNS1_14attribute_nameERKNS1_9attributeE
_ZN5boost3log12v2s_mt_posix3aux23default_attribute_names7line_idEv
_ZN5boost3log12v2s_mt_posix10attributes7counterIjEC2Ejj
_ZN5boost3log12v2s_mt_posix10attributes7counterIjED2Ev
_ZN5boost3log12v2s_mt_posix3aux23default_attribute_names9timestampEv
_ZN5boost3log12v2s_mt_posix10attributes11basic_clockINS2_17local_time_traitsEEC2Ev
_ZN5boost3log12v2s_mt_posix10attributes11basic_clockINS2_17local_time_traitsEED2Ev
_ZN5boost3log12v2s_mt_posix3aux23default_attribute_names10process_idEv
_ZN5boost3log12v2s_mt_posix10attributes18current_process_idC2Ev
_ZN5boost3log12v2s_mt_posix10attributes18current_process_idD2Ev
_ZN5boost3log12v2s_mt_posix3aux23default_attribute_names9thread_idEv
_ZN5boost3log12v2s_mt_posix10attributes17current_thread_idC2Ev
_ZN5boost3log12v2s_mt_posix10attributes17current_thread_idD2Ev
_ZN5boost3log12v2s_mt_posix9attribute4implnwEm
_ZN5boost3log12v2s_mt_posix10attributes7counterIjE4implC2Ejj
_ZN5boost13intrusive_ptrINS_3log12v2s_mt_posix9attribute4implEEC2EPS4_b
_ZN5boost3log12v2s_mt_posix9attributeC2ENS_13intrusive_ptrINS2_4implEEE
_ZN5boost13intrusive_ptrINS_3log12v2s_mt_posix9attribute4implEED2Ev
_ZN5boost3log12v2s_mt_posix9attribute4implC2Ev
_ZN5boost3log12v2s_mt_posix10attributes7counterIjE4implD2Ev
_ZN5boost3log12v2s_mt_posix10attributes7counterIjE4implD0Ev
_ZN5boost3log12v2s_mt_posix10attributes7counterIjE4impl9get_valueEv
_ZN5boost12sp_adl_block21intrusive_ref_counterINS_3log12v2s_mt_posix9attribute4implENS0_19thread_safe_counterEEC2Ev
_ZN5boost3log12v2s_mt_posix9attribute4implD2Ev
_ZN5boost3log12v2s_mt_posix9attribute4implD0Ev
_ZN5boost6detail12atomic_countC2El
_ZNSt6atomicIiEC2Ei
_ZNSt13__atomic_baseIiEC2Ei
llvm.trap
_ZN5boost3log12v2s_mt_posix9attribute4impldlEPvm
_ZN5boost3log12v2s_mt_posix10attributes20make_attribute_valueIRjEENS1_15attribute_valueEOT_
_ZN5boost7forwardIRjEEOT_RNS_11move_detail16remove_referenceIS2_E4typeE
_ZN5boost3log12v2s_mt_posix10attributes20attribute_value_implIjEC2ERKj
_ZN5boost13intrusive_ptrINS_3log12v2s_mt_posix15attribute_value4implEEC2EPS4_b
_ZN5boost3log12v2s_mt_posix15attribute_valueC2ENS_13intrusive_ptrINS2_4implEEE
_ZN5boost13intrusive_ptrINS_3log12v2s_mt_posix15attribute_value4implEED2Ev
_ZN5boost3log12v2s_mt_posix15attribute_value4implC2Ev
_ZN5boost3log12v2s_mt_posix10attributes20attribute_value_implIjED2Ev
_ZN5boost3log12v2s_mt_posix10attributes20attribute_value_implIjED0Ev
_ZN5boost3log12v2s_mt_posix15attribute_value4impl9get_valueEv
_ZN5boost3log12v2s_mt_posix10attributes20attribute_value_implIjE8dispatchERNS1_15type_dispatcherE
_ZN5boost3log12v2s_mt_posix15attribute_value4impl18detach_from_threadEv
_ZNK5boost3log12v2s_mt_posix10attributes20attribute_value_implIjE8get_typeEv
_ZN5boost3log12v2s_mt_posix15attribute_value4implD2Ev
_ZN5boost3log12v2s_mt_posix15attribute_value4implD0Ev
_ZNK5boost3log12v2s_mt_posix15attribute_value4impl8get_typeEv
_ZN5boost9typeindex14stl_type_indexC2Ev
_ZN5boost3log12v2s_mt_posix15type_dispatcher12get_callbackIjEENS2_8callbackIT_EEv
_ZNK5boost3log12v2s_mt_posix15type_dispatcher8callbackIjEclERKj
_ZN5boost9typeindex7type_idIjEENS0_14stl_type_indexEv
_ZN5boost3log12v2s_mt_posix15type_dispatcher8callbackIjEC2ERKNS2_13callback_baseE
_ZN5boost9typeindex14stl_type_index7type_idIjEES1_v
_ZN5boost9typeindex14stl_type_indexC2ERKSt9type_info
_ZNK5boost3log12v2s_mt_posix15type_dispatcher8callbackIjEntEv
_ZN5boost12sp_adl_block21intrusive_ptr_add_refINS_3log12v2s_mt_posix9attribute4implENS0_19thread_safe_counterEEEvPKNS0_21intrusive_ref_counterIT_T0_EE
_ZN5boost12sp_adl_block19thread_safe_counter9incrementERNS_6detail12atomic_countE
_ZN5boost6detail12atomic_countppEv
_ZN5boost13intrusive_ptrINS_3log12v2s_mt_posix15attribute_value4implEEC2Ev
_ZN5boost13intrusive_ptrINS_3log12v2s_mt_posix15attribute_value4implEE4swapERS5_
_ZN5boost12sp_adl_block21intrusive_ptr_releaseINS_3log12v2s_mt_posix9attribute4implENS0_19thread_safe_counterEEEvPKNS0_21intrusive_ref_counterIT_T0_EE
_ZN5boost12sp_adl_block19thread_safe_counter9decrementERNS_6detail12atomic_countE
_ZN5boost6detail12atomic_countmmEv
_ZN5boost13intrusive_ptrINS_3log12v2s_mt_posix9attribute4implEEC2Ev
_ZN5boost13intrusive_ptrINS_3log12v2s_mt_posix9attribute4implEE4swapERS5_
_ZN5boost3log12v2s_mt_posix9attributeD2Ev
llvm.memset.p0i8.i64
_ZN5boost3log12v2s_mt_posix10attributes11basic_clockINS2_17local_time_traitsEE4implC2Ev
_ZN5boost3log12v2s_mt_posix10attributes11basic_clockINS2_17local_time_traitsEE4implD2Ev
_ZN5boost3log12v2s_mt_posix10attributes11basic_clockINS2_17local_time_traitsEE4implD0Ev
_ZN5boost3log12v2s_mt_posix10attributes11basic_clockINS2_17local_time_traitsEE4impl9get_valueEv
_ZN5boost3log12v2s_mt_posix10attributes17local_time_traits9get_clockEv
_ZN5boost3log12v2s_mt_posix10attributes20attribute_value_implINS_10posix_time5ptimeEEC2EOS5_
_ZN5boost9date_time14microsec_clockINS_10posix_time5ptimeEE10local_timeEv
_ZN5boost9date_time14microsec_clockINS_10posix_time5ptimeEE11create_timeEPFP2tmPKlS6_E
_ZN5boost9date_time6c_time9localtimeEPKlP2tm
gettimeofday
_ZN5boost9gregorian9greg_yearC2Et
_ZN5boost9gregorian10greg_monthC2Et
_ZN5boost9gregorian8greg_dayC2Et
_ZN5boost9gregorian4dateC2ENS0_9greg_yearENS0_10greg_monthENS0_8greg_dayE
_ZN5boost9date_time22time_resolution_traitsINS0_37time_resolution_traits_adapted64_implELNS0_16time_resolutionsE5ELl1000000ELt6ElE10res_adjustEv
_ZN5boost10posix_time13time_durationC2Ellll
_ZN5boost10posix_time13time_durationC2ERKS1_
_ZN5boost10posix_time5ptimeC2ENS_9gregorian4dateENS0_13time_durationE
_ZN5boost2CV17constrained_valueINS0_23simple_exception_policyItLt1400ELt9999ENS_9gregorian8bad_yearEEEEC2Et
_ZN5boost2CV17constrained_valueINS0_23simple_exception_policyItLt1400ELt9999ENS_9gregorian8bad_yearEEEE3minEv
_ZN5boost2CV17constrained_valueINS0_23simple_exception_policyItLt1400ELt9999ENS_9gregorian8bad_yearEEEE6assignEt
_ZN5boost2CV23simple_exception_policyItLt1400ELt9999ENS_9gregorian8bad_yearEE3minEv
_ZN5boost2CV23simple_exception_policyItLt1400ELt9999ENS_9gregorian8bad_yearEE8on_errorEttNS0_14violation_enumE
_ZN5boost2CV17constrained_valueINS0_23simple_exception_policyItLt1400ELt9999ENS_9gregorian8bad_yearEEEE3maxEv
_ZN5boost15throw_exceptionINS_9gregorian8bad_yearEEEvRKT_
_ZN5boost9gregorian8bad_yearC2Ev
_ZN5boost9gregorian8bad_yearD2Ev
_ZN5boost36throw_exception_assert_compatibilityERKSt9exception
_ZN5boost16exception_detail11enable_bothINS_9gregorian8bad_yearEEENS_10wrapexceptINS0_26remove_error_info_injectorIT_E4typeEEERKS6_
_ZN5boost10wrapexceptINS_9gregorian8bad_yearEED1Ev
_ZN5boost17enable_error_infoINS_9gregorian8bad_yearEEENS_16exception_detail29enable_error_info_return_typeIT_E4typeERKS5_
_ZN5boost10wrapexceptINS_9gregorian8bad_yearEEC1ERKNS_16exception_detail19error_info_injectorIS2_EE
_ZN5boost16exception_detail19error_info_injectorINS_9gregorian8bad_yearEED2Ev
_ZN5boost16exception_detail19error_info_injectorINS_9gregorian8bad_yearEEC2ERKS3_
_ZN5boost9gregorian8bad_yearC2ERKS1_
_ZN5boost9exceptionC2Ev
_ZN5boost16exception_detail19error_info_injectorINS_9gregorian8bad_yearEED0Ev
_ZNKSt11logic_error4whatEv
_ZThn16_N5boost16exception_detail19error_info_injectorINS_9gregorian8bad_yearEED1Ev
_ZThn16_N5boost16exception_detail19error_info_injectorINS_9gregorian8bad_yearEED0Ev
_ZNSt12out_of_rangeC2ERKS_
_ZN5boost9gregorian8bad_yearD0Ev
_ZNSt11logic_errorC2ERKS_
_ZN5boost16exception_detail12refcount_ptrINS0_20error_info_containerEEC2Ev
_ZNSt12out_of_rangeD2Ev
_ZN5boost16exception_detail10clone_baseC2Ev
_ZN5boost16exception_detail10clone_implINS0_19error_info_injectorINS_9gregorian8bad_yearEEEEC2ERKS5_
_ZN5boost16exception_detail10clone_implINS0_19error_info_injectorINS_9gregorian8bad_yearEEEED1Ev
_ZN5boost16exception_detail10clone_implINS0_19error_info_injectorINS_9gregorian8bad_yearEEEED0Ev
_ZNK5boost16exception_detail10clone_implINS0_19error_info_injectorINS_9gregorian8bad_yearEEEE5cloneEv
_ZNK5boost16exception_detail10clone_implINS0_19error_info_injectorINS_9gregorian8bad_yearEEEE7rethrowEv
_ZTv0_n24_NK5boost16exception_detail10clone_implINS0_19error_info_injectorINS_9gregorian8bad_yearEEEE5cloneEv
_ZTv0_n32_NK5boost16exception_detail10clone_implINS0_19error_info_injectorINS_9gregorian8bad_yearEEEE7rethrowEv
_ZTv0_n40_N5boost16exception_detail10clone_implINS0_19error_info_injectorINS_9gregorian8bad_yearEEEED1Ev
_ZTv0_n40_N5boost16exception_detail10clone_implINS0_19error_info_injectorINS_9gregorian8bad_yearEEEED0Ev
_ZN5boost10wrapexceptINS_9gregorian8bad_yearEED0Ev
_ZThn16_N5boost10wrapexceptINS_9gregorian8bad_yearEED1Ev
_ZThn16_N5boost10wrapexceptINS_9gregorian8bad_yearEED0Ev
_ZTv0_n40_N5boost10wrapexceptINS_9gregorian8bad_yearEED1Ev
_ZTv0_n40_N5boost10wrapexceptINS_9gregorian8bad_yearEED0Ev
_ZN5boost16exception_detail10clone_baseD2Ev
_ZN5boost16exception_detail10clone_baseD0Ev
_ZN5boost16exception_detail19error_info_injectorINS_9gregorian8bad_yearEEC2ERKS4_
_ZN5boost16exception_detail20copy_boost_exceptionEPNS_9exceptionEPKS1_
_ZThn16_N5boost16exception_detail10clone_implINS0_19error_info_injectorINS_9gregorian8bad_yearEEEED1Ev
_ZThn16_N5boost16exception_detail10clone_implINS0_19error_info_injectorINS_9gregorian8bad_yearEEEED0Ev
_ZN5boost9exceptionC2ERKS0_
_ZN5boost16exception_detail12refcount_ptrINS0_20error_info_containerEEC2ERKS3_
_ZN5boost16exception_detail12refcount_ptrINS0_20error_info_containerEE7add_refEv
_ZNK5boost16exception_detail12refcount_ptrINS0_20error_info_containerEE3getEv
_ZN5boost16exception_detail12refcount_ptrINS0_20error_info_containerEEaSERKS3_
_ZN5boost16exception_detail12refcount_ptrINS0_20error_info_containerEED2Ev
_ZN5boost16exception_detail12refcount_ptrINS0_20error_info_containerEE5adoptEPS2_
_ZN5boost16exception_detail12refcount_ptrINS0_20error_info_containerEE7releaseEv
_ZN5boost9exceptionD2Ev
_ZN5boost16exception_detail10clone_implINS0_19error_info_injectorINS_9gregorian8bad_yearEEEED2Ev
_ZN5boost16exception_detail10clone_implINS0_19error_info_injectorINS_9gregorian8bad_yearEEEEC1ERKS6_NS6_9clone_tagE
_ZN5boost16exception_detail10clone_implINS0_19error_info_injectorINS_9gregorian8bad_yearEEEEC1ERKS6_
_ZN5boost16exception_detail10clone_baseC2ERKS1_
_ZN5boost10wrapexceptINS_9gregorian8bad_yearEED2Ev
_ZNSt12out_of_rangeC2ERKNSt7__cxx1112basic_stringIcSt11char_traitsIcESaIcEEE
_ZN5boost2CV23simple_exception_policyItLt1400ELt9999ENS_9gregorian8bad_yearEE3maxEv
_ZN5boost2CV17constrained_valueINS0_23simple_exception_policyItLt1ELt12ENS_9gregorian9bad_monthEEEEC2Et
_ZN5boost2CV17constrained_valueINS0_23simple_exception_policyItLt1ELt12ENS_9gregorian9bad_monthEEEE3minEv
_ZN5boost2CV17constrained_valueINS0_23simple_exception_policyItLt1ELt12ENS_9gregorian9bad_monthEEEE6assignEt
_ZN5boost2CV23simple_exception_policyItLt1ELt12ENS_9gregorian9bad_monthEE3minEv
_ZN5boost2CV23simple_exception_policyItLt1ELt12ENS_9gregorian9bad_monthEE8on_errorEttNS0_14violation_enumE
_ZN5boost2CV17constrained_valueINS0_23simple_exception_policyItLt1ELt12ENS_9gregorian9bad_monthEEEE3maxEv
_ZN5boost15throw_exceptionINS_9gregorian9bad_monthEEEvRKT_
_ZN5boost9gregorian9bad_monthC2Ev
_ZN5boost9gregorian9bad_monthD2Ev
_ZN5boost16exception_detail11enable_bothINS_9gregorian9bad_monthEEENS_10wrapexceptINS0_26remove_error_info_injectorIT_E4typeEEERKS6_
_ZN5boost10wrapexceptINS_9gregorian9bad_monthEED1Ev
_ZN5boost17enable_error_infoINS_9gregorian9bad_monthEEENS_16exception_detail29enable_error_info_return_typeIT_E4typeERKS5_
_ZN5boost10wrapexceptINS_9gregorian9bad_monthEEC1ERKNS_16exception_detail19error_info_injectorIS2_EE
_ZN5boost16exception_detail19error_info_injectorINS_9gregorian9bad_monthEED2Ev
_ZN5boost16exception_detail19error_info_injectorINS_9gregorian9bad_monthEEC2ERKS3_
_ZN5boost9gregorian9bad_monthC2ERKS1_
_ZN5boost16exception_detail19error_info_injectorINS_9gregorian9bad_monthEED0Ev
_ZThn16_N5boost16exception_detail19error_info_injectorINS_9gregorian9bad_monthEED1Ev
_ZThn16_N5boost16exception_detail19error_info_injectorINS_9gregorian9bad_monthEED0Ev
_ZN5boost9gregorian9bad_monthD0Ev
_ZN5boost16exception_detail10clone_implINS0_19error_info_injectorINS_9gregorian9bad_monthEEEEC2ERKS5_
_ZN5boost16exception_detail10clone_implINS0_19error_info_injectorINS_9gregorian9bad_monthEEEED1Ev
_ZN5boost16exception_detail10clone_implINS0_19error_info_injectorINS_9gregorian9bad_monthEEEED0Ev
_ZNK5boost16exception_detail10clone_implINS0_19error_info_injectorINS_9gregorian9bad_monthEEEE5cloneEv
_ZNK5boost16exception_detail10clone_implINS0_19error_info_injectorINS_9gregorian9bad_monthEEEE7rethrowEv
_ZTv0_n24_NK5boost16exception_detail10clone_implINS0_19error_info_injectorINS_9gregorian9bad_monthEEEE5cloneEv
_ZTv0_n32_NK5boost16exception_detail10clone_implINS0_19error_info_injectorINS_9gregorian9bad_monthEEEE7rethrowEv
_ZTv0_n40_N5boost16exception_detail10clone_implINS0_19error_info_injectorINS_9gregorian9bad_monthEEEED1Ev
_ZTv0_n40_N5boost16exception_detail10clone_implINS0_19error_info_injectorINS_9gregorian9bad_monthEEEED0Ev
_ZN5boost10wrapexceptINS_9gregorian9bad_monthEED0Ev
_ZThn16_N5boost10wrapexceptINS_9gregorian9bad_monthEED1Ev
_ZThn16_N5boost10wrapexceptINS_9gregorian9bad_monthEED0Ev
_ZTv0_n40_N5boost10wrapexceptINS_9gregorian9bad_monthEED1Ev
_ZTv0_n40_N5boost10wrapexceptINS_9gregorian9bad_monthEED0Ev
_ZN5boost16exception_detail19error_info_injectorINS_9gregorian9bad_monthEEC2ERKS4_
_ZThn16_N5boost16exception_detail10clone_implINS0_19error_info_injectorINS_9gregorian9bad_monthEEEED1Ev
_ZThn16_N5boost16exception_detail10clone_implINS0_19error_info_injectorINS_9gregorian9bad_monthEEEED0Ev
_ZN5boost16exception_detail10clone_implINS0_19error_info_injectorINS_9gregorian9bad_monthEEEED2Ev
_ZN5boost16exception_detail10clone_implINS0_19error_info_injectorINS_9gregorian9bad_monthEEEEC1ERKS6_NS6_9clone_tagE
_ZN5boost16exception_detail10clone_implINS0_19error_info_injectorINS_9gregorian9bad_monthEEEEC1ERKS6_
_ZN5boost10wrapexceptINS_9gregorian9bad_monthEED2Ev
_ZN5boost2CV23simple_exception_policyItLt1ELt12ENS_9gregorian9bad_monthEE3maxEv
_ZN5boost2CV17constrained_valueINS0_23simple_exception_policyItLt1ELt31ENS_9gregorian16bad_day_of_monthEEEEC2Et
_ZN5boost2CV17constrained_valueINS0_23simple_exception_policyItLt1ELt31ENS_9gregorian16bad_day_of_monthEEEE3minEv
_ZN5boost2CV17constrained_valueINS0_23simple_exception_policyItLt1ELt31ENS_9gregorian16bad_day_of_monthEEEE6assignEt
_ZN5boost2CV23simple_exception_policyItLt1ELt31ENS_9gregorian16bad_day_of_monthEE3minEv
_ZN5boost2CV23simple_exception_policyItLt1ELt31ENS_9gregorian16bad_day_of_monthEE8on_errorEttNS0_14violation_enumE
_ZN5boost2CV17constrained_valueINS0_23simple_exception_policyItLt1ELt31ENS_9gregorian16bad_day_of_monthEEEE3maxEv
_ZN5boost15throw_exceptionINS_9gregorian16bad_day_of_monthEEEvRKT_
_ZN5boost9gregorian16bad_day_of_monthC2Ev
_ZN5boost9gregorian16bad_day_of_monthD2Ev
_ZN5boost16exception_detail11enable_bothINS_9gregorian16bad_day_of_monthEEENS_10wrapexceptINS0_26remove_error_info_injectorIT_E4typeEEERKS6_
_ZN5boost10wrapexceptINS_9gregorian16bad_day_of_monthEED1Ev
_ZN5boost17enable_error_infoINS_9gregorian16bad_day_of_monthEEENS_16exception_detail29enable_error_info_return_typeIT_E4typeERKS5_
_ZN5boost10wrapexceptINS_9gregorian16bad_day_of_monthEEC1ERKNS_16exception_detail19error_info_injectorIS2_EE
_ZN5boost16exception_detail19error_info_injectorINS_9gregorian16bad_day_of_monthEED2Ev
_ZN5boost16exception_detail19error_info_injectorINS_9gregorian16bad_day_of_monthEEC2ERKS3_
_ZN5boost9gregorian16bad_day_of_monthC2ERKS1_
_ZN5boost16exception_detail19error_info_injectorINS_9gregorian16bad_day_of_monthEED0Ev
_ZThn16_N5boost16exception_detail19error_info_injectorINS_9gregorian16bad_day_of_monthEED1Ev
_ZThn16_N5boost16exception_detail19error_info_injectorINS_9gregorian16bad_day_of_monthEED0Ev
_ZN5boost9gregorian16bad_day_of_monthD0Ev
_ZN5boost16exception_detail10clone_implINS0_19error_info_injectorINS_9gregorian16bad_day_of_monthEEEEC2ERKS5_
_ZN5boost16exception_detail10clone_implINS0_19error_info_injectorINS_9gregorian16bad_day_of_monthEEEED1Ev
_ZN5boost16exception_detail10clone_implINS0_19error_info_injectorINS_9gregorian16bad_day_of_monthEEEED0Ev
_ZNK5boost16exception_detail10clone_implINS0_19error_info_injectorINS_9gregorian16bad_day_of_monthEEEE5cloneEv
_ZNK5boost16exception_detail10clone_implINS0_19error_info_injectorINS_9gregorian16bad_day_of_monthEEEE7rethrowEv
_ZTv0_n24_NK5boost16exception_detail10clone_implINS0_19error_info_injectorINS_9gregorian16bad_day_of_monthEEEE5cloneEv
_ZTv0_n32_NK5boost16exception_detail10clone_implINS0_19error_info_injectorINS_9gregorian16bad_day_of_monthEEEE7rethrowEv
_ZTv0_n40_N5boost16exception_detail10clone_implINS0_19error_info_injectorINS_9gregorian16bad_day_of_monthEEEED1Ev
_ZTv0_n40_N5boost16exception_detail10clone_implINS0_19error_info_injectorINS_9gregorian16bad_day_of_monthEEEED0Ev
_ZN5boost10wrapexceptINS_9gregorian16bad_day_of_monthEED0Ev
_ZThn16_N5boost10wrapexceptINS_9gregorian16bad_day_of_monthEED1Ev
_ZThn16_N5boost10wrapexceptINS_9gregorian16bad_day_of_monthEED0Ev
_ZTv0_n40_N5boost10wrapexceptINS_9gregorian16bad_day_of_monthEED1Ev
_ZTv0_n40_N5boost10wrapexceptINS_9gregorian16bad_day_of_monthEED0Ev
_ZN5boost16exception_detail19error_info_injectorINS_9gregorian16bad_day_of_monthEEC2ERKS4_
_ZThn16_N5boost16exception_detail10clone_implINS0_19error_info_injectorINS_9gregorian16bad_day_of_monthEEEED1Ev
_ZThn16_N5boost16exception_detail10clone_implINS0_19error_info_injectorINS_9gregorian16bad_day_of_monthEEEED0Ev
_ZN5boost16exception_detail10clone_implINS0_19error_info_injectorINS_9gregorian16bad_day_of_monthEEEED2Ev
_ZN5boost16exception_detail10clone_implINS0_19error_info_injectorINS_9gregorian16bad_day_of_monthEEEEC1ERKS6_NS6_9clone_tagE
_ZN5boost16exception_detail10clone_implINS0_19error_info_injectorINS_9gregorian16bad_day_of_monthEEEEC1ERKS6_
_ZN5boost10wrapexceptINS_9gregorian16bad_day_of_monthEED2Ev
_ZN5boost2CV23simple_exception_policyItLt1ELt31ENS_9gregorian16bad_day_of_monthEE3maxEv
_ZN5boost9date_time4dateINS_9gregorian4dateENS2_18gregorian_calendarENS2_13date_durationEEC2ENS2_9greg_yearENS2_10greg_monthENS2_8greg_dayE
_ZN5boost9date_time23gregorian_calendar_baseINS0_19year_month_day_baseINS_9gregorian9greg_yearENS3_10greg_monthENS3_8greg_dayEEEjE16end_of_month_dayES4_S5_
_ZNK5boost9gregorian8greg_daycvtEv
_ZN5boost9gregorian16bad_day_of_monthC2ERKNSt7__cxx1112basic_stringIcSt11char_traitsIcESaIcEEE
_ZN5boost9date_time23gregorian_calendar_baseINS0_19year_month_day_baseINS_9gregorian9greg_yearENS3_10greg_monthENS3_8greg_dayEEEjE10day_numberERKS7_
_ZN5boost9date_time19year_month_day_baseINS_9gregorian9greg_yearENS2_10greg_monthENS2_8greg_dayEEC2ES3_S4_S5_
_ZNK5boost9gregorian10greg_monthcvtEv
_ZNK5boost9gregorian9greg_yearcvtEv
_ZN5boost9date_time23gregorian_calendar_baseINS0_19year_month_day_baseINS_9gregorian9greg_yearENS3_10greg_monthENS3_8greg_dayEEEjE12is_leap_yearES4_
_ZN5boost9date_time13time_durationINS_10posix_time13time_durationENS0_22time_resolution_traitsINS0_37time_resolution_traits_adapted64_implELNS0_16time_resolutionsE5ELl1000000ELt6ElEEEC2Ellll
_ZN5boost9date_time22time_resolution_traitsINS0_37time_resolution_traits_adapted64_implELNS0_16time_resolutionsE5ELl1000000ELt6ElE13to_tick_countEllll
_ZN5boost9date_time11int_adapterIlEC2El
_ZN5boost9date_time14absolute_valueIlEET_S2_
_ZN5boost9date_time13time_durationINS_10posix_time13time_durationENS0_22time_resolution_traitsINS0_37time_resolution_traits_adapted64_implELNS0_16time_resolutionsE5ELl1000000ELt6ElEEEC2ERKS8_
_ZN5boost9date_time9base_timeINS_10posix_time5ptimeENS0_19counted_time_systemINS0_16counted_time_repINS2_33millisec_posix_time_system_configEEEEEEC2ERKNS_9gregorian4dateERKNS2_13time_durationENS0_9dst_flagsE
_ZN5boost9date_time19counted_time_systemINS0_16counted_time_repINS_10posix_time33millisec_posix_time_system_configEEEE12get_time_repERKNS_9gregorian4dateERKNS3_13time_durationENS0_9dst_flagsE
_ZN5boost9date_time19counted_time_systemINS0_16counted_time_repINS_10posix_time33millisec_posix_time_system_configEEEE10unused_varINS0_9dst_flagsEEEvRKT_
_ZN5boost9date_time16counted_time_repINS_10posix_time33millisec_posix_time_system_configEEC2ERKNS_9gregorian4dateERKNS2_13time_durationE
_ZNK5boost9date_time4dateINS_9gregorian4dateENS2_18gregorian_calendarENS2_13date_durationEE11is_infinityEv
_ZNK5boost9date_time4dateINS_9gregorian4dateENS2_18gregorian_calendarENS2_13date_durationEE13is_not_a_dateEv
_ZNK5boost9date_time13time_durationINS_10posix_time13time_durationENS0_22time_resolution_traitsINS0_37time_resolution_traits_adapted64_implELNS0_16time_resolutionsE5ELl1000000ELt6ElEEE10is_specialEv
_ZNK5boost9date_time13time_durationINS_10posix_time13time_durationENS0_22time_resolution_traitsINS0_37time_resolution_traits_adapted64_implELNS0_16time_resolutionsE5ELl1000000ELt6ElEEE7get_repEv
_ZNK5boost9date_time11int_adapterIlEplIjEES2_RKNS1_IT_EE
_ZNK5boost9date_time4dateINS_9gregorian4dateENS2_18gregorian_calendarENS2_13date_durationEE9day_countEv
_ZNK5boost9gregorian4date10day_numberEv
_ZN5boost9date_time16counted_time_repINS_10posix_time33millisec_posix_time_system_configEE16frac_sec_per_dayEv
_ZNK5boost9date_time13time_durationINS_10posix_time13time_durationENS0_22time_resolution_traitsINS0_37time_resolution_traits_adapted64_implELNS0_16time_resolutionsE5ELl1000000ELt6ElEEE5ticksEv
_ZN5boost9date_time11int_adapterIjE6is_infEj
_ZN5boost9date_time11int_adapterIjE12neg_infinityEv
_ZNK5boost9date_time11int_adapterIjE9as_numberEv
_ZN5boost9date_time11int_adapterIjE12pos_infinityEv
_ZNSt14numeric_limitsIjE3minEv
_ZN5boost9date_time11int_adapterIjEC2Ej
_ZNSt14numeric_limitsIjE3maxEv
_ZN5boost9date_time11int_adapterIjE15is_not_a_numberEj
_ZN5boost9date_time11int_adapterIjE12not_a_numberEv
_ZN5boost9date_time22time_resolution_traitsINS0_37time_resolution_traits_adapted64_implELNS0_16time_resolutionsE5ELl1000000ELt6ElE10is_adaptedEv
_ZNK5boost9date_time11int_adapterIlE10is_specialEv
_ZN5boost9date_time37time_resolution_traits_adapted64_impl10is_adaptedEv
_ZNK5boost9date_time11int_adapterIlE11is_infinityEv
_ZNK5boost9date_time11int_adapterIlE6is_nanEv
_ZN5boost9date_time11int_adapterIlE12neg_infinityEv
_ZNK5boost9date_time11int_adapterIlE9as_numberEv
_ZN5boost9date_time11int_adapterIlE12pos_infinityEv
_ZNSt14numeric_limitsIlE3minEv
_ZNSt14numeric_limitsIlE3maxEv
_ZN5boost9date_time11int_adapterIlE12not_a_numberEv
_ZNK5boost9date_time11int_adapterIjE10is_specialEv
_ZNK5boost9date_time11int_adapterIjE6is_nanEv
_ZN5boost9date_time11int_adapterIlE10is_pos_infEl
_ZN5boost9date_time11int_adapterIjE10is_neg_infEj
_ZN5boost9date_time11int_adapterIlE10is_neg_infEl
_ZN5boost9date_time11int_adapterIjE10is_pos_infEj
_ZNK5boost9date_time11int_adapterIjE11is_infinityEv
_ZN5boost9date_time22time_resolution_traitsINS0_37time_resolution_traits_adapted64_implELNS0_16time_resolutionsE5ELl1000000ELt6ElE9as_numberENS0_11int_adapterIlEE
_ZN5boost9date_time37time_resolution_traits_adapted64_impl9as_numberENS0_11int_adapterIlEE
localtime_r
_ZN5boost15throw_exceptionISt13runtime_errorEEvRKT_
_ZNSt13runtime_errorC1EPKc
_ZNSt13runtime_errorD1Ev
_ZN5boost16exception_detail11enable_bothISt13runtime_errorEENS_10wrapexceptINS0_26remove_error_info_injectorIT_E4typeEEERKS5_
_ZN5boost10wrapexceptISt13runtime_errorED1Ev
_ZN5boost17enable_error_infoISt13runtime_errorEENS_16exception_detail29enable_error_info_return_typeIT_E4typeERKS4_
_ZN5boost10wrapexceptISt13runtime_errorEC1ERKNS_16exception_detail19error_info_injectorIS1_EE
_ZN5boost16exception_detail19error_info_injectorISt13runtime_errorED2Ev
_ZN5boost16exception_detail19error_info_injectorISt13runtime_errorEC2ERKS2_
_ZNSt13runtime_errorC2ERKS_
_ZNSt13runtime_errorD2Ev
_ZN5boost16exception_detail19error_info_injectorISt13runtime_errorED0Ev
_ZThn16_N5boost16exception_detail19error_info_injectorISt13runtime_errorED1Ev
_ZThn16_N5boost16exception_detail19error_info_injectorISt13runtime_errorED0Ev
_ZN5boost16exception_detail10clone_implINS0_19error_info_injectorISt13runtime_errorEEEC2ERKS4_
_ZN5boost16exception_detail10clone_implINS0_19error_info_injectorISt13runtime_errorEEED1Ev
_ZN5boost16exception_detail10clone_implINS0_19error_info_injectorISt13runtime_errorEEED0Ev
_ZNK5boost16exception_detail10clone_implINS0_19error_info_injectorISt13runtime_errorEEE5cloneEv
_ZNK5boost16exception_detail10clone_implINS0_19error_info_injectorISt13runtime_errorEEE7rethrowEv
_ZTv0_n24_NK5boost16exception_detail10clone_implINS0_19error_info_injectorISt13runtime_errorEEE5cloneEv
_ZTv0_n32_NK5boost16exception_detail10clone_implINS0_19error_info_injectorISt13runtime_errorEEE7rethrowEv
_ZTv0_n40_N5boost16exception_detail10clone_implINS0_19error_info_injectorISt13runtime_errorEEED1Ev
_ZTv0_n40_N5boost16exception_detail10clone_implINS0_19error_info_injectorISt13runtime_errorEEED0Ev
_ZN5boost10wrapexceptISt13runtime_errorED0Ev
_ZThn16_N5boost10wrapexceptISt13runtime_errorED1Ev
_ZThn16_N5boost10wrapexceptISt13runtime_errorED0Ev
_ZTv0_n40_N5boost10wrapexceptISt13runtime_errorED1Ev
_ZTv0_n40_N5boost10wrapexceptISt13runtime_errorED0Ev
_ZN5boost16exception_detail19error_info_injectorISt13runtime_errorEC2ERKS3_
_ZThn16_N5boost16exception_detail10clone_implINS0_19error_info_injectorISt13runtime_errorEEED1Ev
_ZThn16_N5boost16exception_detail10clone_implINS0_19error_info_injectorISt13runtime_errorEEED0Ev
_ZN5boost16exception_detail10clone_implINS0_19error_info_injectorISt13runtime_errorEEED2Ev
_ZN5boost16exception_detail10clone_implINS0_19error_info_injectorISt13runtime_errorEEEC1ERKS5_NS5_9clone_tagE
_ZN5boost16exception_detail10clone_implINS0_19error_info_injectorISt13runtime_errorEEEC1ERKS5_
_ZN5boost10wrapexceptISt13runtime_errorED2Ev
_ZN5boost4moveIRNS_10posix_time5ptimeEEEONS_11move_detail16remove_referenceIT_E4typeEOS6_
_ZN5boost3log12v2s_mt_posix10attributes20attribute_value_implINS_10posix_time5ptimeEED2Ev
_ZN5boost3log12v2s_mt_posix10attributes20attribute_value_implINS_10posix_time5ptimeEED0Ev
_ZN5boost3log12v2s_mt_posix10attributes20attribute_value_implINS_10posix_time5ptimeEE8dispatchERNS1_15type_dispatcherE
_ZNK5boost3log12v2s_mt_posix10attributes20attribute_value_implINS_10posix_time5ptimeEE8get_typeEv
_ZN5boost3log12v2s_mt_posix15type_dispatcher12get_callbackINS_10posix_time5ptimeEEENS2_8callbackIT_EEv
_ZNK5boost3log12v2s_mt_posix15type_dispatcher8callbackINS_10posix_time5ptimeEEclERKS5_
_ZN5boost9typeindex7type_idINS_10posix_time5ptimeEEENS0_14stl_type_indexEv
_ZN5boost3log12v2s_mt_posix15type_dispatcher8callbackINS_10posix_time5ptimeEEC2ERKNS2_13callback_baseE
_ZN5boost9typeindex14stl_type_index7type_idINS_10posix_time5ptimeEEES1_v
_ZNK5boost3log12v2s_mt_posix15type_dispatcher8callbackINS_10posix_time5ptimeEEntEv
_ZN5boost3log12v2s_mt_posix3aux12this_process6get_idEv
_ZN5boost3log12v2s_mt_posix10attributes8constantINS1_3aux2idINS4_7processEEEEC2EOS7_
_ZN5boost4moveIRNS_3log12v2s_mt_posix3aux2idINS3_7processEEEEEONS_11move_detail16remove_referenceIT_E4typeEOSA_
_ZN5boost3log12v2s_mt_posix10attributes8constantINS1_3aux2idINS4_7processEEEE4implC2EOS7_
_ZN5boost3log12v2s_mt_posix10attributes20attribute_value_implINS1_3aux2idINS4_7processEEEEC2EOS7_
_ZN5boost3log12v2s_mt_posix10attributes8constantINS1_3aux2idINS4_7processEEEE4implD2Ev
_ZN5boost3log12v2s_mt_posix10attributes8constantINS1_3aux2idINS4_7processEEEE4implD0Ev
_ZN5boost3log12v2s_mt_posix10attributes20attribute_value_implINS1_3aux2idINS4_7processEEEE8dispatchERNS1_15type_dispatcherE
_ZNK5boost3log12v2s_mt_posix10attributes20attribute_value_implINS1_3aux2idINS4_7processEEEE8get_typeEv
_ZN5boost3log12v2s_mt_posix10attributes20attribute_value_implINS1_3aux2idINS4_7processEEEED2Ev
_ZN5boost3log12v2s_mt_posix10attributes20attribute_value_implINS1_3aux2idINS4_7processEEEED0Ev
_ZN5boost3log12v2s_mt_posix15type_dispatcher12get_callbackINS1_3aux2idINS4_7processEEEEENS2_8callbackIT_EEv
_ZNK5boost3log12v2s_mt_posix15type_dispatcher8callbackINS1_3aux2idINS4_7processEEEEclERKS7_
_ZN5boost9typeindex7type_idINS_3log12v2s_mt_posix3aux2idINS4_7processEEEEENS0_14stl_type_indexEv
_ZN5boost3log12v2s_mt_posix15type_dispatcher8callbackINS1_3aux2idINS4_7processEEEEC2ERKNS2_13callback_baseE
_ZN5boost9typeindex14stl_type_index7type_idINS_3log12v2s_mt_posix3aux2idINS5_7processEEEEES1_v
_ZNK5boost3log12v2s_mt_posix15type_dispatcher8callbackINS1_3aux2idINS4_7processEEEEntEv
_ZN5boost3log12v2s_mt_posix10attributes8constantINS1_3aux2idINS4_7processEEEED2Ev
_ZN5boost3log12v2s_mt_posix10attributes17current_thread_id4implC2Ev
_ZN5boost3log12v2s_mt_posix10attributes17current_thread_id4implD2Ev
_ZN5boost3log12v2s_mt_posix10attributes17current_thread_id4implD0Ev
_ZN5boost3log12v2s_mt_posix10attributes17current_thread_id4impl8dispatchERNS1_15type_dispatcherE
_ZN5boost3log12v2s_mt_posix10attributes17current_thread_id4impl18detach_from_threadEv
_ZNK5boost3log12v2s_mt_posix10attributes17current_thread_id4impl8get_typeEv
_ZN5boost3log12v2s_mt_posix15type_dispatcher12get_callbackINS1_3aux2idINS4_6threadEEEEENS2_8callbackIT_EEv
_ZNK5boost3log12v2s_mt_posix15type_dispatcher8callbackINS1_3aux2idINS4_6threadEEEEclERKS7_
_ZN5boost3log12v2s_mt_posix3aux11this_thread6get_idEv
_ZN5boost9typeindex7type_idINS_3log12v2s_mt_posix3aux2idINS4_6threadEEEEENS0_14stl_type_indexEv
_ZN5boost3log12v2s_mt_posix15type_dispatcher8callbackINS1_3aux2idINS4_6threadEEEEC2ERKNS2_13callback_baseE
_ZN5boost9typeindex14stl_type_index7type_idINS_3log12v2s_mt_posix3aux2idINS5_6threadEEEEES1_v
_ZNK5boost3log12v2s_mt_posix15type_dispatcher8callbackINS1_3aux2idINS4_6threadEEEEntEv
_ZN5boost3log12v2s_mt_posix10attributes20attribute_value_implINS1_3aux2idINS4_6threadEEEEC2ERKS7_
_ZN5boost3log12v2s_mt_posix10attributes20attribute_value_implINS1_3aux2idINS4_6threadEEEED2Ev
_ZN5boost3log12v2s_mt_posix10attributes20attribute_value_implINS1_3aux2idINS4_6threadEEEED0Ev
_ZN5boost3log12v2s_mt_posix10attributes20attribute_value_implINS1_3aux2idINS4_6threadEEEE8dispatchERNS1_15type_dispatcherE
_ZNK5boost3log12v2s_mt_posix10attributes20attribute_value_implINS1_3aux2idINS4_6threadEEEE8get_typeEv
_ZN5boost9parameter3aux25tagged_argument_list_of_1INS1_15tagged_argumentINS_3log12v2s_mt_posix8keywords3tag6formatEA38_KcEEEC2ERSA_
_ZN5boost9parameter3aux15tagged_argumentINS_3log12v2s_mt_posix8keywords3tag6formatEA38_KcEC2ERS9_
_ZN5boost6detail12shared_countD2Ev
_ZN5boost6detail15sp_counted_base7releaseEv
_ZN5boost6detail16atomic_decrementEPU7_Atomici
_ZN5boost6detail15sp_counted_base12weak_releaseEv
_ZN5boost3log12v2s_mt_posix3aux14light_functionIFbRKNS1_19attribute_value_setEEED2Ev
_ZN5boost3log12v2s_mt_posix3aux14light_functionIFbRKNS1_19attribute_value_setEEE5clearEv
_ZN5boost9parameter3aux25tagged_argument_list_of_1INS1_15tagged_argumentINS_3log12v2s_mt_posix8keywords3tag8severityEKNS5_7trivial14severity_levelEEEEC2ERSB_
_ZN5boost9parameter3aux15tagged_argumentINS_3log12v2s_mt_posix8keywords3tag8severityEKNS4_7trivial14severity_levelEEC2ERSA_
_ZN5boost3log12v2s_mt_posix6record5resetEv
_ZN5boost3log12v2s_mt_posix11record_view11public_data7destroyEPKS3_
_ZNSt14_Function_baseD2Ev
_ZNSt10shared_ptrIN8nlohmann6detail22input_adapter_protocolEED2Ev
_ZNSt12__shared_ptrIN8nlohmann6detail22input_adapter_protocolELN9__gnu_cxx12_Lock_policyE2EED2Ev
_ZNSt14__shared_countILN9__gnu_cxx12_Lock_policyE2EED2Ev
_ZNSt16_Sp_counted_baseILN9__gnu_cxx12_Lock_policyE2EE10_M_releaseEv
_ZN9__gnu_cxxL27__exchange_and_add_dispatchEPii
_ZL18__gthread_active_pv
_ZN9__gnu_cxxL18__exchange_and_addEPVii
_ZN9__gnu_cxxL25__exchange_and_add_singleEPii
__pthread_key_create
_ZNK4YAML4Node9IsDefinedEv
_ZNK4YAML4Node5IsMapEv
_ZN13jaegertracing8samplers6Config30defaultSamplingRefreshIntervalEv
_ZN13jaegertracing8samplers6ConfigC2ERKNSt7__cxx1112basic_stringIcSt11char_traitsIcESaIcEEEdS9_iRKNSt6chrono8durationIlSt5ratioILl1ELl1000000000EEEE
_ZN13jaegertracing9reporters6Config26defaultBufferFlushIntervalEv
_ZN13jaegertracing9reporters6ConfigC2EiRKNSt6chrono8durationIlSt5ratioILl1ELl1000000000EEEEbRKNSt7__cxx1112basic_stringIcSt11char_traitsIcESaIcEEE
_ZN13jaegertracing11propagation13HeadersConfigC2Ev
_ZN13jaegertracing7baggage18RestrictionsConfigC2EbRKNSt7__cxx1112basic_stringIcSt11char_traitsIcESaIcEEERKNSt6chrono8durationIlSt5ratioILl1ELl1000000000EEEE
_ZN13jaegertracing6ConfigC2EbRKNS_8samplers6ConfigERKNS_9reporters6ConfigERKNS_11propagation13HeadersConfigERKNS_7baggage18RestrictionsConfigE
_ZN13jaegertracing7baggage18RestrictionsConfigD2Ev
_ZN13jaegertracing11propagation13HeadersConfigD2Ev
_ZN13jaegertracing9reporters6ConfigD2Ev
_ZN13jaegertracing8samplers6ConfigD2Ev
_ZN13jaegertracing5utils4yaml13findOrDefaultIbA9_cbEET_RKN4YAML4NodeERKT0_RKT1_
_ZNK4YAML4NodeixIA8_cEEKS0_RKT_
_ZN13jaegertracing8samplers6Config5parseERKN4YAML4NodeE
_ZNK4YAML4NodeixIA9_cEEKS0_RKT_
_ZN13jaegertracing9reporters6Config5parseERKN4YAML4NodeE
_ZN13jaegertracing11propagation13HeadersConfig5parseERKN4YAML4NodeE
_ZNK4YAML4NodeixIA21_cEEKS0_RKT_
_ZN13jaegertracing7baggage18RestrictionsConfig5parseERKN4YAML4NodeE
_ZNK4YAML6detail4node10is_definedEv
_ZNKSt19__shared_ptr_accessIN4YAML6detail8node_refELN9__gnu_cxx12_Lock_policyE2ELb0ELb0EEptEv
_ZNK4YAML6detail8node_ref10is_definedEv
_ZNKSt19__shared_ptr_accessIN4YAML6detail8node_refELN9__gnu_cxx12_Lock_policyE2ELb0ELb0EE6_M_getEv
_ZNKSt12__shared_ptrIN4YAML6detail8node_refELN9__gnu_cxx12_Lock_policyE2EE3getEv
_ZNKSt19__shared_ptr_accessIN4YAML6detail9node_dataELN9__gnu_cxx12_Lock_policyE2ELb0ELb0EEptEv
_ZNK4YAML6detail9node_data10is_definedEv
_ZNKSt19__shared_ptr_accessIN4YAML6detail9node_dataELN9__gnu_cxx12_Lock_policyE2ELb0ELb0EE6_M_getEv
_ZNKSt12__shared_ptrIN4YAML6detail9node_dataELN9__gnu_cxx12_Lock_policyE2EE3getEv
_ZNK4YAML4Node4TypeEv
_ZN4YAML11InvalidNodeC2Ev
_ZN4YAML11InvalidNodeD1Ev
_ZNK4YAML6detail4node4typeEv
_ZN4YAML4Mark9null_markEv
_ZN4YAML23RepresentationExceptionC2ERKNS_4MarkERKNSt7__cxx1112basic_stringIcSt11char_traitsIcESaIcEEE
_ZN4YAML4MarkC2Eiii
_ZN4YAML9ExceptionC2ERKNS_4MarkERKNSt7__cxx1112basic_stringIcSt11char_traitsIcESaIcEEE
_ZN4YAML9Exception10build_whatERKNS_4MarkERKNSt7__cxx1112basic_stringIcSt11char_traitsIcESaIcEEE
_ZNSt13runtime_errorC2ERKNSt7__cxx1112basic_stringIcSt11char_traitsIcESaIcEEE
_ZNSt7__cxx1112basic_stringIcSt11char_traitsIcESaIcEEC1ERKS4_
_ZNK4YAML4Mark7is_nullEv
_ZStlsIcSt11char_traitsIcESaIcEERSt13basic_ostreamIT_T0_ES7_RKNSt7__cxx1112basic_stringIS4_S5_T1_EE
_ZStlsISt11char_traitsIcEERSt13basic_ostreamIcT_ES5_PKc
_ZNK4YAML6detail8node_ref4typeEv
_ZNK4YAML6detail9node_data4typeEv
_ZNSt6chrono8durationIlSt5ratioILl60ELl1EEEC2IivEERKT_
_ZNSt6chrono8durationIlSt5ratioILl1ELl1000000000EEEC2IlS1_ILl60ELl1EEvEERKNS0_IT_T0_EE
_ZNSt6chrono13duration_castINS_8durationIlSt5ratioILl1ELl1000000000EEEElS2_ILl60ELl1EEEENSt9enable_ifIXsr13__is_durationIT_EE5valueES7_E4typeERKNS1_IT0_T1_EE
_ZNKSt6chrono8durationIlSt5ratioILl1ELl1000000000EEE5countEv
_ZNSt6chrono20__duration_cast_implINS_8durationIlSt5ratioILl1ELl1000000000EEEES2_ILl60000000000ELl1EElLb0ELb1EE6__castIlS2_ILl60ELl1EEEES4_RKNS1_IT_T0_EE
_ZNKSt6chrono8durationIlSt5ratioILl60ELl1EEE5countEv
_ZNSt6chrono8durationIlSt5ratioILl1ELl1000000000EEEC2IlvEERKT_
_ZNSt6chrono8durationIlSt5ratioILl1ELl1EEEC2IivEERKT_
_ZNSt6chrono8durationIlSt5ratioILl1ELl1000000000EEEC2IlS1_ILl1ELl1EEvEERKNS0_IT_T0_EE
_ZNSt6chrono13duration_castINS_8durationIlSt5ratioILl1ELl1000000000EEEElS2_ILl1ELl1EEEENSt9enable_ifIXsr13__is_durationIT_EE5valueES7_E4typeERKNS1_IT0_T1_EE
_ZNSt6chrono20__duration_cast_implINS_8durationIlSt5ratioILl1ELl1000000000EEEES2_ILl1000000000ELl1EElLb0ELb1EE6__castIlS2_ILl1ELl1EEEES4_RKNS1_IT_T0_EE
_ZNKSt6chrono8durationIlSt5ratioILl1ELl1EEE5countEv
_ZN13jaegertracing8samplers6ConfigC2ERKS1_
_ZN13jaegertracing9reporters6ConfigC2ERKS1_
_ZN13jaegertracing11propagation13HeadersConfigC2ERKS1_
_ZN13jaegertracing7baggage18RestrictionsConfigC2ERKS1_
_ZNK4YAML4Node2asIbEET_v
_ZN4YAML5as_ifIbvEC2ERKNS_4NodeE
_ZNK4YAML5as_ifIbvEclEv
_ZNK4YAML4Node4MarkEv
_ZN4YAML18TypedBadConversionIbEC2ERKNS_4MarkE
_ZN4YAML18TypedBadConversionIbED2Ev
_ZN4YAML7convertIbE6decodeERKNS_4NodeERb
_ZNK4YAML6detail4node4markEv
_ZNK4YAML6detail8node_ref4markEv
_ZNK4YAML6detail9node_data4markEv
_ZN4YAML13BadConversionC2ERKNS_4MarkE
_ZN4YAML18TypedBadConversionIbED0Ev
_ZN4YAML13BadConversionD2Ev
_ZNK4YAML4Node16EnsureNodeExistsEv
_ZNK4YAML6detail4node3getINSt7__cxx1112basic_stringIcSt11char_traitsIcESaIcEEEEEPS1_RKT_St10shared_ptrINS0_13memory_holderEE
_ZN4YAML6detail8to_valueIA8_cEENS0_10to_value_tIT_E11return_typeERKS4_
_ZNSt10shared_ptrIN4YAML6detail13memory_holderEEC2ERKS3_
_ZNSt10shared_ptrIN4YAML6detail13memory_holderEED2Ev
_ZN4YAML4NodeC2ENS0_6ZombieE
_ZN4YAML4NodeC2ERNS_6detail4nodeESt10shared_ptrINS1_13memory_holderEE
_ZNSt12__shared_ptrIN4YAML6detail13memory_holderELN9__gnu_cxx12_Lock_policyE2EE5resetIS2_EENSt9enable_ifIXsr21__sp_is_constructibleIS2_T_EE5valueEvE4typeEPS8_
_ZN4YAML6detail13memory_holderC2Ev
_ZNKSt19__shared_ptr_accessIN4YAML6detail13memory_holderELN9__gnu_cxx12_Lock_policyE2ELb0ELb0EEptEv
_ZN4YAML6detail13memory_holder11create_nodeEv
_ZN4YAML6detail4node8set_nullEv
_ZNSt12__shared_ptrIN4YAML6detail13memory_holderELN9__gnu_cxx12_Lock_policyE2EEC2IS2_vEEPT_
_ZNSt12__shared_ptrIN4YAML6detail13memory_holderELN9__gnu_cxx12_Lock_policyE2EE4swapERS5_
_ZNSt12__shared_ptrIN4YAML6detail13memory_holderELN9__gnu_cxx12_Lock_policyE2EED2Ev
_ZNSt14__shared_countILN9__gnu_cxx12_Lock_policyE2EEC2IPN4YAML6detail13memory_holderEEET_St17integral_constantIbLb0EE
_ZNSt12__shared_ptrIN4YAML6detail13memory_holderELN9__gnu_cxx12_Lock_policyE2EE31_M_enable_shared_from_this_withIS2_S2_EENSt9enable_ifIXntsr15__has_esft_baseIT0_EE5valueEvE4typeEPT_
_ZNSt14__shared_countILN9__gnu_cxx12_Lock_policyE2EEC2IPN4YAML6detail13memory_holderEEET_
_ZNSt15_Sp_counted_ptrIPN4YAML6detail13memory_holderELN9__gnu_cxx12_Lock_policyE2EEC2ES3_
_ZN4YAML6detail13memory_holderD2Ev
_ZNSt16_Sp_counted_baseILN9__gnu_cxx12_Lock_policyE2EEC2Ev
_ZNSt15_Sp_counted_ptrIPN4YAML6detail13memory_holderELN9__gnu_cxx12_Lock_policyE2EED2Ev
_ZNSt15_Sp_counted_ptrIPN4YAML6detail13memory_holderELN9__gnu_cxx12_Lock_policyE2EED0Ev
_ZNSt15_Sp_counted_ptrIPN4YAML6detail13memory_holderELN9__gnu_cxx12_Lock_policyE2EE10_M_disposeEv
_ZNSt15_Sp_counted_ptrIPN4YAML6detail13memory_holderELN9__gnu_cxx12_Lock_policyE2EE10_M_destroyEv
_ZNSt15_Sp_counted_ptrIPN4YAML6detail13memory_holderELN9__gnu_cxx12_Lock_policyE2EE14_M_get_deleterERKSt9type_info
_ZNSt16_Sp_counted_baseILN9__gnu_cxx12_Lock_policyE2EED2Ev
_ZNSt16_Sp_counted_baseILN9__gnu_cxx12_Lock_policyE2EED0Ev
_ZNSt16_Sp_counted_baseILN9__gnu_cxx12_Lock_policyE2EE10_M_destroyEv
_ZNSt10shared_ptrIN4YAML6detail6memoryEED2Ev
_ZNSt12__shared_ptrIN4YAML6detail6memoryELN9__gnu_cxx12_Lock_policyE2EED2Ev
_ZSt4swapIPN4YAML6detail13memory_holderEENSt9enable_ifIXsr6__and_ISt6__not_ISt15__is_tuple_likeIT_EESt21is_move_constructibleIS7_ESt18is_move_assignableIS7_EEE5valueEvE4typeERS7_SG_
_ZNSt14__shared_countILN9__gnu_cxx12_Lock_policyE2EE7_M_swapERS2_
_ZSt4moveIRPN4YAML6detail13memory_holderEEONSt16remove_referenceIT_E4typeEOS6_
_ZN4YAML6detail6memoryC2Ev
_ZNSt10shared_ptrIN4YAML6detail6memoryEEC2IS2_vEEPT_
_ZNSt3setISt10shared_ptrIN4YAML6detail4nodeEESt4lessIS4_ESaIS4_EEC2Ev
_ZNSt8_Rb_treeISt10shared_ptrIN4YAML6detail4nodeEES4_St9_IdentityIS4_ESt4lessIS4_ESaIS4_EEC2Ev
_ZNSt8_Rb_treeISt10shared_ptrIN4YAML6detail4nodeEES4_St9_IdentityIS4_ESt4lessIS4_ESaIS4_EE13_Rb_tree_implIS8_Lb1EEC2Ev
_ZNSaISt13_Rb_tree_nodeISt10shared_ptrIN4YAML6detail4nodeEEEEC2Ev
_ZNSt20_Rb_tree_key_compareISt4lessISt10shared_ptrIN4YAML6detail4nodeEEEEC2Ev
_ZN9__gnu_cxx13new_allocatorISt13_Rb_tree_nodeISt10shared_ptrIN4YAML6detail4nodeEEEEC2Ev
_ZNSt12__shared_ptrIN4YAML6detail6memoryELN9__gnu_cxx12_Lock_policyE2EEC2IS2_vEEPT_
_ZNSt14__shared_countILN9__gnu_cxx12_Lock_policyE2EEC2IPN4YAML6detail6memoryEEET_St17integral_constantIbLb0EE
_ZNSt12__shared_ptrIN4YAML6detail6memoryELN9__gnu_cxx12_Lock_policyE2EE31_M_enable_shared_from_this_withIS2_S2_EENSt9enable_ifIXntsr15__has_esft_baseIT0_EE5valueEvE4typeEPT_
_ZNSt14__shared_countILN9__gnu_cxx12_Lock_policyE2EEC2IPN4YAML6detail6memoryEEET_
_ZNSt15_Sp_counted_ptrIPN4YAML6detail6memoryELN9__gnu_cxx12_Lock_policyE2EEC2ES3_
_ZN4YAML6detail6memoryD2Ev
_ZNSt15_Sp_counted_ptrIPN4YAML6detail6memoryELN9__gnu_cxx12_Lock_policyE2EED2Ev
_ZNSt15_Sp_counted_ptrIPN4YAML6detail6memoryELN9__gnu_cxx12_Lock_policyE2EED0Ev
_ZNSt15_Sp_counted_ptrIPN4YAML6detail6memoryELN9__gnu_cxx12_Lock_policyE2EE10_M_disposeEv
_ZNSt15_Sp_counted_ptrIPN4YAML6detail6memoryELN9__gnu_cxx12_Lock_policyE2EE10_M_destroyEv
_ZNSt15_Sp_counted_ptrIPN4YAML6detail6memoryELN9__gnu_cxx12_Lock_policyE2EE14_M_get_deleterERKSt9type_info
_ZNSt3setISt10shared_ptrIN4YAML6detail4nodeEESt4lessIS4_ESaIS4_EED2Ev
_ZNSt8_Rb_treeISt10shared_ptrIN4YAML6detail4nodeEES4_St9_IdentityIS4_ESt4lessIS4_ESaIS4_EED2Ev
_ZNSt8_Rb_treeISt10shared_ptrIN4YAML6detail4nodeEES4_St9_IdentityIS4_ESt4lessIS4_ESaIS4_EE8_M_eraseEPSt13_Rb_tree_nodeIS4_E
_ZNSt8_Rb_treeISt10shared_ptrIN4YAML6detail4nodeEES4_St9_IdentityIS4_ESt4lessIS4_ESaIS4_EE8_M_beginEv
_ZNSt8_Rb_treeISt10shared_ptrIN4YAML6detail4nodeEES4_St9_IdentityIS4_ESt4lessIS4_ESaIS4_EE13_Rb_tree_implIS8_Lb1EED2Ev
_ZNSt8_Rb_treeISt10shared_ptrIN4YAML6detail4nodeEES4_St9_IdentityIS4_ESt4lessIS4_ESaIS4_EE8_S_rightEPSt18_Rb_tree_node_base
_ZNSt8_Rb_treeISt10shared_ptrIN4YAML6detail4nodeEES4_St9_IdentityIS4_ESt4lessIS4_ESaIS4_EE7_S_leftEPSt18_Rb_tree_node_base
_ZNSt8_Rb_treeISt10shared_ptrIN4YAML6detail4nodeEES4_St9_IdentityIS4_ESt4lessIS4_ESaIS4_EE12_M_drop_nodeEPSt13_Rb_tree_nodeIS4_E
_ZNSt8_Rb_treeISt10shared_ptrIN4YAML6detail4nodeEES4_St9_IdentityIS4_ESt4lessIS4_ESaIS4_EE15_M_destroy_nodeEPSt13_Rb_tree_nodeIS4_E
_ZNSt8_Rb_treeISt10shared_ptrIN4YAML6detail4nodeEES4_St9_IdentityIS4_ESt4lessIS4_ESaIS4_EE11_M_put_nodeEPSt13_Rb_tree_nodeIS4_E
_ZNSt16allocator_traitsISaISt13_Rb_tree_nodeISt10shared_ptrIN4YAML6detail4nodeEEEEE7destroyIS5_EEvRS7_PT_
_ZNSt8_Rb_treeISt10shared_ptrIN4YAML6detail4nodeEES4_St9_IdentityIS4_ESt4lessIS4_ESaIS4_EE21_M_get_Node_allocatorEv
_ZNSt13_Rb_tree_nodeISt10shared_ptrIN4YAML6detail4nodeEEE9_M_valptrEv
_ZN9__gnu_cxx13new_allocatorISt13_Rb_tree_nodeISt10shared_ptrIN4YAML6detail4nodeEEEE7destroyIS6_EEvPT_
_ZNSt10shared_ptrIN4YAML6detail4nodeEED2Ev
_ZNSt12__shared_ptrIN4YAML6detail4nodeELN9__gnu_cxx12_Lock_policyE2EED2Ev
_ZN9__gnu_cxx16__aligned_membufISt10shared_ptrIN4YAML6detail4nodeEEE6_M_ptrEv
_ZN9__gnu_cxx16__aligned_membufISt10shared_ptrIN4YAML6detail4nodeEEE7_M_addrEv
_ZNSt16allocator_traitsISaISt13_Rb_tree_nodeISt10shared_ptrIN4YAML6detail4nodeEEEEE10deallocateERS7_PS6_m
_ZN9__gnu_cxx13new_allocatorISt13_Rb_tree_nodeISt10shared_ptrIN4YAML6detail4nodeEEEE10deallocateEPS7_m
_ZNSaISt13_Rb_tree_nodeISt10shared_ptrIN4YAML6detail4nodeEEEED2Ev
_ZN9__gnu_cxx13new_allocatorISt13_Rb_tree_nodeISt10shared_ptrIN4YAML6detail4nodeEEEED2Ev
_ZNKSt19__shared_ptr_accessIN4YAML6detail13memory_holderELN9__gnu_cxx12_Lock_policyE2ELb0ELb0EE6_M_getEv
_ZNKSt12__shared_ptrIN4YAML6detail13memory_holderELN9__gnu_cxx12_Lock_policyE2EE3getEv
_ZNKSt19__shared_ptr_accessIN4YAML6detail6memoryELN9__gnu_cxx12_Lock_policyE2ELb0ELb0EEptEv
_ZN4YAML6detail6memory11create_nodeEv
_ZNKSt19__shared_ptr_accessIN4YAML6detail6memoryELN9__gnu_cxx12_Lock_policyE2ELb0ELb0EE6_M_getEv
_ZNKSt12__shared_ptrIN4YAML6detail6memoryELN9__gnu_cxx12_Lock_policyE2EE3getEv
_ZN4YAML6detail4node12mark_definedEv
_ZN4YAML6detail8node_ref8set_nullEv
_ZN4YAML6detail8node_ref12mark_definedEv
_ZNKSt3setIPN4YAML6detail4nodeESt4lessIS3_ESaIS3_EE5beginEv
_ZStneRKSt23_Rb_tree_const_iteratorIPN4YAML6detail4nodeEES6_
_ZNKSt3setIPN4YAML6detail4nodeESt4lessIS3_ESaIS3_EE3endEv
_ZNKSt23_Rb_tree_const_iteratorIPN4YAML6detail4nodeEEdeEv
_ZNSt23_Rb_tree_const_iteratorIPN4YAML6detail4nodeEEppEv
_ZNSt3setIPN4YAML6detail4nodeESt4lessIS3_ESaIS3_EE5clearEv
_ZN4YAML6detail9node_data12mark_definedEv
_ZNKSt8_Rb_treeIPN4YAML6detail4nodeES3_St9_IdentityIS3_ESt4lessIS3_ESaIS3_EE5beginEv
_ZNSt23_Rb_tree_const_iteratorIPN4YAML6detail4nodeEEC2EPKSt18_Rb_tree_node_base
_ZNKSt8_Rb_treeIPN4YAML6detail4nodeES3_St9_IdentityIS3_ESt4lessIS3_ESaIS3_EE3endEv
_ZNKSt13_Rb_tree_nodeIPN4YAML6detail4nodeEE9_M_valptrEv
_ZNK9__gnu_cxx16__aligned_membufIPN4YAML6detail4nodeEE6_M_ptrEv
_ZNK9__gnu_cxx16__aligned_membufIPN4YAML6detail4nodeEE7_M_addrEv
_ZSt18_Rb_tree_incrementPKSt18_Rb_tree_node_base
_ZNSt8_Rb_treeIPN4YAML6detail4nodeES3_St9_IdentityIS3_ESt4lessIS3_ESaIS3_EE5clearEv
_ZNSt8_Rb_treeIPN4YAML6detail4nodeES3_St9_IdentityIS3_ESt4lessIS3_ESaIS3_EE8_M_eraseEPSt13_Rb_tree_nodeIS3_E
_ZNSt8_Rb_treeIPN4YAML6detail4nodeES3_St9_IdentityIS3_ESt4lessIS3_ESaIS3_EE8_M_beginEv
_ZNSt8_Rb_treeIPN4YAML6detail4nodeES3_St9_IdentityIS3_ESt4lessIS3_ESaIS3_EE8_S_rightEPSt18_Rb_tree_node_base
_ZNSt8_Rb_treeIPN4YAML6detail4nodeES3_St9_IdentityIS3_ESt4lessIS3_ESaIS3_EE7_S_leftEPSt18_Rb_tree_node_base
_ZNSt8_Rb_treeIPN4YAML6detail4nodeES3_St9_IdentityIS3_ESt4lessIS3_ESaIS3_EE12_M_drop_nodeEPSt13_Rb_tree_nodeIS3_E
_ZNSt8_Rb_treeIPN4YAML6detail4nodeES3_St9_IdentityIS3_ESt4lessIS3_ESaIS3_EE15_M_destroy_nodeEPSt13_Rb_tree_nodeIS3_E
_ZNSt8_Rb_treeIPN4YAML6detail4nodeES3_St9_IdentityIS3_ESt4lessIS3_ESaIS3_EE11_M_put_nodeEPSt13_Rb_tree_nodeIS3_E
_ZNSt16allocator_traitsISaISt13_Rb_tree_nodeIPN4YAML6detail4nodeEEEE7destroyIS4_EEvRS6_PT_
_ZNSt8_Rb_treeIPN4YAML6detail4nodeES3_St9_IdentityIS3_ESt4lessIS3_ESaIS3_EE21_M_get_Node_allocatorEv
_ZNSt13_Rb_tree_nodeIPN4YAML6detail4nodeEE9_M_valptrEv
_ZN9__gnu_cxx13new_allocatorISt13_Rb_tree_nodeIPN4YAML6detail4nodeEEE7destroyIS5_EEvPT_
_ZN9__gnu_cxx16__aligned_membufIPN4YAML6detail4nodeEE6_M_ptrEv
_ZN9__gnu_cxx16__aligned_membufIPN4YAML6detail4nodeEE7_M_addrEv
_ZNSt16allocator_traitsISaISt13_Rb_tree_nodeIPN4YAML6detail4nodeEEEE10deallocateERS6_PS5_m
_ZN9__gnu_cxx13new_allocatorISt13_Rb_tree_nodeIPN4YAML6detail4nodeEEE10deallocateEPS6_m
_ZN4YAML6detail9node_data8set_nullEv
_ZNKSt19__shared_ptr_accessIN4YAML6detail8node_refELN9__gnu_cxx12_Lock_policyE2ELb0ELb0EEdeEv
_ZNK4YAML6detail8node_ref3getINSt7__cxx1112basic_stringIcSt11char_traitsIcESaIcEEEEEPNS0_4nodeERKT_St10shared_ptrINS0_13memory_holderEE
_ZNKSt19__shared_ptr_accessIN4YAML6detail9node_dataELN9__gnu_cxx12_Lock_policyE2ELb0ELb0EEdeEv
_ZNK4YAML6detail9node_data3getINSt7__cxx1112basic_stringIcSt11char_traitsIcESaIcEEEEEPNS0_4nodeERKT_St10shared_ptrINS0_13memory_holderEE
_ZN4YAML6detail7get_idxINSt7__cxx1112basic_stringIcSt11char_traitsIcESaIcEEEvE3getERKSt6vectorIPNS0_4nodeESaISB_EERKS7_St10shared_ptrINS0_13memory_holderEE
_ZN4YAML12BadSubscriptC2Ev
_ZN4YAML12BadSubscriptD1Ev
_ZNKSt6vectorISt4pairIPN4YAML6detail4nodeES4_ESaIS5_EE5beginEv
_ZN9__gnu_cxxneIPKSt4pairIPN4YAML6detail4nodeES5_ESt6vectorIS6_SaIS6_EEEEbRKNS_17__normal_iteratorIT_T0_EESH_
_ZNKSt6vectorISt4pairIPN4YAML6detail4nodeES4_ESaIS5_EE3endEv
_ZNK9__gnu_cxx17__normal_iteratorIPKSt4pairIPN4YAML6detail4nodeES5_ESt6vectorIS6_SaIS6_EEEptEv
_ZN4YAML6detail4node6equalsINSt7__cxx1112basic_stringIcSt11char_traitsIcESaIcEEEEEbRKT_St10shared_ptrINS0_13memory_holderEE
_ZN9__gnu_cxx17__normal_iteratorIPKSt4pairIPN4YAML6detail4nodeES5_ESt6vectorIS6_SaIS6_EEEppEv
_ZN9__gnu_cxx17__normal_iteratorIPKSt4pairIPN4YAML6detail4nodeES5_ESt6vectorIS6_SaIS6_EEEC2ERKS8_
_ZNK9__gnu_cxx17__normal_iteratorIPKSt4pairIPN4YAML6detail4nodeES5_ESt6vectorIS6_SaIS6_EEE4baseEv
_ZN4YAML7convertINSt7__cxx1112basic_stringIcSt11char_traitsIcESaIcEEEE6decodeERKNS_4NodeERS6_
_ZSteqIcEN9__gnu_cxx11__enable_ifIXsr9__is_charIT_EE7__valueEbE6__typeERKNSt7__cxx1112basic_stringIS2_St11char_traitsIS2_ESaIS2_EEESC_
_ZNK4YAML4Node8IsScalarEv
_ZNK4YAML4Node6ScalarB5cxx11Ev
_ZNK4YAML6detail4node6scalarB5cxx11Ev
_ZNK4YAML6detail8node_ref6scalarB5cxx11Ev
_ZNK4YAML6detail9node_data6scalarB5cxx11Ev
_ZNSt11char_traitsIcE7compareEPKcS2_m
_ZNKSt7__cxx1112basic_stringIcSt11char_traitsIcESaIcEE4dataEv
memcmp
_ZN4YAML6detail10to_value_tIA8_cEC2EPKc
_ZNK4YAML6detail10to_value_tIA8_cEclB5cxx11Ev
_ZNSt12__shared_ptrIN4YAML6detail13memory_holderELN9__gnu_cxx12_Lock_policyE2EEC2ERKS5_
_ZNSt14__shared_countILN9__gnu_cxx12_Lock_policyE2EEC2ERKS2_
_ZNSt16_Sp_counted_baseILN9__gnu_cxx12_Lock_policyE2EE15_M_add_ref_copyEv
_ZN9__gnu_cxxL21__atomic_add_dispatchEPii
_ZN9__gnu_cxxL12__atomic_addEPVii
_ZN9__gnu_cxxL19__atomic_add_singleEPii
_ZNSt10shared_ptrIN4YAML6detail13memory_holderEEC2Ev
_ZNSt12__shared_ptrIN4YAML6detail13memory_holderELN9__gnu_cxx12_Lock_policyE2EEC2Ev
_ZNSt14__shared_countILN9__gnu_cxx12_Lock_policyE2EEC2Ev
_ZN13jaegertracing5utils4yaml13findOrDefaultINSt7__cxx1112basic_stringIcSt11char_traitsIcESaIcEEEA5_cA1_cEET_RKN4YAML4NodeERKT0_RKT1_
_ZN13jaegertracing5utils4yaml13findOrDefaultIdA6_ciEET_RKN4YAML4NodeERKT0_RKT1_
_ZN13jaegertracing5utils4yaml13findOrDefaultINSt7__cxx1112basic_stringIcSt11char_traitsIcESaIcEEEA18_cA1_cEET_RKN4YAML4NodeERKT0_RKT1_
_ZN13jaegertracing5utils4yaml13findOrDefaultIiA14_ciEET_RKN4YAML4NodeERKT0_RKT1_
_ZN13jaegertracing5utils4yaml13findOrDefaultIiA24_ciEET_RKN4YAML4NodeERKT0_RKT1_
_ZNK4YAML4NodeixIA5_cEEKS0_RKT_
_ZNK4YAML4Node2asINSt7__cxx1112basic_stringIcSt11char_traitsIcESaIcEEEEET_v
_ZN4YAML6detail8to_valueIA5_cEENS0_10to_value_tIT_E11return_typeERKS4_
_ZN4YAML6detail10to_value_tIA5_cEC2EPKc
_ZNK4YAML6detail10to_value_tIA5_cEclB5cxx11Ev
_ZN4YAML5as_ifINSt7__cxx1112basic_stringIcSt11char_traitsIcESaIcEEEvEC2ERKNS_4NodeE
_ZNK4YAML5as_ifINSt7__cxx1112basic_stringIcSt11char_traitsIcESaIcEEEvEclEv
_ZN4YAML18TypedBadConversionINSt7__cxx1112basic_stringIcSt11char_traitsIcESaIcEEEEC2ERKNS_4MarkE
_ZN4YAML18TypedBadConversionINSt7__cxx1112basic_stringIcSt11char_traitsIcESaIcEEEED2Ev
_ZN4YAML18TypedBadConversionINSt7__cxx1112basic_stringIcSt11char_traitsIcESaIcEEEED0Ev
_ZNK4YAML4NodeixIA6_cEEKS0_RKT_
_ZNK4YAML4Node2asIdEET_v
_ZN4YAML6detail8to_valueIA6_cEENS0_10to_value_tIT_E11return_typeERKS4_
_ZN4YAML6detail10to_value_tIA6_cEC2EPKc
_ZNK4YAML6detail10to_value_tIA6_cEclB5cxx11Ev
_ZN4YAML5as_ifIdvEC2ERKNS_4NodeE
_ZNK4YAML5as_ifIdvEclEv
_ZN4YAML18TypedBadConversionIdEC2ERKNS_4MarkE
_ZN4YAML18TypedBadConversionIdED2Ev
_ZN4YAML7convertIdE6decodeERKNS_4NodeERd
_ZN4YAML18TypedBadConversionIdED0Ev
_ZStorSt13_Ios_OpenmodeS_
_ZNSt7__cxx1118basic_stringstreamIcSt11char_traitsIcESaIcEEC1ERKNS_12basic_stringIcS2_S3_EESt13_Ios_Openmode
_ZNSt8ios_base6unsetfESt13_Ios_Fmtflags
_ZNSirsEPFRSt8ios_baseS0_E
_ZSt8noskipwsRSt8ios_base
_ZNSirsERd
_ZNKSt9basic_iosIcSt11char_traitsIcEEcvbEv
_ZNSirsEPFRSiS_E
_ZSt2wsIcSt11char_traitsIcEERSt13basic_istreamIT_T0_ES6_
_ZNKSt9basic_iosIcSt11char_traitsIcEE3eofEv
_ZN4YAML10conversion10IsInfinityERKNSt7__cxx1112basic_stringIcSt11char_traitsIcESaIcEEE
_ZNSt14numeric_limitsIdE8infinityEv
_ZN4YAML10conversion18IsNegativeInfinityERKNSt7__cxx1112basic_stringIcSt11char_traitsIcESaIcEEE
_ZN4YAML10conversion5IsNaNERKNSt7__cxx1112basic_stringIcSt11char_traitsIcESaIcEEE
_ZNSt14numeric_limitsIdE9quiet_NaNEv
_ZStaNRSt13_Ios_FmtflagsS_
_ZStcoSt13_Ios_Fmtflags
_ZStanSt13_Ios_FmtflagsS_
_ZSteqIcSt11char_traitsIcESaIcEEbRKNSt7__cxx1112basic_stringIT_T0_T1_EEPKS5_
_ZNKSt7__cxx1112basic_stringIcSt11char_traitsIcESaIcEE7compareEPKc
_ZNK4YAML4NodeixIA18_cEEKS0_RKT_
_ZN4YAML6detail8to_valueIA18_cEENS0_10to_value_tIT_E11return_typeERKS4_
_ZN4YAML6detail10to_value_tIA18_cEC2EPKc
_ZNK4YAML6detail10to_value_tIA18_cEclB5cxx11Ev
_ZNK4YAML4NodeixIA14_cEEKS0_RKT_
_ZNK4YAML4Node2asIiEET_v
_ZN4YAML6detail8to_valueIA14_cEENS0_10to_value_tIT_E11return_typeERKS4_
_ZN4YAML6detail10to_value_tIA14_cEC2EPKc
_ZNK4YAML6detail10to_value_tIA14_cEclB5cxx11Ev
_ZN4YAML5as_ifIivEC2ERKNS_4NodeE
_ZNK4YAML5as_ifIivEclEv
_ZN4YAML18TypedBadConversionIiEC2ERKNS_4MarkE
_ZN4YAML18TypedBadConversionIiED2Ev
_ZN4YAML7convertIiE6decodeERKNS_4NodeERi
_ZN4YAML18TypedBadConversionIiED0Ev
_ZNSirsERi
_ZNK4YAML4NodeixIA24_cEEKS0_RKT_
_ZN4YAML6detail8to_valueIA24_cEENS0_10to_value_tIT_E11return_typeERKS4_
_ZN4YAML6detail10to_value_tIA24_cEC2EPKc
_ZNK4YAML6detail10to_value_tIA24_cEclB5cxx11Ev
_ZN4YAML6detail8to_valueIA9_cEENS0_10to_value_tIT_E11return_typeERKS4_
_ZN4YAML6detail10to_value_tIA9_cEC2EPKc
_ZNK4YAML6detail10to_value_tIA9_cEclB5cxx11Ev
_ZN13jaegertracing5utils4yaml13findOrDefaultIiA10_ciEET_RKN4YAML4NodeERKT0_RKT1_
_ZN13jaegertracing5utils4yaml13findOrDefaultIiA20_ciEET_RKN4YAML4NodeERKT0_RKT1_
_ZN13jaegertracing5utils4yaml13findOrDefaultINSt7__cxx1112basic_stringIcSt11char_traitsIcESaIcEEEA19_cA1_cEET_RKN4YAML4NodeERKT0_RKT1_
_ZNK4YAML4NodeixIA10_cEEKS0_RKT_
_ZN4YAML6detail8to_valueIA10_cEENS0_10to_value_tIT_E11return_typeERKS4_
_ZN4YAML6detail10to_value_tIA10_cEC2EPKc
_ZNK4YAML6detail10to_value_tIA10_cEclB5cxx11Ev
_ZNK4YAML4NodeixIA20_cEEKS0_RKT_
_ZN4YAML6detail8to_valueIA20_cEENS0_10to_value_tIT_E11return_typeERKS4_
_ZN4YAML6detail10to_value_tIA20_cEC2EPKc
_ZNK4YAML6detail10to_value_tIA20_cEclB5cxx11Ev
_ZNK4YAML4NodeixIA19_cEEKS0_RKT_
_ZN4YAML6detail8to_valueIA19_cEENS0_10to_value_tIT_E11return_typeERKS4_
_ZN4YAML6detail10to_value_tIA19_cEC2EPKc
_ZNK4YAML6detail10to_value_tIA19_cEclB5cxx11Ev
_ZN13jaegertracing5utils4yaml13findOrDefaultINSt7__cxx1112basic_stringIcSt11char_traitsIcESaIcEEEA20_cA1_cEET_RKN4YAML4NodeERKT0_RKT1_
_ZN13jaegertracing5utils4yaml13findOrDefaultINSt7__cxx1112basic_stringIcSt11char_traitsIcESaIcEEEA23_cA1_cEET_RKN4YAML4NodeERKT0_RKT1_
_ZN13jaegertracing5utils4yaml13findOrDefaultINSt7__cxx1112basic_stringIcSt11char_traitsIcESaIcEEEA25_cA1_cEET_RKN4YAML4NodeERKT0_RKT1_
_ZN13jaegertracing11propagation13HeadersConfigC2ERKNSt7__cxx1112basic_stringIcSt11char_traitsIcESaIcEEES9_S9_S9_
_ZNK4YAML4NodeixIA23_cEEKS0_RKT_
_ZN4YAML6detail8to_valueIA23_cEENS0_10to_value_tIT_E11return_typeERKS4_
_ZN4YAML6detail10to_value_tIA23_cEC2EPKc
_ZNK4YAML6detail10to_value_tIA23_cEclB5cxx11Ev
_ZNK4YAML4NodeixIA25_cEEKS0_RKT_
_ZN4YAML6detail8to_valueIA25_cEENS0_10to_value_tIT_E11return_typeERKS4_
_ZN4YAML6detail10to_value_tIA25_cEC2EPKc
_ZNK4YAML6detail10to_value_tIA25_cEclB5cxx11Ev
_ZN4YAML6detail8to_valueIA21_cEENS0_10to_value_tIT_E11return_typeERKS4_
_ZN4YAML6detail10to_value_tIA21_cEC2EPKc
_ZNK4YAML6detail10to_value_tIA21_cEclB5cxx11Ev
_ZN13jaegertracing5utils4yaml13findOrDefaultIbA35_cbEET_RKN4YAML4NodeERKT0_RKT1_
_ZN13jaegertracing5utils4yaml13findOrDefaultINSt7__cxx1112basic_stringIcSt11char_traitsIcESaIcEEEA9_cA1_cEET_RKN4YAML4NodeERKT0_RKT1_
_ZN13jaegertracing5utils4yaml13findOrDefaultIiA16_ciEET_RKN4YAML4NodeERKT0_RKT1_
_ZNK4YAML4NodeixIA35_cEEKS0_RKT_
_ZN4YAML6detail8to_valueIA35_cEENS0_10to_value_tIT_E11return_typeERKS4_
_ZN4YAML6detail10to_value_tIA35_cEC2EPKc
_ZNK4YAML6detail10to_value_tIA35_cEclB5cxx11Ev
_ZNK4YAML4NodeixIA16_cEEKS0_RKT_
_ZN4YAML6detail8to_valueIA16_cEENS0_10to_value_tIT_E11return_typeERKS4_
_ZN4YAML6detail10to_value_tIA16_cEC2EPKc
_ZNK4YAML6detail10to_value_tIA16_cEclB5cxx11Ev
_ZN13jaegertracing7metrics16NullStatsFactoryC2Ev
_ZN13jaegertracing6Tracer4makeERKNSt7__cxx1112basic_stringIcSt11char_traitsIcESaIcEEERKNS_6ConfigERKSt10shared_ptrINS_7logging6LoggerEERNS_7metrics12StatsFactoryE
_ZN13jaegertracing7metrics16NullStatsFactoryD2Ev
_ZN13jaegertracing7metrics12StatsFactoryC2Ev
_ZN13jaegertracing7metrics16NullStatsFactoryD0Ev
_ZN13jaegertracing7metrics16NullStatsFactory13createCounterERKNSt7__cxx1112basic_stringIcSt11char_traitsIcESaIcEEERKSt13unordered_mapIS7_S7_St4hashIS7_ESt8equal_toIS7_ESaISt4pairIS8_S7_EEE
_ZN13jaegertracing7metrics16NullStatsFactory11createTimerERKNSt7__cxx1112basic_stringIcSt11char_traitsIcESaIcEEERKSt13unordered_mapIS7_S7_St4hashIS7_ESt8equal_toIS7_ESaISt4pairIS8_S7_EEE
_ZN13jaegertracing7metrics16NullStatsFactory11createGaugeERKNSt7__cxx1112basic_stringIcSt11char_traitsIcESaIcEEERKSt13unordered_mapIS7_S7_St4hashIS7_ESt8equal_toIS7_ESaISt4pairIS8_S7_EEE
_ZN13jaegertracing7metrics12StatsFactoryD2Ev
_ZN13jaegertracing7metrics12StatsFactoryD0Ev
_ZN13jaegertracing7metrics11NullCounterC2Ev
_ZNSt10unique_ptrIN13jaegertracing7metrics7CounterESt14default_deleteIS2_EEC2IS4_vEEPS2_
_ZN13jaegertracing7metrics7CounterC2Ev
_ZN13jaegertracing7metrics11NullCounterD2Ev
_ZN13jaegertracing7metrics11NullCounterD0Ev
_ZN13jaegertracing7metrics11NullCounter3incEl
_ZN13jaegertracing7metrics7CounterD2Ev
_ZN13jaegertracing7metrics7CounterD0Ev
_ZNSt15__uniq_ptr_implIN13jaegertracing7metrics7CounterESt14default_deleteIS2_EEC2EPS2_
_ZNSt5tupleIJPN13jaegertracing7metrics7CounterESt14default_deleteIS2_EEEC2IS3_S5_Lb1EEEv
_ZNSt15__uniq_ptr_implIN13jaegertracing7metrics7CounterESt14default_deleteIS2_EE6_M_ptrEv
_ZNSt11_Tuple_implILm0EJPN13jaegertracing7metrics7CounterESt14default_deleteIS2_EEEC2Ev
_ZNSt11_Tuple_implILm1EJSt14default_deleteIN13jaegertracing7metrics7CounterEEEEC2Ev
_ZNSt10_Head_baseILm0EPN13jaegertracing7metrics7CounterELb0EEC2Ev
_ZNSt10_Head_baseILm1ESt14default_deleteIN13jaegertracing7metrics7CounterEELb1EEC2Ev
_ZSt3getILm0EJPN13jaegertracing7metrics7CounterESt14default_deleteIS2_EEERNSt13tuple_elementIXT_ESt5tupleIJDpT0_EEE4typeERSA_
_ZSt12__get_helperILm0EPN13jaegertracing7metrics7CounterEJSt14default_deleteIS2_EEERT0_RSt11_Tuple_implIXT_EJS6_DpT1_EE
_ZNSt11_Tuple_implILm0EJPN13jaegertracing7metrics7CounterESt14default_deleteIS2_EEE7_M_headERS6_
_ZNSt10_Head_baseILm0EPN13jaegertracing7metrics7CounterELb0EE7_M_headERS4_
_ZN13jaegertracing7metrics9NullTimerC2Ev
_ZNSt10unique_ptrIN13jaegertracing7metrics5TimerESt14default_deleteIS2_EEC2IS4_vEEPS2_
_ZN13jaegertracing7metrics5TimerC2Ev
_ZN13jaegertracing7metrics9NullTimerD2Ev
_ZN13jaegertracing7metrics9NullTimerD0Ev
_ZN13jaegertracing7metrics9NullTimer6recordEl
_ZN13jaegertracing7metrics5TimerD2Ev
_ZN13jaegertracing7metrics5TimerD0Ev
_ZNSt15__uniq_ptr_implIN13jaegertracing7metrics5TimerESt14default_deleteIS2_EEC2EPS2_
_ZNSt5tupleIJPN13jaegertracing7metrics5TimerESt14default_deleteIS2_EEEC2IS3_S5_Lb1EEEv
_ZNSt15__uniq_ptr_implIN13jaegertracing7metrics5TimerESt14default_deleteIS2_EE6_M_ptrEv
_ZNSt11_Tuple_implILm0EJPN13jaegertracing7metrics5TimerESt14default_deleteIS2_EEEC2Ev
_ZNSt11_Tuple_implILm1EJSt14default_deleteIN13jaegertracing7metrics5TimerEEEEC2Ev
_ZNSt10_Head_baseILm0EPN13jaegertracing7metrics5TimerELb0EEC2Ev
_ZNSt10_Head_baseILm1ESt14default_deleteIN13jaegertracing7metrics5TimerEELb1EEC2Ev
_ZSt3getILm0EJPN13jaegertracing7metrics5TimerESt14default_deleteIS2_EEERNSt13tuple_elementIXT_ESt5tupleIJDpT0_EEE4typeERSA_
_ZSt12__get_helperILm0EPN13jaegertracing7metrics5TimerEJSt14default_deleteIS2_EEERT0_RSt11_Tuple_implIXT_EJS6_DpT1_EE
_ZNSt11_Tuple_implILm0EJPN13jaegertracing7metrics5TimerESt14default_deleteIS2_EEE7_M_headERS6_
_ZNSt10_Head_baseILm0EPN13jaegertracing7metrics5TimerELb0EE7_M_headERS4_
_ZN13jaegertracing7metrics9NullGaugeC2Ev
_ZNSt10unique_ptrIN13jaegertracing7metrics5GaugeESt14default_deleteIS2_EEC2IS4_vEEPS2_
_ZN13jaegertracing7metrics5GaugeC2Ev
_ZN13jaegertracing7metrics9NullGaugeD2Ev
_ZN13jaegertracing7metrics9NullGaugeD0Ev
_ZN13jaegertracing7metrics9NullGauge6updateEl
_ZN13jaegertracing7metrics5GaugeD2Ev
_ZN13jaegertracing7metrics5GaugeD0Ev
_ZNSt15__uniq_ptr_implIN13jaegertracing7metrics5GaugeESt14default_deleteIS2_EEC2EPS2_
_ZNSt5tupleIJPN13jaegertracing7metrics5GaugeESt14default_deleteIS2_EEEC2IS3_S5_Lb1EEEv
_ZNSt15__uniq_ptr_implIN13jaegertracing7metrics5GaugeESt14default_deleteIS2_EE6_M_ptrEv
_ZNSt11_Tuple_implILm0EJPN13jaegertracing7metrics5GaugeESt14default_deleteIS2_EEEC2Ev
_ZNSt11_Tuple_implILm1EJSt14default_deleteIN13jaegertracing7metrics5GaugeEEEEC2Ev
_ZNSt10_Head_baseILm0EPN13jaegertracing7metrics5GaugeELb0EEC2Ev
_ZNSt10_Head_baseILm1ESt14default_deleteIN13jaegertracing7metrics5GaugeEELb1EEC2Ev
_ZSt3getILm0EJPN13jaegertracing7metrics5GaugeESt14default_deleteIS2_EEERNSt13tuple_elementIXT_ESt5tupleIJDpT0_EEE4typeERSA_
_ZSt12__get_helperILm0EPN13jaegertracing7metrics5GaugeEJSt14default_deleteIS2_EEERT0_RSt11_Tuple_implIXT_EJS6_DpT1_EE
_ZNSt11_Tuple_implILm0EJPN13jaegertracing7metrics5GaugeESt14default_deleteIS2_EEE7_M_headERS6_
_ZNSt10_Head_baseILm0EPN13jaegertracing7metrics5GaugeELb0EE7_M_headERS4_
_ZN13jaegertracing6Tracer4makeERKNSt7__cxx1112basic_stringIcSt11char_traitsIcESaIcEEERKNS_6ConfigERKSt10shared_ptrINS_7logging6LoggerEERNS_7metrics12StatsFactoryEi
_ZNSt16invalid_argumentC1EPKc
_ZNSt16invalid_argumentD1Ev
_ZNK13jaegertracing6Config8disabledEv
_ZN11opentracing2v214MakeNoopTracerEv
_ZSt11make_sharedIN13jaegertracing7metrics7MetricsEJRNS1_12StatsFactoryEEESt10shared_ptrIT_EDpOT0_
_ZNK13jaegertracing6Config7samplerEv
_ZNK13jaegertracing8samplers6Config11makeSamplerERKNSt7__cxx1112basic_stringIcSt11char_traitsIcESaIcEEERNS_7logging6LoggerERNS_7metrics7MetricsE
_ZNKSt19__shared_ptr_accessIN13jaegertracing7logging6LoggerELN9__gnu_cxx12_Lock_policyE2ELb0ELb0EEdeEv
_ZNKSt19__shared_ptr_accessIN13jaegertracing7metrics7MetricsELN9__gnu_cxx12_Lock_policyE2ELb0ELb0EEdeEv
_ZNSt10shared_ptrIN13jaegertracing8samplers7SamplerEEC2IS2_St14default_deleteIS2_EvEEOSt10unique_ptrIT_T0_E
_ZNSt10unique_ptrIN13jaegertracing8samplers7SamplerESt14default_deleteIS2_EED2Ev
_ZNK13jaegertracing6Config8reporterEv
_ZNK13jaegertracing9reporters6Config12makeReporterERKNSt7__cxx1112basic_stringIcSt11char_traitsIcESaIcEEERNS_7logging6LoggerERNS_7metrics7MetricsE
_ZNSt10shared_ptrIN13jaegertracing9reporters8ReporterEEC2IS2_St14default_deleteIS2_EvEEOSt10unique_ptrIT_T0_E
_ZNSt10unique_ptrIN13jaegertracing9reporters8ReporterESt14default_deleteIS2_EED2Ev
_ZNK13jaegertracing6Config7headersEv
_ZN13jaegertracing6TracerC2ERKNSt7__cxx1112basic_stringIcSt11char_traitsIcESaIcEEERKSt10shared_ptrINS_8samplers7SamplerEERKS9_INS_9reporters8ReporterEERKS9_INS_7logging6LoggerEERKS9_INS_7metrics7MetricsEERKNS_11propagation13HeadersConfigEi
_ZNSt10shared_ptrIN13jaegertracing6TracerEEC2IS1_vEEPT_
_ZNSt10shared_ptrIN11opentracing2v26TracerEEC2IN13jaegertracing6TracerEvEEOS_IT_E
_ZNSt10shared_ptrIN13jaegertracing6TracerEED2Ev
_ZNSt10shared_ptrIN13jaegertracing9reporters8ReporterEED2Ev
_ZNSt10shared_ptrIN13jaegertracing8samplers7SamplerEED2Ev
_ZNSt10shared_ptrIN13jaegertracing7metrics7MetricsEED2Ev
_ZSt15allocate_sharedIN13jaegertracing7metrics7MetricsESaIS2_EJRNS1_12StatsFactoryEEESt10shared_ptrIT_ERKT0_DpOT1_
_ZNSaIN13jaegertracing7metrics7MetricsEEC2Ev
_ZSt7forwardIRN13jaegertracing7metrics12StatsFactoryEEOT_RNSt16remove_referenceIS4_E4typeE
_ZNSaIN13jaegertracing7metrics7MetricsEED2Ev
_ZNSt10shared_ptrIN13jaegertracing7metrics7MetricsEEC2ISaIS2_EJRNS1_12StatsFactoryEEEESt20_Sp_alloc_shared_tagIT_EDpOT0_
_ZNSt12__shared_ptrIN13jaegertracing7metrics7MetricsELN9__gnu_cxx12_Lock_policyE2EEC2ISaIS2_EJRNS1_12StatsFactoryEEEESt20_Sp_alloc_shared_tagIT_EDpOT0_
_ZNSt14__shared_countILN9__gnu_cxx12_Lock_policyE2EEC2IN13jaegertracing7metrics7MetricsESaIS6_EJRNS5_12StatsFactoryEEEERPT_St20_Sp_alloc_shared_tagIT0_EDpOT1_
_ZNSt12__shared_ptrIN13jaegertracing7metrics7MetricsELN9__gnu_cxx12_Lock_policyE2EE31_M_enable_shared_from_this_withIS2_S2_EENSt9enable_ifIXntsr15__has_esft_baseIT0_EE5valueEvE4typeEPT_
_ZNSaISt23_Sp_counted_ptr_inplaceIN13jaegertracing7metrics7MetricsESaIS2_ELN9__gnu_cxx12_Lock_policyE2EEEC2IS2_EERKSaIT_E
_ZSt18__allocate_guardedISaISt23_Sp_counted_ptr_inplaceIN13jaegertracing7metrics7MetricsESaIS3_ELN9__gnu_cxx12_Lock_policyE2EEEESt15__allocated_ptrIT_ERSA_
_ZNSt15__allocated_ptrISaISt23_Sp_counted_ptr_inplaceIN13jaegertracing7metrics7MetricsESaIS3_ELN9__gnu_cxx12_Lock_policyE2EEEE3getEv
_ZNSaIN13jaegertracing7metrics7MetricsEEC2ERKS2_
_ZNSt23_Sp_counted_ptr_inplaceIN13jaegertracing7metrics7MetricsESaIS2_ELN9__gnu_cxx12_Lock_policyE2EEC2IJRNS1_12StatsFactoryEEEES3_DpOT_
_ZNSt15__allocated_ptrISaISt23_Sp_counted_ptr_inplaceIN13jaegertracing7metrics7MetricsESaIS3_ELN9__gnu_cxx12_Lock_policyE2EEEEaSEDn
_ZNSt23_Sp_counted_ptr_inplaceIN13jaegertracing7metrics7MetricsESaIS2_ELN9__gnu_cxx12_Lock_policyE2EE6_M_ptrEv
_ZNSt15__allocated_ptrISaISt23_Sp_counted_ptr_inplaceIN13jaegertracing7metrics7MetricsESaIS3_ELN9__gnu_cxx12_Lock_policyE2EEEED2Ev
_ZNSaISt23_Sp_counted_ptr_inplaceIN13jaegertracing7metrics7MetricsESaIS2_ELN9__gnu_cxx12_Lock_policyE2EEED2Ev
_ZN9__gnu_cxx13new_allocatorISt23_Sp_counted_ptr_inplaceIN13jaegertracing7metrics7MetricsESaIS4_ELNS_12_Lock_policyE2EEEC2Ev
_ZNSt16allocator_traitsISaISt23_Sp_counted_ptr_inplaceIN13jaegertracing7metrics7MetricsESaIS3_ELN9__gnu_cxx12_Lock_policyE2EEEE8allocateERS8_m
_ZNSt15__allocated_ptrISaISt23_Sp_counted_ptr_inplaceIN13jaegertracing7metrics7MetricsESaIS3_ELN9__gnu_cxx12_Lock_policyE2EEEEC2ERS8_PS7_
_ZN9__gnu_cxx13new_allocatorISt23_Sp_counted_ptr_inplaceIN13jaegertracing7metrics7MetricsESaIS4_ELNS_12_Lock_policyE2EEE8allocateEmPKv
_ZNK9__gnu_cxx13new_allocatorISt23_Sp_counted_ptr_inplaceIN13jaegertracing7metrics7MetricsESaIS4_ELNS_12_Lock_policyE2EEE8max_sizeEv
_ZSt11__addressofISaISt23_Sp_counted_ptr_inplaceIN13jaegertracing7metrics7MetricsESaIS3_ELN9__gnu_cxx12_Lock_policyE2EEEEPT_RS9_
_ZSt12__to_addressISt23_Sp_counted_ptr_inplaceIN13jaegertracing7metrics7MetricsESaIS3_ELN9__gnu_cxx12_Lock_policyE2EEEPT_S9_
_ZN9__gnu_cxx13new_allocatorIN13jaegertracing7metrics7MetricsEEC2ERKS4_
_ZNSt23_Sp_counted_ptr_inplaceIN13jaegertracing7metrics7MetricsESaIS2_ELN9__gnu_cxx12_Lock_policyE2EE5_ImplC2ES3_
_ZNSt16allocator_traitsISaIN13jaegertracing7metrics7MetricsEEE9constructIS2_JRNS1_12StatsFactoryEEEEvRS3_PT_DpOT0_
_ZNSt23_Sp_counted_ptr_inplaceIN13jaegertracing7metrics7MetricsESaIS2_ELN9__gnu_cxx12_Lock_policyE2EE5_ImplD2Ev
_ZNSt23_Sp_counted_ptr_inplaceIN13jaegertracing7metrics7MetricsESaIS2_ELN9__gnu_cxx12_Lock_policyE2EED2Ev
_ZNSt23_Sp_counted_ptr_inplaceIN13jaegertracing7metrics7MetricsESaIS2_ELN9__gnu_cxx12_Lock_policyE2EED0Ev
_ZNSt23_Sp_counted_ptr_inplaceIN13jaegertracing7metrics7MetricsESaIS2_ELN9__gnu_cxx12_Lock_policyE2EE10_M_disposeEv
_ZNSt23_Sp_counted_ptr_inplaceIN13jaegertracing7metrics7MetricsESaIS2_ELN9__gnu_cxx12_Lock_policyE2EE10_M_destroyEv
_ZNSt23_Sp_counted_ptr_inplaceIN13jaegertracing7metrics7MetricsESaIS2_ELN9__gnu_cxx12_Lock_policyE2EE14_M_get_deleterERKSt9type_info
_ZNSt14_Sp_ebo_helperILi0ESaIN13jaegertracing7metrics7MetricsEELb1EEC2ERKS3_
_ZN9__gnu_cxx13new_allocatorIN13jaegertracing7metrics7MetricsEE9constructIS3_JRNS2_12StatsFactoryEEEEvPT_DpOT0_
_ZN13jaegertracing7metrics7MetricsC2ERNS0_12StatsFactoryE
_ZNSt4pairIKNSt7__cxx1112basic_stringIcSt11char_traitsIcESaIcEEES5_EC2IRA6_KcRA8_S9_Lb1EEEOT_OT0_
_ZNSt4pairIKNSt7__cxx1112basic_stringIcSt11char_traitsIcESaIcEEES5_EC2IRA8_KcRA2_S9_Lb1EEEOT_OT0_
_ZNSt4pairIKNSt7__cxx1112basic_stringIcSt11char_traitsIcESaIcEEES5_ED2Ev
_ZNSaISt4pairIKNSt7__cxx1112basic_stringIcSt11char_traitsIcESaIcEEES5_EEC2Ev
_ZNSt13unordered_mapINSt7__cxx1112basic_stringIcSt11char_traitsIcESaIcEEES5_St4hashIS5_ESt8equal_toIS5_ESaISt4pairIKS5_S5_EEEC2ESt16initializer_listISC_EmRKS7_RKS9_RKSD_
_ZNSt13unordered_mapINSt7__cxx1112basic_stringIcSt11char_traitsIcESaIcEEES5_St4hashIS5_ESt8equal_toIS5_ESaISt4pairIKS5_S5_EEED2Ev
_ZNSaISt4pairIKNSt7__cxx1112basic_stringIcSt11char_traitsIcESaIcEEES5_EED2Ev
_ZNSt10unique_ptrIN13jaegertracing7metrics7CounterESt14default_deleteIS2_EEC2IS4_vEEv
_ZNSt4pairIKNSt7__cxx1112basic_stringIcSt11char_traitsIcESaIcEEES5_EC2IRA6_KcRA10_S9_Lb1EEEOT_OT0_
_ZNSt4pairIKNSt7__cxx1112basic_stringIcSt11char_traitsIcESaIcEEES5_EC2IRA6_KcRA9_S9_Lb1EEEOT_OT0_
_ZN13jaegertracing7metrics12StatsFactory13createCounterERKNSt7__cxx1112basic_stringIcSt11char_traitsIcESaIcEEE
_ZN13jaegertracing7metrics12StatsFactory11createGaugeERKNSt7__cxx1112basic_stringIcSt11char_traitsIcESaIcEEE
_ZNSt4pairIKNSt7__cxx1112basic_stringIcSt11char_traitsIcESaIcEEES5_EC2IRA6_KcSB_Lb1EEEOT_OT0_
_ZNSt4pairIKNSt7__cxx1112basic_stringIcSt11char_traitsIcESaIcEEES5_EC2IRA7_KcRA3_S9_Lb1EEEOT_OT0_
_ZNSt4pairIKNSt7__cxx1112basic_stringIcSt11char_traitsIcESaIcEEES5_EC2IRA7_KcRA4_S9_Lb1EEEOT_OT0_
_ZNSt10unique_ptrIN13jaegertracing7metrics7CounterESt14default_deleteIS2_EED2Ev
_ZNSt10unique_ptrIN13jaegertracing7metrics5GaugeESt14default_deleteIS2_EED2Ev
_ZSt7forwardIRA6_KcEOT_RNSt16remove_referenceIS3_E4typeE
_ZSt7forwardIRA8_KcEOT_RNSt16remove_referenceIS3_E4typeE
_ZSt7forwardIRA2_KcEOT_RNSt16remove_referenceIS3_E4typeE
_ZN9__gnu_cxx13new_allocatorISt4pairIKNSt7__cxx1112basic_stringIcSt11char_traitsIcESaIcEEES7_EEC2Ev
_ZNSt10_HashtableINSt7__cxx1112basic_stringIcSt11char_traitsIcESaIcEEESt4pairIKS5_S5_ESaIS8_ENSt8__detail10_Select1stESt8equal_toIS5_ESt4hashIS5_ENSA_18_Mod_range_hashingENSA_20_Default_ranged_hashENSA_20_Prime_rehash_policyENSA_17_Hashtable_traitsILb1ELb0ELb1EEEEC2ESt16initializer_listIS8_EmRKSF_RKSD_RKS9_
_ZNKSt16initializer_listISt4pairIKNSt7__cxx1112basic_stringIcSt11char_traitsIcESaIcEEES6_EE5beginEv
_ZNKSt16initializer_listISt4pairIKNSt7__cxx1112basic_stringIcSt11char_traitsIcESaIcEEES6_EE3endEv
_ZNSt10_HashtableINSt7__cxx1112basic_stringIcSt11char_traitsIcESaIcEEESt4pairIKS5_S5_ESaIS8_ENSt8__detail10_Select1stESt8equal_toIS5_ESt4hashIS5_ENSA_18_Mod_range_hashingENSA_20_Default_ranged_hashENSA_20_Prime_rehash_policyENSA_17_Hashtable_traitsILb1ELb0ELb1EEEEC2IPKS8_EET_SP_mRKSF_RKSG_RKSH_RKSD_RKSB_RKS9_
_ZNKSt16initializer_listISt4pairIKNSt7__cxx1112basic_stringIcSt11char_traitsIcESaIcEEES6_EE4sizeEv
_ZNSt10_HashtableINSt7__cxx1112basic_stringIcSt11char_traitsIcESaIcEEESt4pairIKS5_S5_ESaIS8_ENSt8__detail10_Select1stESt8equal_toIS5_ESt4hashIS5_ENSA_18_Mod_range_hashingENSA_20_Default_ranged_hashENSA_20_Prime_rehash_policyENSA_17_Hashtable_traitsILb1ELb0ELb1EEEEC2ERKSF_RKSG_RKSH_RKSD_RKSB_RKS9_
_ZNSt8__detail13__distance_fwIPKSt4pairIKNSt7__cxx1112basic_stringIcSt11char_traitsIcESaIcEEES7_EEENSt15iterator_traitsIT_E15difference_typeESD_SD_
_ZNKSt8__detail20_Prime_rehash_policy11_M_next_bktEm
_ZSt3maxImERKT_S2_S2_
_ZNKSt8__detail20_Prime_rehash_policy19_M_bkt_for_elementsEm
_ZNSt10_HashtableINSt7__cxx1112basic_stringIcSt11char_traitsIcESaIcEEESt4pairIKS5_S5_ESaIS8_ENSt8__detail10_Select1stESt8equal_toIS5_ESt4hashIS5_ENSA_18_Mod_range_hashingENSA_20_Default_ranged_hashENSA_20_Prime_rehash_policyENSA_17_Hashtable_traitsILb1ELb0ELb1EEEE19_M_allocate_bucketsEm
_ZNSt8__detail12_Insert_baseINSt7__cxx1112basic_stringIcSt11char_traitsIcESaIcEEESt4pairIKS6_S6_ESaIS9_ENS_10_Select1stESt8equal_toIS6_ESt4hashIS6_ENS_18_Mod_range_hashingENS_20_Default_ranged_hashENS_20_Prime_rehash_policyENS_17_Hashtable_traitsILb1ELb0ELb1EEEE6insertERKS9_
_ZNSt8__detail15_Hashtable_baseINSt7__cxx1112basic_stringIcSt11char_traitsIcESaIcEEESt4pairIKS6_S6_ENS_10_Select1stESt8equal_toIS6_ESt4hashIS6_ENS_18_Mod_range_hashingENS_20_Default_ranged_hashENS_17_Hashtable_traitsILb1ELb0ELb1EEEEC2ERKSA_RKSE_RKSF_RKSG_RKSC_
_ZNSaINSt8__detail10_Hash_nodeISt4pairIKNSt7__cxx1112basic_stringIcSt11char_traitsIcESaIcEEES7_ELb1EEEEC2IS9_EERKSaIT_E
_ZNSt8__detail16_Hashtable_allocISaINS_10_Hash_nodeISt4pairIKNSt7__cxx1112basic_stringIcSt11char_traitsIcESaIcEEES8_ELb1EEEEEC2ISC_EEOT_
_ZNSaINSt8__detail10_Hash_nodeISt4pairIKNSt7__cxx1112basic_stringIcSt11char_traitsIcESaIcEEES7_ELb1EEEED2Ev
_ZNSt8__detail15_Hash_node_baseC2Ev
_ZNSt8__detail20_Prime_rehash_policyC2Ef
_ZNSt8__detail15_Hash_code_baseINSt7__cxx1112basic_stringIcSt11char_traitsIcESaIcEEESt4pairIKS6_S6_ENS_10_Select1stESt4hashIS6_ENS_18_Mod_range_hashingENS_20_Default_ranged_hashELb1EEC2ERKSA_RKSC_RKSD_RKSE_
_ZNSt8__detail21_Hashtable_ebo_helperILi0ESt8equal_toINSt7__cxx1112basic_stringIcSt11char_traitsIcESaIcEEEELb1EEC2IRKS8_EEOT_
_ZNSt8__detail21_Hashtable_ebo_helperILi0ENS_10_Select1stELb1EEC2IRKS1_EEOT_
_ZNSt8__detail21_Hashtable_ebo_helperILi1ESt4hashINSt7__cxx1112basic_stringIcSt11char_traitsIcESaIcEEEELb1EEC2IRKS8_EEOT_
_ZNSt8__detail21_Hashtable_ebo_helperILi2ENS_18_Mod_range_hashingELb1EEC2IRKS1_EEOT_
_ZSt7forwardIRKNSt8__detail10_Select1stEEOT_RNSt16remove_referenceIS4_E4typeE
_ZSt7forwardIRKSt4hashINSt7__cxx1112basic_stringIcSt11char_traitsIcESaIcEEEEEOT_RNSt16remove_referenceISA_E4typeE
_ZSt7forwardIRKNSt8__detail18_Mod_range_hashingEEOT_RNSt16remove_referenceIS4_E4typeE
_ZSt7forwardIRKSt8equal_toINSt7__cxx1112basic_stringIcSt11char_traitsIcESaIcEEEEEOT_RNSt16remove_referenceISA_E4typeE
_ZN9__gnu_cxx13new_allocatorINSt8__detail10_Hash_nodeISt4pairIKNSt7__cxx1112basic_stringIcSt11char_traitsIcESaIcEEES9_ELb1EEEEC2Ev
_ZSt7forwardISaINSt8__detail10_Hash_nodeISt4pairIKNSt7__cxx1112basic_stringIcSt11char_traitsIcESaIcEEES8_ELb1EEEEEOT_RNSt16remove_referenceISD_E4typeE
_ZNSt8__detail21_Hashtable_ebo_helperILi0ESaINS_10_Hash_nodeISt4pairIKNSt7__cxx1112basic_stringIcSt11char_traitsIcESaIcEEES8_ELb1EEEELb1EEC2ISC_EEOT_
_ZN9__gnu_cxx13new_allocatorINSt8__detail10_Hash_nodeISt4pairIKNSt7__cxx1112basic_stringIcSt11char_traitsIcESaIcEEES9_ELb1EEEEC2ERKSD_
_ZN9__gnu_cxx13new_allocatorINSt8__detail10_Hash_nodeISt4pairIKNSt7__cxx1112basic_stringIcSt11char_traitsIcESaIcEEES9_ELb1EEEED2Ev
_ZNSt8__detail13__distance_fwIPKSt4pairIKNSt7__cxx1112basic_stringIcSt11char_traitsIcESaIcEEES7_EEENSt15iterator_traitsIT_E15difference_typeESD_SD_St20forward_iterator_tag
_ZSt19__iterator_categoryIPKSt4pairIKNSt7__cxx1112basic_stringIcSt11char_traitsIcESaIcEEES6_EENSt15iterator_traitsIT_E17iterator_categoryERKSC_
_ZSt8distanceIPKSt4pairIKNSt7__cxx1112basic_stringIcSt11char_traitsIcESaIcEEES6_EENSt15iterator_traitsIT_E15difference_typeESC_SC_
_ZSt10__distanceIPKSt4pairIKNSt7__cxx1112basic_stringIcSt11char_traitsIcESaIcEEES6_EENSt15iterator_traitsIT_E15difference_typeESC_SC_St26random_access_iterator_tag
llvm.ceil.f64
_ZNSt8__detail16_Hashtable_allocISaINS_10_Hash_nodeISt4pairIKNSt7__cxx1112basic_stringIcSt11char_traitsIcESaIcEEES8_ELb1EEEEE19_M_allocate_bucketsEm
_ZNSt8__detail16_Hashtable_allocISaINS_10_Hash_nodeISt4pairIKNSt7__cxx1112basic_stringIcSt11char_traitsIcESaIcEEES8_ELb1EEEEE17_M_node_allocatorEv
_ZNSaIPNSt8__detail15_Hash_node_baseEEC2INS_10_Hash_nodeISt4pairIKNSt7__cxx1112basic_stringIcSt11char_traitsIcESaIcEEESB_ELb1EEEEERKSaIT_E
_ZNSt16allocator_traitsISaIPNSt8__detail15_Hash_node_baseEEE8allocateERS3_m
_ZSt12__to_addressIPNSt8__detail15_Hash_node_baseEEPT_S4_
_ZNSaIPNSt8__detail15_Hash_node_baseEED2Ev
_ZNSt8__detail21_Hashtable_ebo_helperILi0ESaINS_10_Hash_nodeISt4pairIKNSt7__cxx1112basic_stringIcSt11char_traitsIcESaIcEEES8_ELb1EEEELb1EE6_S_getERSD_
_ZN9__gnu_cxx13new_allocatorIPNSt8__detail15_Hash_node_baseEEC2Ev
_ZN9__gnu_cxx13new_allocatorIPNSt8__detail15_Hash_node_baseEE8allocateEmPKv
_ZNK9__gnu_cxx13new_allocatorIPNSt8__detail15_Hash_node_baseEE8max_sizeEv
_ZN9__gnu_cxx13new_allocatorIPNSt8__detail15_Hash_node_baseEED2Ev
_ZNSt8__detail12_Insert_baseINSt7__cxx1112basic_stringIcSt11char_traitsIcESaIcEEESt4pairIKS6_S6_ESaIS9_ENS_10_Select1stESt8equal_toIS6_ESt4hashIS6_ENS_18_Mod_range_hashingENS_20_Default_ranged_hashENS_20_Prime_rehash_policyENS_17_Hashtable_traitsILb1ELb0ELb1EEEE20_M_conjure_hashtableEv
_ZNSt8__detail10_AllocNodeISaINS_10_Hash_nodeISt4pairIKNSt7__cxx1112basic_stringIcSt11char_traitsIcESaIcEEES8_ELb1EEEEEC2ERNS_16_Hashtable_allocISC_EE
_ZNSt10_HashtableINSt7__cxx1112basic_stringIcSt11char_traitsIcESaIcEEESt4pairIKS5_S5_ESaIS8_ENSt8__detail10_Select1stESt8equal_toIS5_ESt4hashIS5_ENSA_18_Mod_range_hashingENSA_20_Default_ranged_hashENSA_20_Prime_rehash_policyENSA_17_Hashtable_traitsILb1ELb0ELb1EEEE9_M_insertIRKS8_NSA_10_AllocNodeISaINSA_10_Hash_nodeIS8_Lb1EEEEEEEES6_INSA_14_Node_iteratorIS8_Lb0ELb1EEEbEOT_RKT0_St17integral_constantIbLb1EEm
_ZNSt8__detail15_Hash_code_baseINSt7__cxx1112basic_stringIcSt11char_traitsIcESaIcEEESt4pairIKS6_S6_ENS_10_Select1stESt4hashIS6_ENS_18_Mod_range_hashingENS_20_Default_ranged_hashELb1EE10_M_extractEv
_ZNKSt8__detail10_Select1stclIRKSt4pairIKNSt7__cxx1112basic_stringIcSt11char_traitsIcESaIcEEES8_EEEDTclsr3stdE3getILi0EEclsr3stdE7forwardIT_Efp_EEEOSD_
_ZNKSt8__detail15_Hash_code_baseINSt7__cxx1112basic_stringIcSt11char_traitsIcESaIcEEESt4pairIKS6_S6_ENS_10_Select1stESt4hashIS6_ENS_18_Mod_range_hashingENS_20_Default_ranged_hashELb1EE12_M_hash_codeERS8_
_ZNKSt10_HashtableINSt7__cxx1112basic_stringIcSt11char_traitsIcESaIcEEESt4pairIKS5_S5_ESaIS8_ENSt8__detail10_Select1stESt8equal_toIS5_ESt4hashIS5_ENSA_18_Mod_range_hashingENSA_20_Default_ranged_hashENSA_20_Prime_rehash_policyENSA_17_Hashtable_traitsILb1ELb0ELb1EEEE15_M_bucket_indexERS7_m
_ZNKSt10_HashtableINSt7__cxx1112basic_stringIcSt11char_traitsIcESaIcEEESt4pairIKS5_S5_ESaIS8_ENSt8__detail10_Select1stESt8equal_toIS5_ESt4hashIS5_ENSA_18_Mod_range_hashingENSA_20_Default_ranged_hashENSA_20_Prime_rehash_policyENSA_17_Hashtable_traitsILb1ELb0ELb1EEEE12_M_find_nodeEmRS7_m
_ZSt9make_pairINSt8__detail14_Node_iteratorISt4pairIKNSt7__cxx1112basic_stringIcSt11char_traitsIcESaIcEEES8_ELb0ELb1EEEbES2_INSt17__decay_and_stripIT_E6__typeENSC_IT0_E6__typeEEOSD_OSG_
_ZNSt8__detail14_Node_iteratorISt4pairIKNSt7__cxx1112basic_stringIcSt11char_traitsIcESaIcEEES7_ELb0ELb1EEC2EPNS_10_Hash_nodeIS9_Lb1EEE
_ZNKSt8__detail10_AllocNodeISaINS_10_Hash_nodeISt4pairIKNSt7__cxx1112basic_stringIcSt11char_traitsIcESaIcEEES8_ELb1EEEEEclIRKSA_EEPSB_OT_
_ZSt7forwardIRKSt4pairIKNSt7__cxx1112basic_stringIcSt11char_traitsIcESaIcEEES6_EEOT_RNSt16remove_referenceISB_E4typeE
_ZNSt10_HashtableINSt7__cxx1112basic_stringIcSt11char_traitsIcESaIcEEESt4pairIKS5_S5_ESaIS8_ENSt8__detail10_Select1stESt8equal_toIS5_ESt4hashIS5_ENSA_18_Mod_range_hashingENSA_20_Default_ranged_hashENSA_20_Prime_rehash_policyENSA_17_Hashtable_traitsILb1ELb0ELb1EEEE21_M_insert_unique_nodeEmmPNSA_10_Hash_nodeIS8_Lb1EEEm
_ZNSt4pairINSt8__detail14_Node_iteratorIS_IKNSt7__cxx1112basic_stringIcSt11char_traitsIcESaIcEEES7_ELb0ELb1EEEbEC2ISA_bLb1EEEOT_OT0_
_ZNSt8__detail21_Hashtable_ebo_helperILi0ENS_10_Select1stELb1EE6_S_getERS2_
_ZSt3getILm0EKNSt7__cxx1112basic_stringIcSt11char_traitsIcESaIcEEES5_ERKNSt13tuple_elementIXT_ESt4pairIT0_T1_EE4typeERKSB_
_ZNSt10__pair_getILm0EE11__const_getIKNSt7__cxx1112basic_stringIcSt11char_traitsIcESaIcEEES7_EERKT_RKSt4pairIS9_T0_E
_ZNKSt8__detail15_Hash_code_baseINSt7__cxx1112basic_stringIcSt11char_traitsIcESaIcEEESt4pairIKS6_S6_ENS_10_Select1stESt4hashIS6_ENS_18_Mod_range_hashingENS_20_Default_ranged_hashELb1EE5_M_h1Ev
_ZNKSt4hashINSt7__cxx1112basic_stringIcSt11char_traitsIcESaIcEEEEclERKS5_
_ZNSt8__detail21_Hashtable_ebo_helperILi1ESt4hashINSt7__cxx1112basic_stringIcSt11char_traitsIcESaIcEEEELb1EE7_S_cgetERKS9_
_ZNSt10_Hash_impl4hashEPKvmm
_ZNKSt7__cxx1112basic_stringIcSt11char_traitsIcESaIcEE6lengthEv
_ZSt11_Hash_bytesPKvmm
_ZNKSt8__detail15_Hash_code_baseINSt7__cxx1112basic_stringIcSt11char_traitsIcESaIcEEESt4pairIKS6_S6_ENS_10_Select1stESt4hashIS6_ENS_18_Mod_range_hashingENS_20_Default_ranged_hashELb1EE15_M_bucket_indexERS8_mm
_ZNKSt8__detail15_Hash_code_baseINSt7__cxx1112basic_stringIcSt11char_traitsIcESaIcEEESt4pairIKS6_S6_ENS_10_Select1stESt4hashIS6_ENS_18_Mod_range_hashingENS_20_Default_ranged_hashELb1EE5_M_h2Ev
_ZNKSt8__detail18_Mod_range_hashingclEmm
_ZNSt8__detail21_Hashtable_ebo_helperILi2ENS_18_Mod_range_hashingELb1EE7_S_cgetERKS2_
_ZNKSt10_HashtableINSt7__cxx1112basic_stringIcSt11char_traitsIcESaIcEEESt4pairIKS5_S5_ESaIS8_ENSt8__detail10_Select1stESt8equal_toIS5_ESt4hashIS5_ENSA_18_Mod_range_hashingENSA_20_Default_ranged_hashENSA_20_Prime_rehash_policyENSA_17_Hashtable_traitsILb1ELb0ELb1EEEE19_M_find_before_nodeEmRS7_m
_ZNKSt8__detail15_Hashtable_baseINSt7__cxx1112basic_stringIcSt11char_traitsIcESaIcEEESt4pairIKS6_S6_ENS_10_Select1stESt8equal_toIS6_ESt4hashIS6_ENS_18_Mod_range_hashingENS_20_Default_ranged_hashENS_17_Hashtable_traitsILb1ELb0ELb1EEEE9_M_equalsERS8_mPNS_10_Hash_nodeIS9_Lb1EEE
_ZNKSt10_HashtableINSt7__cxx1112basic_stringIcSt11char_traitsIcESaIcEEESt4pairIKS5_S5_ESaIS8_ENSt8__detail10_Select1stESt8equal_toIS5_ESt4hashIS5_ENSA_18_Mod_range_hashingENSA_20_Default_ranged_hashENSA_20_Prime_rehash_policyENSA_17_Hashtable_traitsILb1ELb0ELb1EEEE15_M_bucket_indexEPNSA_10_Hash_nodeIS8_Lb1EEE
_ZNKSt8__detail10_Hash_nodeISt4pairIKNSt7__cxx1112basic_stringIcSt11char_traitsIcESaIcEEES7_ELb1EE7_M_nextEv
_ZNSt8__detail13_Equal_helperINSt7__cxx1112basic_stringIcSt11char_traitsIcESaIcEEESt4pairIKS6_S6_ENS_10_Select1stESt8equal_toIS6_EmLb1EE9_S_equalsERKSC_RKSA_RS8_mPNS_10_Hash_nodeIS9_Lb1EEE
_ZNKSt8__detail15_Hashtable_baseINSt7__cxx1112basic_stringIcSt11char_traitsIcESaIcEEESt4pairIKS6_S6_ENS_10_Select1stESt8equal_toIS6_ESt4hashIS6_ENS_18_Mod_range_hashingENS_20_Default_ranged_hashENS_17_Hashtable_traitsILb1ELb0ELb1EEEE5_M_eqEv
_ZNKSt8__detail15_Hash_code_baseINSt7__cxx1112basic_stringIcSt11char_traitsIcESaIcEEESt4pairIKS6_S6_ENS_10_Select1stESt4hashIS6_ENS_18_Mod_range_hashingENS_20_Default_ranged_hashELb1EE10_M_extractEv
_ZNKSt8equal_toINSt7__cxx1112basic_stringIcSt11char_traitsIcESaIcEEEEclERKS5_S8_
_ZNKSt8__detail10_Select1stclIRSt4pairIKNSt7__cxx1112basic_stringIcSt11char_traitsIcESaIcEEES8_EEEDTclsr3stdE3getILi0EEclsr3stdE7forwardIT_Efp_EEEOSC_
_ZNSt8__detail21_Hash_node_value_baseISt4pairIKNSt7__cxx1112basic_stringIcSt11char_traitsIcESaIcEEES7_EE4_M_vEv
_ZSt3getILm0EKNSt7__cxx1112basic_stringIcSt11char_traitsIcESaIcEEES5_ERNSt13tuple_elementIXT_ESt4pairIT0_T1_EE4typeERSB_
_ZSt7forwardIRSt4pairIKNSt7__cxx1112basic_stringIcSt11char_traitsIcESaIcEEES6_EEOT_RNSt16remove_referenceISA_E4typeE
_ZNSt10__pair_getILm0EE5__getIKNSt7__cxx1112basic_stringIcSt11char_traitsIcESaIcEEES7_EERT_RSt4pairIS9_T0_E
_ZNSt8__detail21_Hash_node_value_baseISt4pairIKNSt7__cxx1112basic_stringIcSt11char_traitsIcESaIcEEES7_EE9_M_valptrEv
_ZN9__gnu_cxx16__aligned_bufferISt4pairIKNSt7__cxx1112basic_stringIcSt11char_traitsIcESaIcEEES7_EE6_M_ptrEv
_ZN9__gnu_cxx16__aligned_bufferISt4pairIKNSt7__cxx1112basic_stringIcSt11char_traitsIcESaIcEEES7_EE7_M_addrEv
_ZNSt8__detail21_Hashtable_ebo_helperILi0ESt8equal_toINSt7__cxx1112basic_stringIcSt11char_traitsIcESaIcEEEELb1EE7_S_cgetERKS9_
_ZNSt8__detail21_Hashtable_ebo_helperILi0ENS_10_Select1stELb1EE7_S_cgetERKS2_
_ZNKSt8__detail15_Hash_code_baseINSt7__cxx1112basic_stringIcSt11char_traitsIcESaIcEEESt4pairIKS6_S6_ENS_10_Select1stESt4hashIS6_ENS_18_Mod_range_hashingENS_20_Default_ranged_hashELb1EE15_M_bucket_indexEPKNS_10_Hash_nodeIS9_Lb1EEEm
_ZSt7forwardINSt8__detail14_Node_iteratorISt4pairIKNSt7__cxx1112basic_stringIcSt11char_traitsIcESaIcEEES8_ELb0ELb1EEEEOT_RNSt16remove_referenceISC_E4typeE
_ZNSt8__detail19_Node_iterator_baseISt4pairIKNSt7__cxx1112basic_stringIcSt11char_traitsIcESaIcEEES7_ELb1EEC2EPNS_10_Hash_nodeIS9_Lb1EEE
_ZNSt8__detail16_Hashtable_allocISaINS_10_Hash_nodeISt4pairIKNSt7__cxx1112basic_stringIcSt11char_traitsIcESaIcEEES8_ELb1EEEEE16_M_allocate_nodeIJRKSA_EEEPSB_DpOT_
_ZNSt16allocator_traitsISaINSt8__detail10_Hash_nodeISt4pairIKNSt7__cxx1112basic_stringIcSt11char_traitsIcESaIcEEES8_ELb1EEEEE8allocateERSC_m
_ZSt12__to_addressINSt8__detail10_Hash_nodeISt4pairIKNSt7__cxx1112basic_stringIcSt11char_traitsIcESaIcEEES8_ELb1EEEEPT_SD_
_ZNSt8__detail10_Hash_nodeISt4pairIKNSt7__cxx1112basic_stringIcSt11char_traitsIcESaIcEEES7_ELb1EEC2Ev
_ZNSt16allocator_traitsISaINSt8__detail10_Hash_nodeISt4pairIKNSt7__cxx1112basic_stringIcSt11char_traitsIcESaIcEEES8_ELb1EEEEE9constructISA_JRKSA_EEEvRSC_PT_DpOT0_
_ZNSt16allocator_traitsISaINSt8__detail10_Hash_nodeISt4pairIKNSt7__cxx1112basic_stringIcSt11char_traitsIcESaIcEEES8_ELb1EEEEE10deallocateERSC_PSB_m
_ZN9__gnu_cxx13new_allocatorINSt8__detail10_Hash_nodeISt4pairIKNSt7__cxx1112basic_stringIcSt11char_traitsIcESaIcEEES9_ELb1EEEE8allocateEmPKv
_ZNK9__gnu_cxx13new_allocatorINSt8__detail10_Hash_nodeISt4pairIKNSt7__cxx1112basic_stringIcSt11char_traitsIcESaIcEEES9_ELb1EEEE8max_sizeEv
_ZNSt8__detail21_Hash_node_value_baseISt4pairIKNSt7__cxx1112basic_stringIcSt11char_traitsIcESaIcEEES7_EEC2Ev
_ZN9__gnu_cxx13new_allocatorINSt8__detail10_Hash_nodeISt4pairIKNSt7__cxx1112basic_stringIcSt11char_traitsIcESaIcEEES9_ELb1EEEE9constructISB_JRKSB_EEEvPT_DpOT0_
_ZNSt4pairIKNSt7__cxx1112basic_stringIcSt11char_traitsIcESaIcEEES5_EC2ERKS7_
_ZN9__gnu_cxx13new_allocatorINSt8__detail10_Hash_nodeISt4pairIKNSt7__cxx1112basic_stringIcSt11char_traitsIcESaIcEEES9_ELb1EEEE10deallocateEPSC_m
_ZNKSt8__detail20_Prime_rehash_policy8_M_stateEv
_ZNKSt8__detail20_Prime_rehash_policy14_M_need_rehashEmmm
_ZNSt10_HashtableINSt7__cxx1112basic_stringIcSt11char_traitsIcESaIcEEESt4pairIKS5_S5_ESaIS8_ENSt8__detail10_Select1stESt8equal_toIS5_ESt4hashIS5_ENSA_18_Mod_range_hashingENSA_20_Default_ranged_hashENSA_20_Prime_rehash_policyENSA_17_Hashtable_traitsILb1ELb0ELb1EEEE9_M_rehashEmRKm
_ZNKSt8__detail15_Hash_code_baseINSt7__cxx1112basic_stringIcSt11char_traitsIcESaIcEEESt4pairIKS6_S6_ENS_10_Select1stESt4hashIS6_ENS_18_Mod_range_hashingENS_20_Default_ranged_hashELb1EE13_M_store_codeEPNS_10_Hash_nodeIS9_Lb1EEEm
_ZNSt10_HashtableINSt7__cxx1112basic_stringIcSt11char_traitsIcESaIcEEESt4pairIKS5_S5_ESaIS8_ENSt8__detail10_Select1stESt8equal_toIS5_ESt4hashIS5_ENSA_18_Mod_range_hashingENSA_20_Default_ranged_hashENSA_20_Prime_rehash_policyENSA_17_Hashtable_traitsILb1ELb0ELb1EEEE22_M_insert_bucket_beginEmPNSA_10_Hash_nodeIS8_Lb1EEE
_ZNSt8__detail16_Hashtable_allocISaINS_10_Hash_nodeISt4pairIKNSt7__cxx1112basic_stringIcSt11char_traitsIcESaIcEEES8_ELb1EEEEE18_M_deallocate_nodeEPSB_
_ZNSt10_HashtableINSt7__cxx1112basic_stringIcSt11char_traitsIcESaIcEEESt4pairIKS5_S5_ESaIS8_ENSt8__detail10_Select1stESt8equal_toIS5_ESt4hashIS5_ENSA_18_Mod_range_hashingENSA_20_Default_ranged_hashENSA_20_Prime_rehash_policyENSA_17_Hashtable_traitsILb1ELb0ELb1EEEE13_M_rehash_auxEmSt17integral_constantIbLb1EE
_ZNSt8__detail20_Prime_rehash_policy8_M_resetEm
_ZNKSt10_HashtableINSt7__cxx1112basic_stringIcSt11char_traitsIcESaIcEEESt4pairIKS5_S5_ESaIS8_ENSt8__detail10_Select1stESt8equal_toIS5_ESt4hashIS5_ENSA_18_Mod_range_hashingENSA_20_Default_ranged_hashENSA_20_Prime_rehash_policyENSA_17_Hashtable_traitsILb1ELb0ELb1EEEE8_M_beginEv
_ZNSt10_HashtableINSt7__cxx1112basic_stringIcSt11char_traitsIcESaIcEEESt4pairIKS5_S5_ESaIS8_ENSt8__detail10_Select1stESt8equal_toIS5_ESt4hashIS5_ENSA_18_Mod_range_hashingENSA_20_Default_ranged_hashENSA_20_Prime_rehash_policyENSA_17_Hashtable_traitsILb1ELb0ELb1EEEE21_M_deallocate_bucketsEv
_ZNSt10_HashtableINSt7__cxx1112basic_stringIcSt11char_traitsIcESaIcEEESt4pairIKS5_S5_ESaIS8_ENSt8__detail10_Select1stESt8equal_toIS5_ESt4hashIS5_ENSA_18_Mod_range_hashingENSA_20_Default_ranged_hashENSA_20_Prime_rehash_policyENSA_17_Hashtable_traitsILb1ELb0ELb1EEEE21_M_deallocate_bucketsEPPNSA_15_Hash_node_baseEm
_ZNKSt10_HashtableINSt7__cxx1112basic_stringIcSt11char_traitsIcESaIcEEESt4pairIKS5_S5_ESaIS8_ENSt8__detail10_Select1stESt8equal_toIS5_ESt4hashIS5_ENSA_18_Mod_range_hashingENSA_20_Default_ranged_hashENSA_20_Prime_rehash_policyENSA_17_Hashtable_traitsILb1ELb0ELb1EEEE21_M_uses_single_bucketEPPNSA_15_Hash_node_baseE
_ZNSt8__detail16_Hashtable_allocISaINS_10_Hash_nodeISt4pairIKNSt7__cxx1112basic_stringIcSt11char_traitsIcESaIcEEES8_ELb1EEEEE21_M_deallocate_bucketsEPPNS_15_Hash_node_baseEm
_ZNSt14pointer_traitsIPPNSt8__detail15_Hash_node_baseEE10pointer_toERS2_
_ZNSt16allocator_traitsISaIPNSt8__detail15_Hash_node_baseEEE10deallocateERS3_PS2_m
_ZSt9addressofIPNSt8__detail15_Hash_node_baseEEPT_RS3_
_ZSt11__addressofIPNSt8__detail15_Hash_node_baseEEPT_RS3_
_ZN9__gnu_cxx13new_allocatorIPNSt8__detail15_Hash_node_baseEE10deallocateEPS3_m
_ZNSt16allocator_traitsISaINSt8__detail10_Hash_nodeISt4pairIKNSt7__cxx1112basic_stringIcSt11char_traitsIcESaIcEEES8_ELb1EEEEE7destroyISA_EEvRSC_PT_
_ZNSt8__detail16_Hashtable_allocISaINS_10_Hash_nodeISt4pairIKNSt7__cxx1112basic_stringIcSt11char_traitsIcESaIcEEES8_ELb1EEEEE22_M_deallocate_node_ptrEPSB_
_ZN9__gnu_cxx13new_allocatorINSt8__detail10_Hash_nodeISt4pairIKNSt7__cxx1112basic_stringIcSt11char_traitsIcESaIcEEES9_ELb1EEEE7destroyISB_EEvPT_
_ZNSt14pointer_traitsIPNSt8__detail10_Hash_nodeISt4pairIKNSt7__cxx1112basic_stringIcSt11char_traitsIcESaIcEEES8_ELb1EEEE10pointer_toERSB_
_ZSt9addressofINSt8__detail10_Hash_nodeISt4pairIKNSt7__cxx1112basic_stringIcSt11char_traitsIcESaIcEEES8_ELb1EEEEPT_RSC_
_ZSt11__addressofINSt8__detail10_Hash_nodeISt4pairIKNSt7__cxx1112basic_stringIcSt11char_traitsIcESaIcEEES8_ELb1EEEEPT_RSC_
_ZNSt10_HashtableINSt7__cxx1112basic_stringIcSt11char_traitsIcESaIcEEESt4pairIKS5_S5_ESaIS8_ENSt8__detail10_Select1stESt8equal_toIS5_ESt4hashIS5_ENSA_18_Mod_range_hashingENSA_20_Default_ranged_hashENSA_20_Prime_rehash_policyENSA_17_Hashtable_traitsILb1ELb0ELb1EEEE5clearEv
_ZNSt8__detail16_Hashtable_allocISaINS_10_Hash_nodeISt4pairIKNSt7__cxx1112basic_stringIcSt11char_traitsIcESaIcEEES8_ELb1EEEEED2Ev
_ZNSt8__detail16_Hashtable_allocISaINS_10_Hash_nodeISt4pairIKNSt7__cxx1112basic_stringIcSt11char_traitsIcESaIcEEES8_ELb1EEEEE19_M_deallocate_nodesEPSB_
_ZNSt8__detail21_Hashtable_ebo_helperILi0ESaINS_10_Hash_nodeISt4pairIKNSt7__cxx1112basic_stringIcSt11char_traitsIcESaIcEEES8_ELb1EEEELb1EED2Ev
_ZNSt10_HashtableINSt7__cxx1112basic_stringIcSt11char_traitsIcESaIcEEESt4pairIKS5_S5_ESaIS8_ENSt8__detail10_Select1stESt8equal_toIS5_ESt4hashIS5_ENSA_18_Mod_range_hashingENSA_20_Default_ranged_hashENSA_20_Prime_rehash_policyENSA_17_Hashtable_traitsILb1ELb0ELb1EEEED2Ev
_ZN9__gnu_cxx13new_allocatorISt4pairIKNSt7__cxx1112basic_stringIcSt11char_traitsIcESaIcEEES7_EED2Ev
_ZNSt15__uniq_ptr_implIN13jaegertracing7metrics7CounterESt14default_deleteIS2_EEC2Ev
_ZSt7forwardIRA10_KcEOT_RNSt16remove_referenceIS3_E4typeE
_ZSt7forwardIRA9_KcEOT_RNSt16remove_referenceIS3_E4typeE
_ZSt7forwardIRA7_KcEOT_RNSt16remove_referenceIS3_E4typeE
_ZSt7forwardIRA3_KcEOT_RNSt16remove_referenceIS3_E4typeE
_ZSt7forwardIRA4_KcEOT_RNSt16remove_referenceIS3_E4typeE
_ZNSt10unique_ptrIN13jaegertracing7metrics7CounterESt14default_deleteIS2_EE11get_deleterEv
_ZNKSt14default_deleteIN13jaegertracing7metrics7CounterEEclEPS2_
_ZSt4moveIRPN13jaegertracing7metrics7CounterEEONSt16remove_referenceIT_E4typeEOS6_
_ZNSt15__uniq_ptr_implIN13jaegertracing7metrics7CounterESt14default_deleteIS2_EE10_M_deleterEv
_ZSt3getILm1EJPN13jaegertracing7metrics7CounterESt14default_deleteIS2_EEERNSt13tuple_elementIXT_ESt5tupleIJDpT0_EEE4typeERSA_
_ZSt12__get_helperILm1ESt14default_deleteIN13jaegertracing7metrics7CounterEEJEERT0_RSt11_Tuple_implIXT_EJS5_DpT1_EE
_ZNSt11_Tuple_implILm1EJSt14default_deleteIN13jaegertracing7metrics7CounterEEEE7_M_headERS5_
_ZNSt10_Head_baseILm1ESt14default_deleteIN13jaegertracing7metrics7CounterEELb1EE7_M_headERS5_
_ZNSt10unique_ptrIN13jaegertracing7metrics5GaugeESt14default_deleteIS2_EE11get_deleterEv
_ZNKSt14default_deleteIN13jaegertracing7metrics5GaugeEEclEPS2_
_ZSt4moveIRPN13jaegertracing7metrics5GaugeEEONSt16remove_referenceIT_E4typeEOS6_
_ZNSt15__uniq_ptr_implIN13jaegertracing7metrics5GaugeESt14default_deleteIS2_EE10_M_deleterEv
_ZSt3getILm1EJPN13jaegertracing7metrics5GaugeESt14default_deleteIS2_EEERNSt13tuple_elementIXT_ESt5tupleIJDpT0_EEE4typeERSA_
_ZSt12__get_helperILm1ESt14default_deleteIN13jaegertracing7metrics5GaugeEEJEERT0_RSt11_Tuple_implIXT_EJS5_DpT1_EE
_ZNSt11_Tuple_implILm1EJSt14default_deleteIN13jaegertracing7metrics5GaugeEEEE7_M_headERS5_
_ZNSt10_Head_baseILm1ESt14default_deleteIN13jaegertracing7metrics5GaugeEELb1EE7_M_headERS5_
_ZNSt14_Sp_ebo_helperILi0ESaIN13jaegertracing7metrics7MetricsEELb1EED2Ev
_ZN9__gnu_cxx13new_allocatorIN13jaegertracing7metrics7MetricsEED2Ev
_ZNSt16allocator_traitsISaIN13jaegertracing7metrics7MetricsEEE7destroyIS2_EEvRS3_PT_
_ZNSt23_Sp_counted_ptr_inplaceIN13jaegertracing7metrics7MetricsESaIS2_ELN9__gnu_cxx12_Lock_policyE2EE5_Impl8_M_allocEv
_ZN9__gnu_cxx13new_allocatorIN13jaegertracing7metrics7MetricsEE7destroyIS3_EEvPT_
_ZN13jaegertracing7metrics7MetricsD1Ev
_ZNSt14_Sp_ebo_helperILi0ESaIN13jaegertracing7metrics7MetricsEELb1EE6_S_getERS4_
_ZNSt19_Sp_make_shared_tag5_S_tiEv
_ZNKSt9type_infoeqERKS_
strcmp
_ZN9__gnu_cxx16__aligned_bufferIN13jaegertracing7metrics7MetricsEE6_M_ptrEv
_ZN9__gnu_cxx16__aligned_bufferIN13jaegertracing7metrics7MetricsEE7_M_addrEv
_ZNSt16allocator_traitsISaISt23_Sp_counted_ptr_inplaceIN13jaegertracing7metrics7MetricsESaIS3_ELN9__gnu_cxx12_Lock_policyE2EEEE10deallocateERS8_PS7_m
_ZN9__gnu_cxx13new_allocatorISt23_Sp_counted_ptr_inplaceIN13jaegertracing7metrics7MetricsESaIS4_ELNS_12_Lock_policyE2EEE10deallocateEPS7_m
_ZN9__gnu_cxx13new_allocatorISt23_Sp_counted_ptr_inplaceIN13jaegertracing7metrics7MetricsESaIS4_ELNS_12_Lock_policyE2EEED2Ev
_ZN9__gnu_cxx13new_allocatorIN13jaegertracing7metrics7MetricsEEC2Ev
_ZNSt7__cxx1112basic_stringIcSt11char_traitsIcESaIcEE7reserveEm
_ZSt9transformIN9__gnu_cxx17__normal_iteratorIPKcNSt7__cxx1112basic_stringIcSt11char_traitsIcESaIcEEEEESt20back_insert_iteratorIS9_EZNK13jaegertracing8samplers6Config11makeSamplerERKS9_RNSD_7logging6LoggerERNSD_7metrics7MetricsEEUlcE_ET0_T_SQ_SP_T1_
_ZSt5beginINSt7__cxx1112basic_stringIcSt11char_traitsIcESaIcEEEEDTcldtfp_5beginEERKT_
_ZSt3endINSt7__cxx1112basic_stringIcSt11char_traitsIcESaIcEEEEDTcldtfp_3endEERKT_
_ZSt13back_inserterINSt7__cxx1112basic_stringIcSt11char_traitsIcESaIcEEEESt20back_insert_iteratorIT_ERS7_
_ZN13jaegertracing8samplers12ConstSamplerC2Eb
_ZNSt10unique_ptrIN13jaegertracing8samplers12ConstSamplerESt14default_deleteIS2_EEC2IS4_vEEPS2_
_ZNSt10unique_ptrIN13jaegertracing8samplers7SamplerESt14default_deleteIS2_EEC2INS1_12ConstSamplerES3_IS7_EvEEOS_IT_T0_E
_ZNSt10unique_ptrIN13jaegertracing8samplers12ConstSamplerESt14default_deleteIS2_EED2Ev
_ZN13jaegertracing8samplers20ProbabilisticSamplerC2Ed
_ZNSt10unique_ptrIN13jaegertracing8samplers20ProbabilisticSamplerESt14default_deleteIS2_EEC2IS4_vEEPS2_
_ZNSt10unique_ptrIN13jaegertracing8samplers7SamplerESt14default_deleteIS2_EEC2INS1_20ProbabilisticSamplerES3_IS7_EvEEOS_IT_T0_E
_ZNSt10unique_ptrIN13jaegertracing8samplers20ProbabilisticSamplerESt14default_deleteIS2_EED2Ev
_ZNSt7__cxx1119basic_ostringstreamIcSt11char_traitsIcESaIcEEC1Ev
_ZNSolsEd
_ZNKSt7__cxx1119basic_ostringstreamIcSt11char_traitsIcESaIcEE3strEv
_ZNSt10unique_ptrIN13jaegertracing8samplers7SamplerESt14default_deleteIS2_EEC2IS4_vEEv
_ZNSt7__cxx1119basic_ostringstreamIcSt11char_traitsIcESaIcEED1Ev
_ZN13jaegertracing8samplers19RateLimitingSamplerC2Ed
_ZNSt10unique_ptrIN13jaegertracing8samplers19RateLimitingSamplerESt14default_deleteIS2_EEC2IS4_vEEPS2_
_ZNSt10unique_ptrIN13jaegertracing8samplers7SamplerESt14default_deleteIS2_EEC2INS1_19RateLimitingSamplerES3_IS7_EvEEOS_IT_T0_E
_ZNSt10unique_ptrIN13jaegertracing8samplers19RateLimitingSamplerESt14default_deleteIS2_EED2Ev
_ZNKSt12__shared_ptrIN13jaegertracing8samplers7SamplerELN9__gnu_cxx12_Lock_policyE2EEcvbEv
_ZN13jaegertracing8samplers25RemotelyControlledSamplerC1ERKNSt7__cxx1112basic_stringIcSt11char_traitsIcESaIcEEES9_RKSt10shared_ptrINS0_7SamplerEEiRKNSt6chrono8durationIlSt5ratioILl1ELl1000000000EEEERNS_7logging6LoggerERNS_7metrics7MetricsE
_ZNSt10unique_ptrIN13jaegertracing8samplers25RemotelyControlledSamplerESt14default_deleteIS2_EEC2IS4_vEEPS2_
_ZNSt10unique_ptrIN13jaegertracing8samplers7SamplerESt14default_deleteIS2_EEC2INS1_25RemotelyControlledSamplerES3_IS7_EvEEOS_IT_T0_E
_ZNSt10unique_ptrIN13jaegertracing8samplers25RemotelyControlledSamplerESt14default_deleteIS2_EED2Ev
_ZN9__gnu_cxxneIPKcNSt7__cxx1112basic_stringIcSt11char_traitsIcESaIcEEEEEbRKNS_17__normal_iteratorIT_T0_EESE_
_ZZNK13jaegertracing8samplers6Config11makeSamplerERKNSt7__cxx1112basic_stringIcSt11char_traitsIcESaIcEEERNS_7logging6LoggerERNS_7metrics7MetricsEENKUlcE_clEc
_ZNK9__gnu_cxx17__normal_iteratorIPKcNSt7__cxx1112basic_stringIcSt11char_traitsIcESaIcEEEEdeEv
_ZNSt20back_insert_iteratorINSt7__cxx1112basic_stringIcSt11char_traitsIcESaIcEEEEdeEv
_ZNSt20back_insert_iteratorINSt7__cxx1112basic_stringIcSt11char_traitsIcESaIcEEEEaSEOc
_ZN9__gnu_cxx17__normal_iteratorIPKcNSt7__cxx1112basic_stringIcSt11char_traitsIcESaIcEEEEppEv
_ZNSt20back_insert_iteratorINSt7__cxx1112basic_stringIcSt11char_traitsIcESaIcEEEEppEv
_ZNK9__gnu_cxx17__normal_iteratorIPKcNSt7__cxx1112basic_stringIcSt11char_traitsIcESaIcEEEE4baseEv
tolower
_ZNSt7__cxx1112basic_stringIcSt11char_traitsIcESaIcEE9push_backEc
_ZSt4moveIRcEONSt16remove_referenceIT_E4typeEOS2_
_ZNKSt7__cxx1112basic_stringIcSt11char_traitsIcESaIcEE5beginEv
_ZNKSt7__cxx1112basic_stringIcSt11char_traitsIcESaIcEE3endEv
_ZNSt20back_insert_iteratorINSt7__cxx1112basic_stringIcSt11char_traitsIcESaIcEEEEC2ERS5_
_ZSt11__addressofINSt7__cxx1112basic_stringIcSt11char_traitsIcESaIcEEEEPT_RS6_
_ZN13jaegertracing8samplers7SamplerC2Ev
_ZN13jaegertracing3TagC2IRKPKcEERKNSt7__cxx1112basic_stringIcSt11char_traitsIcESaIcEEEOT_
_ZN13jaegertracing3TagC2IRbEERKNSt7__cxx1112basic_stringIcSt11char_traitsIcESaIcEEEOT_
_ZNSaIN13jaegertracing3TagEEC2Ev
_ZNSt6vectorIN13jaegertracing3TagESaIS1_EEC2ESt16initializer_listIS1_ERKS2_
_ZNSaIN13jaegertracing3TagEED2Ev
_ZN13jaegertracing3TagD2Ev
_ZN13jaegertracing8samplers12ConstSamplerD2Ev
_ZN13jaegertracing8samplers12ConstSamplerD0Ev
_ZN13jaegertracing8samplers12ConstSampler9isSampledERKNS_7TraceIDERKNSt7__cxx1112basic_stringIcSt11char_traitsIcESaIcEEE
_ZN13jaegertracing8samplers12ConstSampler5closeEv
_ZNK13jaegertracing8samplers12ConstSampler4typeEv
_ZN13jaegertracing8samplers7SamplerD2Ev
_ZN13jaegertracing8samplers7SamplerD0Ev
_ZSt7forwardIRKPKcEOT_RNSt16remove_referenceIS4_E4typeE
_ZN11opentracing2v25ValueC2EPKc
_ZN11opentracing2v24util7variantIJbdlmNSt7__cxx1112basic_stringIcSt11char_traitsIcESaIcEEEDnPKcNS1_17recursive_wrapperISt6vectorINS0_5ValueESaISD_EEEENSB_ISt13unordered_mapIS8_SD_St4hashIS8_ESt8equal_toIS8_ESaISt4pairIKS8_SD_EEEEEEEC2IRSA_NS1_6detail12value_traitsISU_JbdlmS8_DnSA_SG_SR_EEEvEEOT_
_ZSt7forwardIRPKcEOT_RNSt16remove_referenceIS3_E4typeE
_ZSt7forwardIRbEOT_RNSt16remove_referenceIS1_E4typeE
_ZN11opentracing2v25ValueC2Eb
_ZN11opentracing2v24util7variantIJbdlmNSt7__cxx1112basic_stringIcSt11char_traitsIcESaIcEEEDnPKcNS1_17recursive_wrapperISt6vectorINS0_5ValueESaISD_EEEENSB_ISt13unordered_mapIS8_SD_St4hashIS8_ESt8equal_toIS8_ESaISt4pairIKS8_SD_EEEEEEEC2IRbNS1_6detail12value_traitsISU_JbdlmS8_DnSA_SG_SR_EEEvEEOT_
_ZN9__gnu_cxx13new_allocatorIN13jaegertracing3TagEEC2Ev
_ZNSt12_Vector_baseIN13jaegertracing3TagESaIS1_EEC2ERKS2_
_ZNSt6vectorIN13jaegertracing3TagESaIS1_EE19_M_range_initializeIPKS1_EEvT_S7_St20forward_iterator_tag
_ZNKSt16initializer_listIN13jaegertracing3TagEE5beginEv
_ZNKSt16initializer_listIN13jaegertracing3TagEE3endEv
_ZNSt12_Vector_baseIN13jaegertracing3TagESaIS1_EED2Ev
_ZNSt12_Vector_baseIN13jaegertracing3TagESaIS1_EE12_Vector_implC2ERKS2_
_ZNSt12_Vector_baseIN13jaegertracing3TagESaIS1_EE17_Vector_impl_dataC2Ev
_ZN9__gnu_cxx13new_allocatorIN13jaegertracing3TagEEC2ERKS3_
_ZSt8distanceIPKN13jaegertracing3TagEENSt15iterator_traitsIT_E15difference_typeES5_S5_
_ZNSt12_Vector_baseIN13jaegertracing3TagESaIS1_EE11_M_allocateEm
_ZNSt6vectorIN13jaegertracing3TagESaIS1_EE17_S_check_init_lenEmRKS2_
_ZNSt12_Vector_baseIN13jaegertracing3TagESaIS1_EE19_M_get_Tp_allocatorEv
_ZSt22__uninitialized_copy_aIPKN13jaegertracing3TagEPS1_S1_ET0_T_S6_S5_RSaIT1_E
_ZSt10__distanceIPKN13jaegertracing3TagEENSt15iterator_traitsIT_E15difference_typeES5_S5_St26random_access_iterator_tag
_ZSt19__iterator_categoryIPKN13jaegertracing3TagEENSt15iterator_traitsIT_E17iterator_categoryERKS5_
_ZNSt16allocator_traitsISaIN13jaegertracing3TagEEE8allocateERS2_m
_ZN9__gnu_cxx13new_allocatorIN13jaegertracing3TagEE8allocateEmPKv
_ZNK9__gnu_cxx13new_allocatorIN13jaegertracing3TagEE8max_sizeEv
_ZNSt6vectorIN13jaegertracing3TagESaIS1_EE11_S_max_sizeERKS2_
_ZNSaIN13jaegertracing3TagEEC2ERKS1_
_ZSt20__throw_length_errorPKc
_ZNSt16allocator_traitsISaIN13jaegertracing3TagEEE8max_sizeERKS2_
_ZSt3minImERKT_S2_S2_
_ZSt18uninitialized_copyIPKN13jaegertracing3TagEPS1_ET0_T_S6_S5_
_ZNSt20__uninitialized_copyILb0EE13__uninit_copyIPKN13jaegertracing3TagEPS3_EET0_T_S8_S7_
_ZSt10_ConstructIN13jaegertracing3TagEJRKS1_EEvPT_DpOT0_
_ZSt11__addressofIN13jaegertracing3TagEEPT_RS2_
_ZSt8_DestroyIPN13jaegertracing3TagEEvT_S3_
_ZSt7forwardIRKN13jaegertracing3TagEEOT_RNSt16remove_referenceIS4_E4typeE
_ZN13jaegertracing3TagC2ERKS0_
_ZN11opentracing2v25ValueC2ERKS1_
_ZN11opentracing2v24util7variantIJbdlmNSt7__cxx1112basic_stringIcSt11char_traitsIcESaIcEEEDnPKcNS1_17recursive_wrapperISt6vectorINS0_5ValueESaISD_EEEENSB_ISt13unordered_mapIS8_SD_St4hashIS8_ESt8equal_toIS8_ESaISt4pairIKS8_SD_EEEEEEEC2ERKSS_
_ZN11opentracing2v24util6detail14variant_helperIJbdlmNSt7__cxx1112basic_stringIcSt11char_traitsIcESaIcEEEDnPKcNS1_17recursive_wrapperISt6vectorINS0_5ValueESaISE_EEEENSC_ISt13unordered_mapIS9_SE_St4hashIS9_ESt8equal_toIS9_ESaISt4pairIKS9_SE_EEEEEEE4copyEmPKvPv
_ZN11opentracing2v24util6detail14variant_helperIJdlmNSt7__cxx1112basic_stringIcSt11char_traitsIcESaIcEEEDnPKcNS1_17recursive_wrapperISt6vectorINS0_5ValueESaISE_EEEENSC_ISt13unordered_mapIS9_SE_St4hashIS9_ESt8equal_toIS9_ESaISt4pairIKS9_SE_EEEEEEE4copyEmPKvPv
_ZN11opentracing2v24util6detail14variant_helperIJlmNSt7__cxx1112basic_stringIcSt11char_traitsIcESaIcEEEDnPKcNS1_17recursive_wrapperISt6vectorINS0_5ValueESaISE_EEEENSC_ISt13unordered_mapIS9_SE_St4hashIS9_ESt8equal_toIS9_ESaISt4pairIKS9_SE_EEEEEEE4copyEmPKvPv
_ZN11opentracing2v24util6detail14variant_helperIJmNSt7__cxx1112basic_stringIcSt11char_traitsIcESaIcEEEDnPKcNS1_17recursive_wrapperISt6vectorINS0_5ValueESaISE_EEEENSC_ISt13unordered_mapIS9_SE_St4hashIS9_ESt8equal_toIS9_ESaISt4pairIKS9_SE_EEEEEEE4copyEmPKvPv
_ZN11opentracing2v24util6detail14variant_helperIJNSt7__cxx1112basic_stringIcSt11char_traitsIcESaIcEEEDnPKcNS1_17recursive_wrapperISt6vectorINS0_5ValueESaISE_EEEENSC_ISt13unordered_mapIS9_SE_St4hashIS9_ESt8equal_toIS9_ESaISt4pairIKS9_SE_EEEEEEE4copyEmPKvPv
_ZN11opentracing2v24util6detail14variant_helperIJDnPKcNS1_17recursive_wrapperISt6vectorINS0_5ValueESaIS8_EEEENS6_ISt13unordered_mapINSt7__cxx1112basic_stringIcSt11char_traitsIcESaIcEEES8_St4hashISI_ESt8equal_toISI_ESaISt4pairIKSI_S8_EEEEEEE4copyEmPKvPv
_ZN11opentracing2v24util6detail14variant_helperIJPKcNS1_17recursive_wrapperISt6vectorINS0_5ValueESaIS8_EEEENS6_ISt13unordered_mapINSt7__cxx1112basic_stringIcSt11char_traitsIcESaIcEEES8_St4hashISI_ESt8equal_toISI_ESaISt4pairIKSI_S8_EEEEEEE4copyEmPKvPv
_ZN11opentracing2v24util6detail14variant_helperIJNS1_17recursive_wrapperISt6vectorINS0_5ValueESaIS6_EEEENS4_ISt13unordered_mapINSt7__cxx1112basic_stringIcSt11char_traitsIcESaIcEEES6_St4hashISG_ESt8equal_toISG_ESaISt4pairIKSG_S6_EEEEEEE4copyEmPKvPv
_ZN11opentracing2v24util17recursive_wrapperISt6vectorINS0_5ValueESaIS4_EEEC2ERKS7_
_ZN11opentracing2v24util6detail14variant_helperIJNS1_17recursive_wrapperISt13unordered_mapINSt7__cxx1112basic_stringIcSt11char_traitsIcESaIcEEENS0_5ValueESt4hashISB_ESt8equal_toISB_ESaISt4pairIKSB_SC_EEEEEEE4copyEmPKvPv
_ZNK11opentracing2v24util17recursive_wrapperISt6vectorINS0_5ValueESaIS4_EEE3getEv
_ZNSt6vectorIN11opentracing2v25ValueESaIS2_EEC2ERKS4_
__assert_fail
_ZNK11opentracing2v24util17recursive_wrapperISt6vectorINS0_5ValueESaIS4_EEE11get_pointerEv
_ZNKSt6vectorIN11opentracing2v25ValueESaIS2_EE4sizeEv
_ZN9__gnu_cxx14__alloc_traitsISaIN11opentracing2v25ValueEES3_E17_S_select_on_copyERKS4_
_ZNKSt12_Vector_baseIN11opentracing2v25ValueESaIS2_EE19_M_get_Tp_allocatorEv
_ZNSt12_Vector_baseIN11opentracing2v25ValueESaIS2_EEC2EmRKS3_
_ZNSaIN11opentracing2v25ValueEED2Ev
_ZSt22__uninitialized_copy_aIN9__gnu_cxx17__normal_iteratorIPKN11opentracing2v25ValueESt6vectorIS4_SaIS4_EEEEPS4_S4_ET0_T_SD_SC_RSaIT1_E
_ZNKSt6vectorIN11opentracing2v25ValueESaIS2_EE5beginEv
_ZNKSt6vectorIN11opentracing2v25ValueESaIS2_EE3endEv
_ZNSt12_Vector_baseIN11opentracing2v25ValueESaIS2_EE19_M_get_Tp_allocatorEv
_ZNSt12_Vector_baseIN11opentracing2v25ValueESaIS2_EED2Ev
_ZNSt16allocator_traitsISaIN11opentracing2v25ValueEEE37select_on_container_copy_constructionERKS3_
_ZNSaIN11opentracing2v25ValueEEC2ERKS2_
_ZN9__gnu_cxx13new_allocatorIN11opentracing2v25ValueEEC2ERKS4_
_ZNSt12_Vector_baseIN11opentracing2v25ValueESaIS2_EE12_Vector_implC2ERKS3_
_ZNSt12_Vector_baseIN11opentracing2v25ValueESaIS2_EE17_M_create_storageEm
_ZNSt12_Vector_baseIN11opentracing2v25ValueESaIS2_EE12_Vector_implD2Ev
_ZNSt12_Vector_baseIN11opentracing2v25ValueESaIS2_EE17_Vector_impl_dataC2Ev
_ZNSt12_Vector_baseIN11opentracing2v25ValueESaIS2_EE11_M_allocateEm
_ZNSt16allocator_traitsISaIN11opentracing2v25ValueEEE8allocateERS3_m
_ZN9__gnu_cxx13new_allocatorIN11opentracing2v25ValueEE8allocateEmPKv
_ZNK9__gnu_cxx13new_allocatorIN11opentracing2v25ValueEE8max_sizeEv
_ZN9__gnu_cxx13new_allocatorIN11opentracing2v25ValueEED2Ev
_ZSt18uninitialized_copyIN9__gnu_cxx17__normal_iteratorIPKN11opentracing2v25ValueESt6vectorIS4_SaIS4_EEEEPS4_ET0_T_SD_SC_
_ZNSt20__uninitialized_copyILb0EE13__uninit_copyIN9__gnu_cxx17__normal_iteratorIPKN11opentracing2v25ValueESt6vectorIS6_SaIS6_EEEEPS6_EET0_T_SF_SE_
_ZN9__gnu_cxxneIPKN11opentracing2v25ValueESt6vectorIS3_SaIS3_EEEEbRKNS_17__normal_iteratorIT_T0_EESE_
_ZSt10_ConstructIN11opentracing2v25ValueEJRKS2_EEvPT_DpOT0_
_ZSt11__addressofIN11opentracing2v25ValueEEPT_RS3_
_ZNK9__gnu_cxx17__normal_iteratorIPKN11opentracing2v25ValueESt6vectorIS3_SaIS3_EEEdeEv
_ZN9__gnu_cxx17__normal_iteratorIPKN11opentracing2v25ValueESt6vectorIS3_SaIS3_EEEppEv
_ZSt8_DestroyIPN11opentracing2v25ValueEEvT_S4_
_ZNK9__gnu_cxx17__normal_iteratorIPKN11opentracing2v25ValueESt6vectorIS3_SaIS3_EEE4baseEv
_ZSt7forwardIRKN11opentracing2v25ValueEEOT_RNSt16remove_referenceIS5_E4typeE
_ZNSt12_Destroy_auxILb0EE9__destroyIPN11opentracing2v25ValueEEEvT_S6_
_ZSt8_DestroyIN11opentracing2v25ValueEEvPT_
_ZN11opentracing2v25ValueD2Ev
_ZN11opentracing2v24util7variantIJbdlmNSt7__cxx1112basic_stringIcSt11char_traitsIcESaIcEEEDnPKcNS1_17recursive_wrapperISt6vectorINS0_5ValueESaISD_EEEENSB_ISt13unordered_mapIS8_SD_St4hashIS8_ESt8equal_toIS8_ESaISt4pairIKS8_SD_EEEEEEED2Ev
_ZN11opentracing2v24util6detail14variant_helperIJbdlmNSt7__cxx1112basic_stringIcSt11char_traitsIcESaIcEEEDnPKcNS1_17recursive_wrapperISt6vectorINS0_5ValueESaISE_EEEENSC_ISt13unordered_mapIS9_SE_St4hashIS9_ESt8equal_toIS9_ESaISt4pairIKS9_SE_EEEEEEE7destroyEmPv
_ZN11opentracing2v24util6detail14variant_helperIJdlmNSt7__cxx1112basic_stringIcSt11char_traitsIcESaIcEEEDnPKcNS1_17recursive_wrapperISt6vectorINS0_5ValueESaISE_EEEENSC_ISt13unordered_mapIS9_SE_St4hashIS9_ESt8equal_toIS9_ESaISt4pairIKS9_SE_EEEEEEE7destroyEmPv
_ZN11opentracing2v24util6detail14variant_helperIJlmNSt7__cxx1112basic_stringIcSt11char_traitsIcESaIcEEEDnPKcNS1_17recursive_wrapperISt6vectorINS0_5ValueESaISE_EEEENSC_ISt13unordered_mapIS9_SE_St4hashIS9_ESt8equal_toIS9_ESaISt4pairIKS9_SE_EEEEEEE7destroyEmPv
_ZN11opentracing2v24util6detail14variant_helperIJmNSt7__cxx1112basic_stringIcSt11char_traitsIcESaIcEEEDnPKcNS1_17recursive_wrapperISt6vectorINS0_5ValueESaISE_EEEENSC_ISt13unordered_mapIS9_SE_St4hashIS9_ESt8equal_toIS9_ESaISt4pairIKS9_SE_EEEEEEE7destroyEmPv
_ZN11opentracing2v24util6detail14variant_helperIJNSt7__cxx1112basic_stringIcSt11char_traitsIcESaIcEEEDnPKcNS1_17recursive_wrapperISt6vectorINS0_5ValueESaISE_EEEENSC_ISt13unordered_mapIS9_SE_St4hashIS9_ESt8equal_toIS9_ESaISt4pairIKS9_SE_EEEEEEE7destroyEmPv
_ZN11opentracing2v24util6detail14variant_helperIJDnPKcNS1_17recursive_wrapperISt6vectorINS0_5ValueESaIS8_EEEENS6_ISt13unordered_mapINSt7__cxx1112basic_stringIcSt11char_traitsIcESaIcEEES8_St4hashISI_ESt8equal_toISI_ESaISt4pairIKSI_S8_EEEEEEE7destroyEmPv
_ZN11opentracing2v24util6detail14variant_helperIJPKcNS1_17recursive_wrapperISt6vectorINS0_5ValueESaIS8_EEEENS6_ISt13unordered_mapINSt7__cxx1112basic_stringIcSt11char_traitsIcESaIcEEES8_St4hashISI_ESt8equal_toISI_ESaISt4pairIKSI_S8_EEEEEEE7destroyEmPv
_ZN11opentracing2v24util6detail14variant_helperIJNS1_17recursive_wrapperISt6vectorINS0_5ValueESaIS6_EEEENS4_ISt13unordered_mapINSt7__cxx1112basic_stringIcSt11char_traitsIcESaIcEEES6_St4hashISG_ESt8equal_toISG_ESaISt4pairIKSG_S6_EEEEEEE7destroyEmPv
_ZN11opentracing2v24util17recursive_wrapperISt6vectorINS0_5ValueESaIS4_EEED2Ev
_ZN11opentracing2v24util6detail14variant_helperIJNS1_17recursive_wrapperISt13unordered_mapINSt7__cxx1112basic_stringIcSt11char_traitsIcESaIcEEENS0_5ValueESt4hashISB_ESt8equal_toISB_ESaISt4pairIKSB_SC_EEEEEEE7destroyEmPv
_ZNSt6vectorIN11opentracing2v25ValueESaIS2_EED2Ev
_ZSt8_DestroyIPN11opentracing2v25ValueES2_EvT_S4_RSaIT0_E
_ZN11opentracing2v24util17recursive_wrapperISt13unordered_mapINSt7__cxx1112basic_stringIcSt11char_traitsIcESaIcEEENS0_5ValueESt4hashIS9_ESt8equal_toIS9_ESaISt4pairIKS9_SA_EEEED2Ev
_ZN11opentracing2v24util6detail14variant_helperIJEE7destroyEmPv
_ZNSt13unordered_mapINSt7__cxx1112basic_stringIcSt11char_traitsIcESaIcEEEN11opentracing2v25ValueESt4hashIS5_ESt8equal_toIS5_ESaISt4pairIKS5_S8_EEED2Ev
_ZNSt10_HashtableINSt7__cxx1112basic_stringIcSt11char_traitsIcESaIcEEESt4pairIKS5_N11opentracing2v25ValueEESaISB_ENSt8__detail10_Select1stESt8equal_toIS5_ESt4hashIS5_ENSD_18_Mod_range_hashingENSD_20_Default_ranged_hashENSD_20_Prime_rehash_policyENSD_17_Hashtable_traitsILb1ELb0ELb1EEEED2Ev
_ZNSt10_HashtableINSt7__cxx1112basic_stringIcSt11char_traitsIcESaIcEEESt4pairIKS5_N11opentracing2v25ValueEESaISB_ENSt8__detail10_Select1stESt8equal_toIS5_ESt4hashIS5_ENSD_18_Mod_range_hashingENSD_20_Default_ranged_hashENSD_20_Prime_rehash_policyENSD_17_Hashtable_traitsILb1ELb0ELb1EEEE5clearEv
_ZNSt10_HashtableINSt7__cxx1112basic_stringIcSt11char_traitsIcESaIcEEESt4pairIKS5_N11opentracing2v25ValueEESaISB_ENSt8__detail10_Select1stESt8equal_toIS5_ESt4hashIS5_ENSD_18_Mod_range_hashingENSD_20_Default_ranged_hashENSD_20_Prime_rehash_policyENSD_17_Hashtable_traitsILb1ELb0ELb1EEEE21_M_deallocate_bucketsEv
_ZNSt8__detail16_Hashtable_allocISaINS_10_Hash_nodeISt4pairIKNSt7__cxx1112basic_stringIcSt11char_traitsIcESaIcEEEN11opentracing2v25ValueEELb1EEEEED2Ev
_ZNSt8__detail16_Hashtable_allocISaINS_10_Hash_nodeISt4pairIKNSt7__cxx1112basic_stringIcSt11char_traitsIcESaIcEEEN11opentracing2v25ValueEELb1EEEEE19_M_deallocate_nodesEPSE_
_ZNKSt10_HashtableINSt7__cxx1112basic_stringIcSt11char_traitsIcESaIcEEESt4pairIKS5_N11opentracing2v25ValueEESaISB_ENSt8__detail10_Select1stESt8equal_toIS5_ESt4hashIS5_ENSD_18_Mod_range_hashingENSD_20_Default_ranged_hashENSD_20_Prime_rehash_policyENSD_17_Hashtable_traitsILb1ELb0ELb1EEEE8_M_beginEv
_ZNKSt8__detail10_Hash_nodeISt4pairIKNSt7__cxx1112basic_stringIcSt11char_traitsIcESaIcEEEN11opentracing2v25ValueEELb1EE7_M_nextEv
_ZNSt8__detail16_Hashtable_allocISaINS_10_Hash_nodeISt4pairIKNSt7__cxx1112basic_stringIcSt11char_traitsIcESaIcEEEN11opentracing2v25ValueEELb1EEEEE18_M_deallocate_nodeEPSE_
_ZNSt16allocator_traitsISaINSt8__detail10_Hash_nodeISt4pairIKNSt7__cxx1112basic_stringIcSt11char_traitsIcESaIcEEEN11opentracing2v25ValueEELb1EEEEE7destroyISD_EEvRSF_PT_
_ZNSt8__detail16_Hashtable_allocISaINS_10_Hash_nodeISt4pairIKNSt7__cxx1112basic_stringIcSt11char_traitsIcESaIcEEEN11opentracing2v25ValueEELb1EEEEE17_M_node_allocatorEv
_ZNSt8__detail21_Hash_node_value_baseISt4pairIKNSt7__cxx1112basic_stringIcSt11char_traitsIcESaIcEEEN11opentracing2v25ValueEEE9_M_valptrEv
_ZNSt8__detail16_Hashtable_allocISaINS_10_Hash_nodeISt4pairIKNSt7__cxx1112basic_stringIcSt11char_traitsIcESaIcEEEN11opentracing2v25ValueEELb1EEEEE22_M_deallocate_node_ptrEPSE_
_ZN9__gnu_cxx13new_allocatorINSt8__detail10_Hash_nodeISt4pairIKNSt7__cxx1112basic_stringIcSt11char_traitsIcESaIcEEEN11opentracing2v25ValueEELb1EEEE7destroyISE_EEvPT_
_ZNSt4pairIKNSt7__cxx1112basic_stringIcSt11char_traitsIcESaIcEEEN11opentracing2v25ValueEED2Ev
_ZNSt8__detail21_Hashtable_ebo_helperILi0ESaINS_10_Hash_nodeISt4pairIKNSt7__cxx1112basic_stringIcSt11char_traitsIcESaIcEEEN11opentracing2v25ValueEELb1EEEELb1EE6_S_getERSG_
_ZN9__gnu_cxx16__aligned_bufferISt4pairIKNSt7__cxx1112basic_stringIcSt11char_traitsIcESaIcEEEN11opentracing2v25ValueEEE6_M_ptrEv
_ZN9__gnu_cxx16__aligned_bufferISt4pairIKNSt7__cxx1112basic_stringIcSt11char_traitsIcESaIcEEEN11opentracing2v25ValueEEE7_M_addrEv
_ZNSt14pointer_traitsIPNSt8__detail10_Hash_nodeISt4pairIKNSt7__cxx1112basic_stringIcSt11char_traitsIcESaIcEEEN11opentracing2v25ValueEELb1EEEE10pointer_toERSE_
_ZNSt16allocator_traitsISaINSt8__detail10_Hash_nodeISt4pairIKNSt7__cxx1112basic_stringIcSt11char_traitsIcESaIcEEEN11opentracing2v25ValueEELb1EEEEE10deallocateERSF_PSE_m
_ZSt9addressofINSt8__detail10_Hash_nodeISt4pairIKNSt7__cxx1112basic_stringIcSt11char_traitsIcESaIcEEEN11opentracing2v25ValueEELb1EEEEPT_RSF_
_ZSt11__addressofINSt8__detail10_Hash_nodeISt4pairIKNSt7__cxx1112basic_stringIcSt11char_traitsIcESaIcEEEN11opentracing2v25ValueEELb1EEEEPT_RSF_
_ZN9__gnu_cxx13new_allocatorINSt8__detail10_Hash_nodeISt4pairIKNSt7__cxx1112basic_stringIcSt11char_traitsIcESaIcEEEN11opentracing2v25ValueEELb1EEEE10deallocateEPSF_m
_ZNSt10_HashtableINSt7__cxx1112basic_stringIcSt11char_traitsIcESaIcEEESt4pairIKS5_N11opentracing2v25ValueEESaISB_ENSt8__detail10_Select1stESt8equal_toIS5_ESt4hashIS5_ENSD_18_Mod_range_hashingENSD_20_Default_ranged_hashENSD_20_Prime_rehash_policyENSD_17_Hashtable_traitsILb1ELb0ELb1EEEE21_M_deallocate_bucketsEPPNSD_15_Hash_node_baseEm
_ZNKSt10_HashtableINSt7__cxx1112basic_stringIcSt11char_traitsIcESaIcEEESt4pairIKS5_N11opentracing2v25ValueEESaISB_ENSt8__detail10_Select1stESt8equal_toIS5_ESt4hashIS5_ENSD_18_Mod_range_hashingENSD_20_Default_ranged_hashENSD_20_Prime_rehash_policyENSD_17_Hashtable_traitsILb1ELb0ELb1EEEE21_M_uses_single_bucketEPPNSD_15_Hash_node_baseE
_ZNSt8__detail16_Hashtable_allocISaINS_10_Hash_nodeISt4pairIKNSt7__cxx1112basic_stringIcSt11char_traitsIcESaIcEEEN11opentracing2v25ValueEELb1EEEEE21_M_deallocate_bucketsEPPNS_15_Hash_node_baseEm
_ZNSaIPNSt8__detail15_Hash_node_baseEEC2INS_10_Hash_nodeISt4pairIKNSt7__cxx1112basic_stringIcSt11char_traitsIcESaIcEEEN11opentracing2v25ValueEELb1EEEEERKSaIT_E
_ZNSt8__detail21_Hashtable_ebo_helperILi0ESaINS_10_Hash_nodeISt4pairIKNSt7__cxx1112basic_stringIcSt11char_traitsIcESaIcEEEN11opentracing2v25ValueEELb1EEEELb1EED2Ev
_ZN9__gnu_cxx13new_allocatorINSt8__detail10_Hash_nodeISt4pairIKNSt7__cxx1112basic_stringIcSt11char_traitsIcESaIcEEEN11opentracing2v25ValueEELb1EEEED2Ev
_ZN9__gnu_cxx17__normal_iteratorIPKN11opentracing2v25ValueESt6vectorIS3_SaIS3_EEEC2ERKS5_
_ZNSt12_Vector_baseIN11opentracing2v25ValueESaIS2_EE13_M_deallocateEPS2_m
_ZNSt16allocator_traitsISaIN11opentracing2v25ValueEEE10deallocateERS3_PS2_m
_ZN9__gnu_cxx13new_allocatorIN11opentracing2v25ValueEE10deallocateEPS3_m
_ZN11opentracing2v24util17recursive_wrapperISt13unordered_mapINSt7__cxx1112basic_stringIcSt11char_traitsIcESaIcEEENS0_5ValueESt4hashIS9_ESt8equal_toIS9_ESaISt4pairIKS9_SA_EEEEC2ERKSK_
_ZN11opentracing2v24util6detail14variant_helperIJEE4copyEmPKvPv
_ZNK11opentracing2v24util17recursive_wrapperISt13unordered_mapINSt7__cxx1112basic_stringIcSt11char_traitsIcESaIcEEENS0_5ValueESt4hashIS9_ESt8equal_toIS9_ESaISt4pairIKS9_SA_EEEE3getEv
_ZNSt13unordered_mapINSt7__cxx1112basic_stringIcSt11char_traitsIcESaIcEEEN11opentracing2v25ValueESt4hashIS5_ESt8equal_toIS5_ESaISt4pairIKS5_S8_EEEC2ERKSH_
_ZNK11opentracing2v24util17recursive_wrapperISt13unordered_mapINSt7__cxx1112basic_stringIcSt11char_traitsIcESaIcEEENS0_5ValueESt4hashIS9_ESt8equal_toIS9_ESaISt4pairIKS9_SA_EEEE11get_pointerEv
_ZNSt10_HashtableINSt7__cxx1112basic_stringIcSt11char_traitsIcESaIcEEESt4pairIKS5_N11opentracing2v25ValueEESaISB_ENSt8__detail10_Select1stESt8equal_toIS5_ESt4hashIS5_ENSD_18_Mod_range_hashingENSD_20_Default_ranged_hashENSD_20_Prime_rehash_policyENSD_17_Hashtable_traitsILb1ELb0ELb1EEEEC2ERKSO_
_ZN9__gnu_cxx14__alloc_traitsISaINSt8__detail10_Hash_nodeISt4pairIKNSt7__cxx1112basic_stringIcSt11char_traitsIcESaIcEEEN11opentracing2v25ValueEELb1EEEESF_E17_S_select_on_copyERKSG_
_ZNKSt8__detail16_Hashtable_allocISaINS_10_Hash_nodeISt4pairIKNSt7__cxx1112basic_stringIcSt11char_traitsIcESaIcEEEN11opentracing2v25ValueEELb1EEEEE17_M_node_allocatorEv
_ZNSt8__detail16_Hashtable_allocISaINS_10_Hash_nodeISt4pairIKNSt7__cxx1112basic_stringIcSt11char_traitsIcESaIcEEEN11opentracing2v25ValueEELb1EEEEEC2ISF_EEOT_
_ZNSaINSt8__detail10_Hash_nodeISt4pairIKNSt7__cxx1112basic_stringIcSt11char_traitsIcESaIcEEEN11opentracing2v25ValueEELb1EEEED2Ev
_ZNSt10_HashtableINSt7__cxx1112basic_stringIcSt11char_traitsIcESaIcEEESt4pairIKS5_N11opentracing2v25ValueEESaISB_ENSt8__detail10_Select1stESt8equal_toIS5_ESt4hashIS5_ENSD_18_Mod_range_hashingENSD_20_Default_ranged_hashENSD_20_Prime_rehash_policyENSD_17_Hashtable_traitsILb1ELb0ELb1EEEE9_M_assignIZNSO_C1ERKSO_EUlPKNSD_10_Hash_nodeISB_Lb1EEEE_EEvSR_RKT_
_ZNSt16allocator_traitsISaINSt8__detail10_Hash_nodeISt4pairIKNSt7__cxx1112basic_stringIcSt11char_traitsIcESaIcEEEN11opentracing2v25ValueEELb1EEEEE37select_on_container_copy_constructionERKSF_
_ZNSaINSt8__detail10_Hash_nodeISt4pairIKNSt7__cxx1112basic_stringIcSt11char_traitsIcESaIcEEEN11opentracing2v25ValueEELb1EEEEC2ERKSE_
_ZN9__gnu_cxx13new_allocatorINSt8__detail10_Hash_nodeISt4pairIKNSt7__cxx1112basic_stringIcSt11char_traitsIcESaIcEEEN11opentracing2v25ValueEELb1EEEEC2ERKSG_
_ZNSt8__detail21_Hashtable_ebo_helperILi0ESaINS_10_Hash_nodeISt4pairIKNSt7__cxx1112basic_stringIcSt11char_traitsIcESaIcEEEN11opentracing2v25ValueEELb1EEEELb1EE7_S_cgetERKSG_
_ZSt7forwardISaINSt8__detail10_Hash_nodeISt4pairIKNSt7__cxx1112basic_stringIcSt11char_traitsIcESaIcEEEN11opentracing2v25ValueEELb1EEEEEOT_RNSt16remove_referenceISG_E4typeE
_ZNSt8__detail21_Hashtable_ebo_helperILi0ESaINS_10_Hash_nodeISt4pairIKNSt7__cxx1112basic_stringIcSt11char_traitsIcESaIcEEEN11opentracing2v25ValueEELb1EEEELb1EEC2ISF_EEOT_
_ZNSt10_HashtableINSt7__cxx1112basic_stringIcSt11char_traitsIcESaIcEEESt4pairIKS5_N11opentracing2v25ValueEESaISB_ENSt8__detail10_Select1stESt8equal_toIS5_ESt4hashIS5_ENSD_18_Mod_range_hashingENSD_20_Default_ranged_hashENSD_20_Prime_rehash_policyENSD_17_Hashtable_traitsILb1ELb0ELb1EEEE19_M_allocate_bucketsEm
_ZZNSt10_HashtableINSt7__cxx1112basic_stringIcSt11char_traitsIcESaIcEEESt4pairIKS5_N11opentracing2v25ValueEESaISB_ENSt8__detail10_Select1stESt8equal_toIS5_ESt4hashIS5_ENSD_18_Mod_range_hashingENSD_20_Default_ranged_hashENSD_20_Prime_rehash_policyENSD_17_Hashtable_traitsILb1ELb0ELb1EEEEC1ERKSO_ENKUlPKNSD_10_Hash_nodeISB_Lb1EEEE_clB5cxx11ESU_
_ZNKSt8__detail15_Hash_code_baseINSt7__cxx1112basic_stringIcSt11char_traitsIcESaIcEEESt4pairIKS6_N11opentracing2v25ValueEENS_10_Select1stESt4hashIS6_ENS_18_Mod_range_hashingENS_20_Default_ranged_hashELb1EE12_M_copy_codeEPNS_10_Hash_nodeISC_Lb1EEEPKSK_
_ZNKSt10_HashtableINSt7__cxx1112basic_stringIcSt11char_traitsIcESaIcEEESt4pairIKS5_N11opentracing2v25ValueEESaISB_ENSt8__detail10_Select1stESt8equal_toIS5_ESt4hashIS5_ENSD_18_Mod_range_hashingENSD_20_Default_ranged_hashENSD_20_Prime_rehash_policyENSD_17_Hashtable_traitsILb1ELb0ELb1EEEE15_M_bucket_indexEPNSD_10_Hash_nodeISB_Lb1EEE
_ZNSt8__detail16_Hashtable_allocISaINS_10_Hash_nodeISt4pairIKNSt7__cxx1112basic_stringIcSt11char_traitsIcESaIcEEEN11opentracing2v25ValueEELb1EEEEE19_M_allocate_bucketsEm
_ZNSt8__detail16_Hashtable_allocISaINS_10_Hash_nodeISt4pairIKNSt7__cxx1112basic_stringIcSt11char_traitsIcESaIcEEEN11opentracing2v25ValueEELb1EEEEE16_M_allocate_nodeIJRKSD_EEEPSE_DpOT_
_ZNKSt8__detail21_Hash_node_value_baseISt4pairIKNSt7__cxx1112basic_stringIcSt11char_traitsIcESaIcEEEN11opentracing2v25ValueEEE4_M_vEv
_ZNSt16allocator_traitsISaINSt8__detail10_Hash_nodeISt4pairIKNSt7__cxx1112basic_stringIcSt11char_traitsIcESaIcEEEN11opentracing2v25ValueEELb1EEEEE8allocateERSF_m
_ZSt12__to_addressINSt8__detail10_Hash_nodeISt4pairIKNSt7__cxx1112basic_stringIcSt11char_traitsIcESaIcEEEN11opentracing2v25ValueEELb1EEEEPT_SG_
_ZNSt8__detail10_Hash_nodeISt4pairIKNSt7__cxx1112basic_stringIcSt11char_traitsIcESaIcEEEN11opentracing2v25ValueEELb1EEC2Ev
_ZNSt16allocator_traitsISaINSt8__detail10_Hash_nodeISt4pairIKNSt7__cxx1112basic_stringIcSt11char_traitsIcESaIcEEEN11opentracing2v25ValueEELb1EEEEE9constructISD_JRKSD_EEEvRSF_PT_DpOT0_
_ZSt7forwardIRKSt4pairIKNSt7__cxx1112basic_stringIcSt11char_traitsIcESaIcEEEN11opentracing2v25ValueEEEOT_RNSt16remove_referenceISE_E4typeE
_ZN9__gnu_cxx13new_allocatorINSt8__detail10_Hash_nodeISt4pairIKNSt7__cxx1112basic_stringIcSt11char_traitsIcESaIcEEEN11opentracing2v25ValueEELb1EEEE8allocateEmPKv
_ZNK9__gnu_cxx13new_allocatorINSt8__detail10_Hash_nodeISt4pairIKNSt7__cxx1112basic_stringIcSt11char_traitsIcESaIcEEEN11opentracing2v25ValueEELb1EEEE8max_sizeEv
_ZNSt8__detail21_Hash_node_value_baseISt4pairIKNSt7__cxx1112basic_stringIcSt11char_traitsIcESaIcEEEN11opentracing2v25ValueEEEC2Ev
_ZN9__gnu_cxx13new_allocatorINSt8__detail10_Hash_nodeISt4pairIKNSt7__cxx1112basic_stringIcSt11char_traitsIcESaIcEEEN11opentracing2v25ValueEELb1EEEE9constructISE_JRKSE_EEEvPT_DpOT0_
_ZNSt4pairIKNSt7__cxx1112basic_stringIcSt11char_traitsIcESaIcEEEN11opentracing2v25ValueEEC2ERKSA_
_ZNKSt8__detail21_Hash_node_value_baseISt4pairIKNSt7__cxx1112basic_stringIcSt11char_traitsIcESaIcEEEN11opentracing2v25ValueEEE9_M_valptrEv
_ZNK9__gnu_cxx16__aligned_bufferISt4pairIKNSt7__cxx1112basic_stringIcSt11char_traitsIcESaIcEEEN11opentracing2v25ValueEEE6_M_ptrEv
_ZNK9__gnu_cxx16__aligned_bufferISt4pairIKNSt7__cxx1112basic_stringIcSt11char_traitsIcESaIcEEEN11opentracing2v25ValueEEE7_M_addrEv
_ZNKSt8__detail15_Hash_code_baseINSt7__cxx1112basic_stringIcSt11char_traitsIcESaIcEEESt4pairIKS6_N11opentracing2v25ValueEENS_10_Select1stESt4hashIS6_ENS_18_Mod_range_hashingENS_20_Default_ranged_hashELb1EE15_M_bucket_indexEPKNS_10_Hash_nodeISC_Lb1EEEm
_ZNKSt8__detail15_Hash_code_baseINSt7__cxx1112basic_stringIcSt11char_traitsIcESaIcEEESt4pairIKS6_N11opentracing2v25ValueEENS_10_Select1stESt4hashIS6_ENS_18_Mod_range_hashingENS_20_Default_ranged_hashELb1EE5_M_h2Ev
_ZNSt12_Destroy_auxILb0EE9__destroyIPN13jaegertracing3TagEEEvT_S5_
_ZSt8_DestroyIN13jaegertracing3TagEEvPT_
_ZNKSt16initializer_listIN13jaegertracing3TagEE4sizeEv
_ZNSt12_Vector_baseIN13jaegertracing3TagESaIS1_EE13_M_deallocateEPS1_m
_ZNSt12_Vector_baseIN13jaegertracing3TagESaIS1_EE12_Vector_implD2Ev
_ZNSt16allocator_traitsISaIN13jaegertracing3TagEEE10deallocateERS2_PS1_m
_ZN9__gnu_cxx13new_allocatorIN13jaegertracing3TagEE10deallocateEPS2_m
_ZN9__gnu_cxx13new_allocatorIN13jaegertracing3TagEED2Ev
_ZNSt6vectorIN13jaegertracing3TagESaIS1_EED2Ev
_ZSt8_DestroyIPN13jaegertracing3TagES1_EvT_S3_RSaIT0_E
_ZN13jaegertracing8samplers14SamplingStatusC2EbRKSt6vectorINS_3TagESaIS3_EE
_ZNSt6vectorIN13jaegertracing3TagESaIS1_EEC2ERKS3_
_ZNKSt6vectorIN13jaegertracing3TagESaIS1_EE4sizeEv
_ZN9__gnu_cxx14__alloc_traitsISaIN13jaegertracing3TagEES2_E17_S_select_on_copyERKS3_
_ZNKSt12_Vector_baseIN13jaegertracing3TagESaIS1_EE19_M_get_Tp_allocatorEv
_ZNSt12_Vector_baseIN13jaegertracing3TagESaIS1_EEC2EmRKS2_
_ZSt22__uninitialized_copy_aIN9__gnu_cxx17__normal_iteratorIPKN13jaegertracing3TagESt6vectorIS3_SaIS3_EEEEPS3_S3_ET0_T_SC_SB_RSaIT1_E
_ZNKSt6vectorIN13jaegertracing3TagESaIS1_EE5beginEv
_ZNKSt6vectorIN13jaegertracing3TagESaIS1_EE3endEv
_ZNSt16allocator_traitsISaIN13jaegertracing3TagEEE37select_on_container_copy_constructionERKS2_
_ZNSt12_Vector_baseIN13jaegertracing3TagESaIS1_EE17_M_create_storageEm
_ZSt18uninitialized_copyIN9__gnu_cxx17__normal_iteratorIPKN13jaegertracing3TagESt6vectorIS3_SaIS3_EEEEPS3_ET0_T_SC_SB_
_ZNSt20__uninitialized_copyILb0EE13__uninit_copyIN9__gnu_cxx17__normal_iteratorIPKN13jaegertracing3TagESt6vectorIS5_SaIS5_EEEEPS5_EET0_T_SE_SD_
_ZN9__gnu_cxxneIPKN13jaegertracing3TagESt6vectorIS2_SaIS2_EEEEbRKNS_17__normal_iteratorIT_T0_EESD_
_ZNK9__gnu_cxx17__normal_iteratorIPKN13jaegertracing3TagESt6vectorIS2_SaIS2_EEEdeEv
_ZN9__gnu_cxx17__normal_iteratorIPKN13jaegertracing3TagESt6vectorIS2_SaIS2_EEEppEv
_ZNK9__gnu_cxx17__normal_iteratorIPKN13jaegertracing3TagESt6vectorIS2_SaIS2_EEE4baseEv
_ZN9__gnu_cxx17__normal_iteratorIPKN13jaegertracing3TagESt6vectorIS2_SaIS2_EEEC2ERKS4_
_ZNSt15__uniq_ptr_implIN13jaegertracing8samplers12ConstSamplerESt14default_deleteIS2_EEC2EPS2_
_ZNSt5tupleIJPN13jaegertracing8samplers12ConstSamplerESt14default_deleteIS2_EEEC2IS3_S5_Lb1EEEv
_ZNSt15__uniq_ptr_implIN13jaegertracing8samplers12ConstSamplerESt14default_deleteIS2_EE6_M_ptrEv
_ZNSt11_Tuple_implILm0EJPN13jaegertracing8samplers12ConstSamplerESt14default_deleteIS2_EEEC2Ev
_ZNSt11_Tuple_implILm1EJSt14default_deleteIN13jaegertracing8samplers12ConstSamplerEEEEC2Ev
_ZNSt10_Head_baseILm0EPN13jaegertracing8samplers12ConstSamplerELb0EEC2Ev
_ZNSt10_Head_baseILm1ESt14default_deleteIN13jaegertracing8samplers12ConstSamplerEELb1EEC2Ev
_ZSt3getILm0EJPN13jaegertracing8samplers12ConstSamplerESt14default_deleteIS2_EEERNSt13tuple_elementIXT_ESt5tupleIJDpT0_EEE4typeERSA_
_ZSt12__get_helperILm0EPN13jaegertracing8samplers12ConstSamplerEJSt14default_deleteIS2_EEERT0_RSt11_Tuple_implIXT_EJS6_DpT1_EE
_ZNSt11_Tuple_implILm0EJPN13jaegertracing8samplers12ConstSamplerESt14default_deleteIS2_EEE7_M_headERS6_
_ZNSt10_Head_baseILm0EPN13jaegertracing8samplers12ConstSamplerELb0EE7_M_headERS4_
_ZNSt10unique_ptrIN13jaegertracing8samplers12ConstSamplerESt14default_deleteIS2_EE7releaseEv
_ZSt7forwardISt14default_deleteIN13jaegertracing8samplers12ConstSamplerEEEOT_RNSt16remove_referenceIS5_E4typeE
_ZNSt10unique_ptrIN13jaegertracing8samplers12ConstSamplerESt14default_deleteIS2_EE11get_deleterEv
_ZNSt15__uniq_ptr_implIN13jaegertracing8samplers7SamplerESt14default_deleteIS2_EEC2IS3_INS1_12ConstSamplerEEEEPS2_OT_
_ZNKSt10unique_ptrIN13jaegertracing8samplers12ConstSamplerESt14default_deleteIS2_EE3getEv
_ZNKSt15__uniq_ptr_implIN13jaegertracing8samplers12ConstSamplerESt14default_deleteIS2_EE6_M_ptrEv
_ZSt3getILm0EJPN13jaegertracing8samplers12ConstSamplerESt14default_deleteIS2_EEERKNSt13tuple_elementIXT_ESt5tupleIJDpT0_EEE4typeERKSA_
_ZSt12__get_helperILm0EPN13jaegertracing8samplers12ConstSamplerEJSt14default_deleteIS2_EEERKT0_RKSt11_Tuple_implIXT_EJS6_DpT1_EE
_ZNSt11_Tuple_implILm0EJPN13jaegertracing8samplers12ConstSamplerESt14default_deleteIS2_EEE7_M_headERKS6_
_ZNSt10_Head_baseILm0EPN13jaegertracing8samplers12ConstSamplerELb0EE7_M_headERKS4_
_ZNSt15__uniq_ptr_implIN13jaegertracing8samplers12ConstSamplerESt14default_deleteIS2_EE10_M_deleterEv
_ZSt3getILm1EJPN13jaegertracing8samplers12ConstSamplerESt14default_deleteIS2_EEERNSt13tuple_elementIXT_ESt5tupleIJDpT0_EEE4typeERSA_
_ZSt12__get_helperILm1ESt14default_deleteIN13jaegertracing8samplers12ConstSamplerEEJEERT0_RSt11_Tuple_implIXT_EJS5_DpT1_EE
_ZNSt11_Tuple_implILm1EJSt14default_deleteIN13jaegertracing8samplers12ConstSamplerEEEE7_M_headERS5_
_ZNSt10_Head_baseILm1ESt14default_deleteIN13jaegertracing8samplers12ConstSamplerEELb1EE7_M_headERS5_
_ZNSt5tupleIJPN13jaegertracing8samplers7SamplerESt14default_deleteIS2_EEEC2IRS3_S4_INS1_12ConstSamplerEELb1EEEOT_OT0_
_ZSt7forwardIRPN13jaegertracing8samplers7SamplerEEOT_RNSt16remove_referenceIS5_E4typeE
_ZNSt11_Tuple_implILm0EJPN13jaegertracing8samplers7SamplerESt14default_deleteIS2_EEEC2IRS3_JS4_INS1_12ConstSamplerEEEvEEOT_DpOT0_
_ZNSt11_Tuple_implILm1EJSt14default_deleteIN13jaegertracing8samplers7SamplerEEEEC2IS0_INS2_12ConstSamplerEEEEOT_
_ZNSt10_Head_baseILm0EPN13jaegertracing8samplers7SamplerELb0EEC2IRS3_EEOT_
_ZNSt10_Head_baseILm1ESt14default_deleteIN13jaegertracing8samplers7SamplerEELb1EEC2IS0_INS2_12ConstSamplerEEEEOT_
_ZNSt14default_deleteIN13jaegertracing8samplers7SamplerEEC2INS1_12ConstSamplerEvEERKS_IT_E
_ZNKSt14default_deleteIN13jaegertracing8samplers12ConstSamplerEEclEPS2_
_ZSt4moveIRPN13jaegertracing8samplers12ConstSamplerEEONSt16remove_referenceIT_E4typeEOS6_
_ZSt3maxIdERKT_S2_S2_
_ZSt3minIdERKT_S2_S2_
_ZN13jaegertracing8samplers20ProbabilisticSampler23computeSamplingBoundaryEe
_ZN13jaegertracing3TagC2IRdEERKNSt7__cxx1112basic_stringIcSt11char_traitsIcESaIcEEEOT_
_ZN13jaegertracing8samplers20ProbabilisticSamplerD2Ev
_ZN13jaegertracing8samplers20ProbabilisticSamplerD0Ev
_ZN13jaegertracing8samplers20ProbabilisticSampler9isSampledERKNS_7TraceIDERKNSt7__cxx1112basic_stringIcSt11char_traitsIcESaIcEEE
_ZN13jaegertracing8samplers20ProbabilisticSampler5closeEv
_ZNK13jaegertracing8samplers20ProbabilisticSampler4typeEv
_ZSt7forwardIRdEOT_RNSt16remove_referenceIS1_E4typeE
_ZN11opentracing2v25ValueC2IdLPv0EEET_
_ZN11opentracing2v24util7variantIJbdlmNSt7__cxx1112basic_stringIcSt11char_traitsIcESaIcEEEDnPKcNS1_17recursive_wrapperISt6vectorINS0_5ValueESaISD_EEEENSB_ISt13unordered_mapIS8_SD_St4hashIS8_ESt8equal_toIS8_ESaISt4pairIKS8_SD_EEEEEEEC2IdNS1_6detail12value_traitsIdJbdlmS8_DnSA_SG_SR_EEEvEEOT_
_ZSt7forwardIdEOT_RNSt16remove_referenceIS0_E4typeE
_ZNK13jaegertracing7TraceID3lowEv
_ZNSt15__uniq_ptr_implIN13jaegertracing8samplers20ProbabilisticSamplerESt14default_deleteIS2_EEC2EPS2_
_ZNSt5tupleIJPN13jaegertracing8samplers20ProbabilisticSamplerESt14default_deleteIS2_EEEC2IS3_S5_Lb1EEEv
_ZNSt15__uniq_ptr_implIN13jaegertracing8samplers20ProbabilisticSamplerESt14default_deleteIS2_EE6_M_ptrEv
_ZNSt11_Tuple_implILm0EJPN13jaegertracing8samplers20ProbabilisticSamplerESt14default_deleteIS2_EEEC2Ev
_ZNSt11_Tuple_implILm1EJSt14default_deleteIN13jaegertracing8samplers20ProbabilisticSamplerEEEEC2Ev
_ZNSt10_Head_baseILm0EPN13jaegertracing8samplers20ProbabilisticSamplerELb0EEC2Ev
_ZNSt10_Head_baseILm1ESt14default_deleteIN13jaegertracing8samplers20ProbabilisticSamplerEELb1EEC2Ev
_ZSt3getILm0EJPN13jaegertracing8samplers20ProbabilisticSamplerESt14default_deleteIS2_EEERNSt13tuple_elementIXT_ESt5tupleIJDpT0_EEE4typeERSA_
_ZSt12__get_helperILm0EPN13jaegertracing8samplers20ProbabilisticSamplerEJSt14default_deleteIS2_EEERT0_RSt11_Tuple_implIXT_EJS6_DpT1_EE
_ZNSt11_Tuple_implILm0EJPN13jaegertracing8samplers20ProbabilisticSamplerESt14default_deleteIS2_EEE7_M_headERS6_
_ZNSt10_Head_baseILm0EPN13jaegertracing8samplers20ProbabilisticSamplerELb0EE7_M_headERS4_
_ZNSt10unique_ptrIN13jaegertracing8samplers20ProbabilisticSamplerESt14default_deleteIS2_EE7releaseEv
_ZSt7forwardISt14default_deleteIN13jaegertracing8samplers20ProbabilisticSamplerEEEOT_RNSt16remove_referenceIS5_E4typeE
_ZNSt10unique_ptrIN13jaegertracing8samplers20ProbabilisticSamplerESt14default_deleteIS2_EE11get_deleterEv
_ZNSt15__uniq_ptr_implIN13jaegertracing8samplers7SamplerESt14default_deleteIS2_EEC2IS3_INS1_20ProbabilisticSamplerEEEEPS2_OT_
_ZNKSt10unique_ptrIN13jaegertracing8samplers20ProbabilisticSamplerESt14default_deleteIS2_EE3getEv
_ZNKSt15__uniq_ptr_implIN13jaegertracing8samplers20ProbabilisticSamplerESt14default_deleteIS2_EE6_M_ptrEv
_ZSt3getILm0EJPN13jaegertracing8samplers20ProbabilisticSamplerESt14default_deleteIS2_EEERKNSt13tuple_elementIXT_ESt5tupleIJDpT0_EEE4typeERKSA_
_ZSt12__get_helperILm0EPN13jaegertracing8samplers20ProbabilisticSamplerEJSt14default_deleteIS2_EEERKT0_RKSt11_Tuple_implIXT_EJS6_DpT1_EE
_ZNSt11_Tuple_implILm0EJPN13jaegertracing8samplers20ProbabilisticSamplerESt14default_deleteIS2_EEE7_M_headERKS6_
_ZNSt10_Head_baseILm0EPN13jaegertracing8samplers20ProbabilisticSamplerELb0EE7_M_headERKS4_
_ZNSt15__uniq_ptr_implIN13jaegertracing8samplers20ProbabilisticSamplerESt14default_deleteIS2_EE10_M_deleterEv
_ZSt3getILm1EJPN13jaegertracing8samplers20ProbabilisticSamplerESt14default_deleteIS2_EEERNSt13tuple_elementIXT_ESt5tupleIJDpT0_EEE4typeERSA_
_ZSt12__get_helperILm1ESt14default_deleteIN13jaegertracing8samplers20ProbabilisticSamplerEEJEERT0_RSt11_Tuple_implIXT_EJS5_DpT1_EE
_ZNSt11_Tuple_implILm1EJSt14default_deleteIN13jaegertracing8samplers20ProbabilisticSamplerEEEE7_M_headERS5_
_ZNSt10_Head_baseILm1ESt14default_deleteIN13jaegertracing8samplers20ProbabilisticSamplerEELb1EE7_M_headERS5_
_ZNSt5tupleIJPN13jaegertracing8samplers7SamplerESt14default_deleteIS2_EEEC2IRS3_S4_INS1_20ProbabilisticSamplerEELb1EEEOT_OT0_
_ZNSt11_Tuple_implILm0EJPN13jaegertracing8samplers7SamplerESt14default_deleteIS2_EEEC2IRS3_JS4_INS1_20ProbabilisticSamplerEEEvEEOT_DpOT0_
_ZNSt11_Tuple_implILm1EJSt14default_deleteIN13jaegertracing8samplers7SamplerEEEEC2IS0_INS2_20ProbabilisticSamplerEEEEOT_
_ZNSt10_Head_baseILm1ESt14default_deleteIN13jaegertracing8samplers7SamplerEELb1EEC2IS0_INS2_20ProbabilisticSamplerEEEEOT_
_ZNSt14default_deleteIN13jaegertracing8samplers7SamplerEEC2INS1_20ProbabilisticSamplerEvEERKS_IT_E
_ZNKSt14default_deleteIN13jaegertracing8samplers20ProbabilisticSamplerEEclEPS2_
_ZSt4moveIRPN13jaegertracing8samplers20ProbabilisticSamplerEEONSt16remove_referenceIT_E4typeEOS6_
_ZNSt15__uniq_ptr_implIN13jaegertracing8samplers7SamplerESt14default_deleteIS2_EEC2Ev
_ZNSt5tupleIJPN13jaegertracing8samplers7SamplerESt14default_deleteIS2_EEEC2IS3_S5_Lb1EEEv
_ZNSt11_Tuple_implILm0EJPN13jaegertracing8samplers7SamplerESt14default_deleteIS2_EEEC2Ev
_ZNSt11_Tuple_implILm1EJSt14default_deleteIN13jaegertracing8samplers7SamplerEEEEC2Ev
_ZNSt10_Head_baseILm0EPN13jaegertracing8samplers7SamplerELb0EEC2Ev
_ZNSt10_Head_baseILm1ESt14default_deleteIN13jaegertracing8samplers7SamplerEELb1EEC2Ev
_ZN13jaegertracing5utils11RateLimiterINSt6chrono3_V212steady_clockEEC2Edd
_ZN13jaegertracing8samplers19RateLimitingSamplerD2Ev
_ZN13jaegertracing8samplers19RateLimitingSamplerD0Ev
_ZN13jaegertracing8samplers19RateLimitingSampler9isSampledERKNS_7TraceIDERKNSt7__cxx1112basic_stringIcSt11char_traitsIcESaIcEEE
_ZN13jaegertracing8samplers19RateLimitingSampler5closeEv
_ZNK13jaegertracing8samplers19RateLimitingSampler4typeEv
_ZNSt6chrono3_V212steady_clock3nowEv
_ZN13jaegertracing5utils11RateLimiterINSt6chrono3_V212steady_clockEE11checkCreditEd
_ZNSt6chronomiINS_3_V212steady_clockENS_8durationIlSt5ratioILl1ELl1000000000EEEES6_EENSt11common_typeIJT0_T1_EE4typeERKNS_10time_pointIT_S8_EERKNSC_ISD_S9_EE
_ZNSt6chrono8durationIdSt5ratioILl1ELl1EEEC2IlS1_ILl1ELl1000000000EEvEERKNS0_IT_T0_EE
_ZNKSt6chrono8durationIdSt5ratioILl1ELl1EEE5countEv
_ZNSt6chronomiIlSt5ratioILl1ELl1000000000EElS2_EENSt11common_typeIJNS_8durationIT_T0_EENS4_IT1_T2_EEEE4typeERKS7_RKSA_
_ZNKSt6chrono10time_pointINS_3_V212steady_clockENS_8durationIlSt5ratioILl1ELl1000000000EEEEE16time_since_epochEv
_ZNSt6chrono13duration_castINS_8durationIdSt5ratioILl1ELl1EEEElS2_ILl1ELl1000000000EEEENSt9enable_ifIXsr13__is_durationIT_EE5valueES7_E4typeERKNS1_IT0_T1_EE
_ZNSt6chrono20__duration_cast_implINS_8durationIdSt5ratioILl1ELl1EEEES2_ILl1ELl1000000000EEdLb1ELb0EE6__castIlS5_EES4_RKNS1_IT_T0_EE
_ZNSt6chrono8durationIdSt5ratioILl1ELl1EEEC2IdvEERKT_
_ZNSt15__uniq_ptr_implIN13jaegertracing8samplers19RateLimitingSamplerESt14default_deleteIS2_EEC2EPS2_
_ZNSt5tupleIJPN13jaegertracing8samplers19RateLimitingSamplerESt14default_deleteIS2_EEEC2IS3_S5_Lb1EEEv
_ZNSt15__uniq_ptr_implIN13jaegertracing8samplers19RateLimitingSamplerESt14default_deleteIS2_EE6_M_ptrEv
_ZNSt11_Tuple_implILm0EJPN13jaegertracing8samplers19RateLimitingSamplerESt14default_deleteIS2_EEEC2Ev
_ZNSt11_Tuple_implILm1EJSt14default_deleteIN13jaegertracing8samplers19RateLimitingSamplerEEEEC2Ev
_ZNSt10_Head_baseILm0EPN13jaegertracing8samplers19RateLimitingSamplerELb0EEC2Ev
_ZNSt10_Head_baseILm1ESt14default_deleteIN13jaegertracing8samplers19RateLimitingSamplerEELb1EEC2Ev
_ZSt3getILm0EJPN13jaegertracing8samplers19RateLimitingSamplerESt14default_deleteIS2_EEERNSt13tuple_elementIXT_ESt5tupleIJDpT0_EEE4typeERSA_
_ZSt12__get_helperILm0EPN13jaegertracing8samplers19RateLimitingSamplerEJSt14default_deleteIS2_EEERT0_RSt11_Tuple_implIXT_EJS6_DpT1_EE
_ZNSt11_Tuple_implILm0EJPN13jaegertracing8samplers19RateLimitingSamplerESt14default_deleteIS2_EEE7_M_headERS6_
_ZNSt10_Head_baseILm0EPN13jaegertracing8samplers19RateLimitingSamplerELb0EE7_M_headERS4_
_ZNSt10unique_ptrIN13jaegertracing8samplers19RateLimitingSamplerESt14default_deleteIS2_EE7releaseEv
_ZSt7forwardISt14default_deleteIN13jaegertracing8samplers19RateLimitingSamplerEEEOT_RNSt16remove_referenceIS5_E4typeE
_ZNSt10unique_ptrIN13jaegertracing8samplers19RateLimitingSamplerESt14default_deleteIS2_EE11get_deleterEv
_ZNSt15__uniq_ptr_implIN13jaegertracing8samplers7SamplerESt14default_deleteIS2_EEC2IS3_INS1_19RateLimitingSamplerEEEEPS2_OT_
_ZNKSt10unique_ptrIN13jaegertracing8samplers19RateLimitingSamplerESt14default_deleteIS2_EE3getEv
_ZNKSt15__uniq_ptr_implIN13jaegertracing8samplers19RateLimitingSamplerESt14default_deleteIS2_EE6_M_ptrEv
_ZSt3getILm0EJPN13jaegertracing8samplers19RateLimitingSamplerESt14default_deleteIS2_EEERKNSt13tuple_elementIXT_ESt5tupleIJDpT0_EEE4typeERKSA_
_ZSt12__get_helperILm0EPN13jaegertracing8samplers19RateLimitingSamplerEJSt14default_deleteIS2_EEERKT0_RKSt11_Tuple_implIXT_EJS6_DpT1_EE
_ZNSt11_Tuple_implILm0EJPN13jaegertracing8samplers19RateLimitingSamplerESt14default_deleteIS2_EEE7_M_headERKS6_
_ZNSt10_Head_baseILm0EPN13jaegertracing8samplers19RateLimitingSamplerELb0EE7_M_headERKS4_
_ZNSt15__uniq_ptr_implIN13jaegertracing8samplers19RateLimitingSamplerESt14default_deleteIS2_EE10_M_deleterEv
_ZSt3getILm1EJPN13jaegertracing8samplers19RateLimitingSamplerESt14default_deleteIS2_EEERNSt13tuple_elementIXT_ESt5tupleIJDpT0_EEE4typeERSA_
_ZSt12__get_helperILm1ESt14default_deleteIN13jaegertracing8samplers19RateLimitingSamplerEEJEERT0_RSt11_Tuple_implIXT_EJS5_DpT1_EE
_ZNSt11_Tuple_implILm1EJSt14default_deleteIN13jaegertracing8samplers19RateLimitingSamplerEEEE7_M_headERS5_
_ZNSt10_Head_baseILm1ESt14default_deleteIN13jaegertracing8samplers19RateLimitingSamplerEELb1EE7_M_headERS5_
_ZNSt5tupleIJPN13jaegertracing8samplers7SamplerESt14default_deleteIS2_EEEC2IRS3_S4_INS1_19RateLimitingSamplerEELb1EEEOT_OT0_
_ZNSt11_Tuple_implILm0EJPN13jaegertracing8samplers7SamplerESt14default_deleteIS2_EEEC2IRS3_JS4_INS1_19RateLimitingSamplerEEEvEEOT_DpOT0_
_ZNSt11_Tuple_implILm1EJSt14default_deleteIN13jaegertracing8samplers7SamplerEEEEC2IS0_INS2_19RateLimitingSamplerEEEEOT_
_ZNSt10_Head_baseILm1ESt14default_deleteIN13jaegertracing8samplers7SamplerEELb1EEC2IS0_INS2_19RateLimitingSamplerEEEEOT_
_ZNSt14default_deleteIN13jaegertracing8samplers7SamplerEEC2INS1_19RateLimitingSamplerEvEERKS_IT_E
_ZNKSt14default_deleteIN13jaegertracing8samplers19RateLimitingSamplerEEclEPS2_
_ZSt4moveIRPN13jaegertracing8samplers19RateLimitingSamplerEEONSt16remove_referenceIT_E4typeEOS6_
_ZNSt15__uniq_ptr_implIN13jaegertracing8samplers25RemotelyControlledSamplerESt14default_deleteIS2_EEC2EPS2_
_ZNSt5tupleIJPN13jaegertracing8samplers25RemotelyControlledSamplerESt14default_deleteIS2_EEEC2IS3_S5_Lb1EEEv
_ZNSt15__uniq_ptr_implIN13jaegertracing8samplers25RemotelyControlledSamplerESt14default_deleteIS2_EE6_M_ptrEv
_ZNSt11_Tuple_implILm0EJPN13jaegertracing8samplers25RemotelyControlledSamplerESt14default_deleteIS2_EEEC2Ev
_ZNSt11_Tuple_implILm1EJSt14default_deleteIN13jaegertracing8samplers25RemotelyControlledSamplerEEEEC2Ev
_ZNSt10_Head_baseILm0EPN13jaegertracing8samplers25RemotelyControlledSamplerELb0EEC2Ev
_ZNSt10_Head_baseILm1ESt14default_deleteIN13jaegertracing8samplers25RemotelyControlledSamplerEELb1EEC2Ev
_ZSt3getILm0EJPN13jaegertracing8samplers25RemotelyControlledSamplerESt14default_deleteIS2_EEERNSt13tuple_elementIXT_ESt5tupleIJDpT0_EEE4typeERSA_
_ZSt12__get_helperILm0EPN13jaegertracing8samplers25RemotelyControlledSamplerEJSt14default_deleteIS2_EEERT0_RSt11_Tuple_implIXT_EJS6_DpT1_EE
_ZNSt11_Tuple_implILm0EJPN13jaegertracing8samplers25RemotelyControlledSamplerESt14default_deleteIS2_EEE7_M_headERS6_
_ZNSt10_Head_baseILm0EPN13jaegertracing8samplers25RemotelyControlledSamplerELb0EE7_M_headERS4_
_ZNSt10unique_ptrIN13jaegertracing8samplers25RemotelyControlledSamplerESt14default_deleteIS2_EE7releaseEv
_ZSt7forwardISt14default_deleteIN13jaegertracing8samplers25RemotelyControlledSamplerEEEOT_RNSt16remove_referenceIS5_E4typeE
_ZNSt10unique_ptrIN13jaegertracing8samplers25RemotelyControlledSamplerESt14default_deleteIS2_EE11get_deleterEv
_ZNSt15__uniq_ptr_implIN13jaegertracing8samplers7SamplerESt14default_deleteIS2_EEC2IS3_INS1_25RemotelyControlledSamplerEEEEPS2_OT_
_ZNKSt10unique_ptrIN13jaegertracing8samplers25RemotelyControlledSamplerESt14default_deleteIS2_EE3getEv
_ZNKSt15__uniq_ptr_implIN13jaegertracing8samplers25RemotelyControlledSamplerESt14default_deleteIS2_EE6_M_ptrEv
_ZSt3getILm0EJPN13jaegertracing8samplers25RemotelyControlledSamplerESt14default_deleteIS2_EEERKNSt13tuple_elementIXT_ESt5tupleIJDpT0_EEE4typeERKSA_
_ZSt12__get_helperILm0EPN13jaegertracing8samplers25RemotelyControlledSamplerEJSt14default_deleteIS2_EEERKT0_RKSt11_Tuple_implIXT_EJS6_DpT1_EE
_ZNSt11_Tuple_implILm0EJPN13jaegertracing8samplers25RemotelyControlledSamplerESt14default_deleteIS2_EEE7_M_headERKS6_
_ZNSt10_Head_baseILm0EPN13jaegertracing8samplers25RemotelyControlledSamplerELb0EE7_M_headERKS4_
_ZNSt15__uniq_ptr_implIN13jaegertracing8samplers25RemotelyControlledSamplerESt14default_deleteIS2_EE10_M_deleterEv
_ZSt3getILm1EJPN13jaegertracing8samplers25RemotelyControlledSamplerESt14default_deleteIS2_EEERNSt13tuple_elementIXT_ESt5tupleIJDpT0_EEE4typeERSA_
_ZSt12__get_helperILm1ESt14default_deleteIN13jaegertracing8samplers25RemotelyControlledSamplerEEJEERT0_RSt11_Tuple_implIXT_EJS5_DpT1_EE
_ZNSt11_Tuple_implILm1EJSt14default_deleteIN13jaegertracing8samplers25RemotelyControlledSamplerEEEE7_M_headERS5_
_ZNSt10_Head_baseILm1ESt14default_deleteIN13jaegertracing8samplers25RemotelyControlledSamplerEELb1EE7_M_headERS5_
_ZNSt5tupleIJPN13jaegertracing8samplers7SamplerESt14default_deleteIS2_EEEC2IRS3_S4_INS1_25RemotelyControlledSamplerEELb1EEEOT_OT0_
_ZNSt11_Tuple_implILm0EJPN13jaegertracing8samplers7SamplerESt14default_deleteIS2_EEEC2IRS3_JS4_INS1_25RemotelyControlledSamplerEEEvEEOT_DpOT0_
_ZNSt11_Tuple_implILm1EJSt14default_deleteIN13jaegertracing8samplers7SamplerEEEEC2IS0_INS2_25RemotelyControlledSamplerEEEEOT_
_ZNSt10_Head_baseILm1ESt14default_deleteIN13jaegertracing8samplers7SamplerEELb1EEC2IS0_INS2_25RemotelyControlledSamplerEEEEOT_
_ZNSt14default_deleteIN13jaegertracing8samplers7SamplerEEC2INS1_25RemotelyControlledSamplerEvEERKS_IT_E
_ZNKSt14default_deleteIN13jaegertracing8samplers25RemotelyControlledSamplerEEclEPS2_
_ZSt4moveIRPN13jaegertracing8samplers25RemotelyControlledSamplerEEONSt16remove_referenceIT_E4typeEOS6_
_ZNKSt19__shared_ptr_accessIN13jaegertracing7logging6LoggerELN9__gnu_cxx12_Lock_policyE2ELb0ELb0EE6_M_getEv
_ZNKSt12__shared_ptrIN13jaegertracing7logging6LoggerELN9__gnu_cxx12_Lock_policyE2EE3getEv
_ZNKSt19__shared_ptr_accessIN13jaegertracing7metrics7MetricsELN9__gnu_cxx12_Lock_policyE2ELb0ELb0EE6_M_getEv
_ZNKSt12__shared_ptrIN13jaegertracing7metrics7MetricsELN9__gnu_cxx12_Lock_policyE2EE3getEv
_ZSt4moveIRSt10unique_ptrIN13jaegertracing8samplers7SamplerESt14default_deleteIS3_EEEONSt16remove_referenceIT_E4typeEOS9_
_ZNSt12__shared_ptrIN13jaegertracing8samplers7SamplerELN9__gnu_cxx12_Lock_policyE2EEC2IS2_St14default_deleteIS2_EvEEOSt10unique_ptrIT_T0_E
_ZNKSt10unique_ptrIN13jaegertracing8samplers7SamplerESt14default_deleteIS2_EE3getEv
_ZSt12__to_addressIN13jaegertracing8samplers7SamplerEEPT_S4_
_ZNSt14__shared_countILN9__gnu_cxx12_Lock_policyE2EEC2IN13jaegertracing8samplers7SamplerESt14default_deleteIS6_EEEOSt10unique_ptrIT_T0_E
_ZNSt14__shared_countILN9__gnu_cxx12_Lock_policyE2EEaSERKS2_
_ZNSt12__shared_ptrIN13jaegertracing8samplers7SamplerELN9__gnu_cxx12_Lock_policyE2EE31_M_enable_shared_from_this_withIS2_S2_EENSt9enable_ifIXntsr15__has_esft_baseIT0_EE5valueEvE4typeEPT_
_ZNKSt15__uniq_ptr_implIN13jaegertracing8samplers7SamplerESt14default_deleteIS2_EE6_M_ptrEv
_ZSt3getILm0EJPN13jaegertracing8samplers7SamplerESt14default_deleteIS2_EEERKNSt13tuple_elementIXT_ESt5tupleIJDpT0_EEE4typeERKSA_
_ZSt12__get_helperILm0EPN13jaegertracing8samplers7SamplerEJSt14default_deleteIS2_EEERKT0_RKSt11_Tuple_implIXT_EJS6_DpT1_EE
_ZNSt11_Tuple_implILm0EJPN13jaegertracing8samplers7SamplerESt14default_deleteIS2_EEE7_M_headERKS6_
_ZNSt10_Head_baseILm0EPN13jaegertracing8samplers7SamplerELb0EE7_M_headERKS4_
_ZNSaISt19_Sp_counted_deleterIPN13jaegertracing8samplers7SamplerESt14default_deleteIS2_ESaIvELN9__gnu_cxx12_Lock_policyE2EEEC2Ev
_ZNSt16allocator_traitsISaISt19_Sp_counted_deleterIPN13jaegertracing8samplers7SamplerESt14default_deleteIS3_ESaIvELN9__gnu_cxx12_Lock_policyE2EEEE8allocateERSB_m
_ZNSt16allocator_traitsISaISt19_Sp_counted_deleterIPN13jaegertracing8samplers7SamplerESt14default_deleteIS3_ESaIvELN9__gnu_cxx12_Lock_policyE2EEEE9constructISA_JS4_RS6_EEEvRSB_PT_DpOT0_
_ZNSt10unique_ptrIN13jaegertracing8samplers7SamplerESt14default_deleteIS2_EE7releaseEv
_ZNSt10unique_ptrIN13jaegertracing8samplers7SamplerESt14default_deleteIS2_EE11get_deleterEv
_ZNSaISt19_Sp_counted_deleterIPN13jaegertracing8samplers7SamplerESt14default_deleteIS2_ESaIvELN9__gnu_cxx12_Lock_policyE2EEED2Ev
_ZN9__gnu_cxx13new_allocatorISt19_Sp_counted_deleterIPN13jaegertracing8samplers7SamplerESt14default_deleteIS4_ESaIvELNS_12_Lock_policyE2EEEC2Ev
_ZN9__gnu_cxx13new_allocatorISt19_Sp_counted_deleterIPN13jaegertracing8samplers7SamplerESt14default_deleteIS4_ESaIvELNS_12_Lock_policyE2EEE8allocateEmPKv
_ZNK9__gnu_cxx13new_allocatorISt19_Sp_counted_deleterIPN13jaegertracing8samplers7SamplerESt14default_deleteIS4_ESaIvELNS_12_Lock_policyE2EEE8max_sizeEv
_ZN9__gnu_cxx13new_allocatorISt19_Sp_counted_deleterIPN13jaegertracing8samplers7SamplerESt14default_deleteIS4_ESaIvELNS_12_Lock_policyE2EEE9constructISA_JS5_RS7_EEEvPT_DpOT0_
_ZSt7forwardIPN13jaegertracing8samplers7SamplerEEOT_RNSt16remove_referenceIS4_E4typeE
_ZSt7forwardIRSt14default_deleteIN13jaegertracing8samplers7SamplerEEEOT_RNSt16remove_referenceIS6_E4typeE
_ZNSt19_Sp_counted_deleterIPN13jaegertracing8samplers7SamplerESt14default_deleteIS2_ESaIvELN9__gnu_cxx12_Lock_policyE2EEC2ES3_S5_
_ZSt4moveIRSt14default_deleteIN13jaegertracing8samplers7SamplerEEEONSt16remove_referenceIT_E4typeEOS7_
_ZNSt19_Sp_counted_deleterIPN13jaegertracing8samplers7SamplerESt14default_deleteIS2_ESaIvELN9__gnu_cxx12_Lock_policyE2EE5_ImplC2ES3_S5_RKS6_
_ZNSt19_Sp_counted_deleterIPN13jaegertracing8samplers7SamplerESt14default_deleteIS2_ESaIvELN9__gnu_cxx12_Lock_policyE2EED2Ev
_ZNSt19_Sp_counted_deleterIPN13jaegertracing8samplers7SamplerESt14default_deleteIS2_ESaIvELN9__gnu_cxx12_Lock_policyE2EED0Ev
_ZNSt19_Sp_counted_deleterIPN13jaegertracing8samplers7SamplerESt14default_deleteIS2_ESaIvELN9__gnu_cxx12_Lock_policyE2EE10_M_disposeEv
_ZNSt19_Sp_counted_deleterIPN13jaegertracing8samplers7SamplerESt14default_deleteIS2_ESaIvELN9__gnu_cxx12_Lock_policyE2EE10_M_destroyEv
_ZNSt19_Sp_counted_deleterIPN13jaegertracing8samplers7SamplerESt14default_deleteIS2_ESaIvELN9__gnu_cxx12_Lock_policyE2EE14_M_get_deleterERKSt9type_info
_ZNSt14_Sp_ebo_helperILi0ESt14default_deleteIN13jaegertracing8samplers7SamplerEELb1EEC2EOS4_
_ZNSt14_Sp_ebo_helperILi1ESaIvELb1EEC2ERKS0_
_ZNSt19_Sp_counted_deleterIPN13jaegertracing8samplers7SamplerESt14default_deleteIS2_ESaIvELN9__gnu_cxx12_Lock_policyE2EE5_Impl6_M_delEv
_ZNKSt14default_deleteIN13jaegertracing8samplers7SamplerEEclEPS2_
_ZNSt14_Sp_ebo_helperILi0ESt14default_deleteIN13jaegertracing8samplers7SamplerEELb1EE6_S_getERS5_
_ZNSt19_Sp_counted_deleterIPN13jaegertracing8samplers7SamplerESt14default_deleteIS2_ESaIvELN9__gnu_cxx12_Lock_policyE2EE5_Impl8_M_allocEv
_ZNSaISt19_Sp_counted_deleterIPN13jaegertracing8samplers7SamplerESt14default_deleteIS2_ESaIvELN9__gnu_cxx12_Lock_policyE2EEEC2IvEERKSaIT_E
_ZNSt15__allocated_ptrISaISt19_Sp_counted_deleterIPN13jaegertracing8samplers7SamplerESt14default_deleteIS3_ESaIvELN9__gnu_cxx12_Lock_policyE2EEEEC2ERSB_PSA_
_ZNSt15__allocated_ptrISaISt19_Sp_counted_deleterIPN13jaegertracing8samplers7SamplerESt14default_deleteIS3_ESaIvELN9__gnu_cxx12_Lock_policyE2EEEED2Ev
_ZNSt14_Sp_ebo_helperILi1ESaIvELb1EE6_S_getERS1_
_ZSt11__addressofISaISt19_Sp_counted_deleterIPN13jaegertracing8samplers7SamplerESt14default_deleteIS3_ESaIvELN9__gnu_cxx12_Lock_policyE2EEEEPT_RSC_
_ZNSt16allocator_traitsISaISt19_Sp_counted_deleterIPN13jaegertracing8samplers7SamplerESt14default_deleteIS3_ESaIvELN9__gnu_cxx12_Lock_policyE2EEEE10deallocateERSB_PSA_m
_ZN9__gnu_cxx13new_allocatorISt19_Sp_counted_deleterIPN13jaegertracing8samplers7SamplerESt14default_deleteIS4_ESaIvELNS_12_Lock_policyE2EEE10deallocateEPSA_m
_ZSt11__addressofISt14default_deleteIN13jaegertracing8samplers7SamplerEEEPT_RS5_
_ZNSt15__uniq_ptr_implIN13jaegertracing8samplers7SamplerESt14default_deleteIS2_EE6_M_ptrEv
_ZSt3getILm0EJPN13jaegertracing8samplers7SamplerESt14default_deleteIS2_EEERNSt13tuple_elementIXT_ESt5tupleIJDpT0_EEE4typeERSA_
_ZSt12__get_helperILm0EPN13jaegertracing8samplers7SamplerEJSt14default_deleteIS2_EEERT0_RSt11_Tuple_implIXT_EJS6_DpT1_EE
_ZNSt11_Tuple_implILm0EJPN13jaegertracing8samplers7SamplerESt14default_deleteIS2_EEE7_M_headERS6_
_ZNSt10_Head_baseILm0EPN13jaegertracing8samplers7SamplerELb0EE7_M_headERS4_
_ZNSt15__uniq_ptr_implIN13jaegertracing8samplers7SamplerESt14default_deleteIS2_EE10_M_deleterEv
_ZSt3getILm1EJPN13jaegertracing8samplers7SamplerESt14default_deleteIS2_EEERNSt13tuple_elementIXT_ESt5tupleIJDpT0_EEE4typeERSA_
_ZSt12__get_helperILm1ESt14default_deleteIN13jaegertracing8samplers7SamplerEEJEERT0_RSt11_Tuple_implIXT_EJS5_DpT1_EE
_ZNSt11_Tuple_implILm1EJSt14default_deleteIN13jaegertracing8samplers7SamplerEEEE7_M_headERS5_
_ZNSt10_Head_baseILm1ESt14default_deleteIN13jaegertracing8samplers7SamplerEELb1EE7_M_headERS5_
_ZN9__gnu_cxx13new_allocatorISt19_Sp_counted_deleterIPN13jaegertracing8samplers7SamplerESt14default_deleteIS4_ESaIvELNS_12_Lock_policyE2EEED2Ev
_ZSt4moveIRPN13jaegertracing8samplers7SamplerEEONSt16remove_referenceIT_E4typeEOS6_
_ZN13jaegertracing3net9IPAddress2v4ERKNSt7__cxx1112basic_stringIcSt11char_traitsIcESaIcEEE
_ZN13jaegertracing12UDPTransportC1ERKNS_3net9IPAddressEi
_ZNSt10unique_ptrIN13jaegertracing12UDPTransportESt14default_deleteIS1_EEC2IS3_vEEPS1_
_ZSt4moveIRSt10unique_ptrIN13jaegertracing12UDPTransportESt14default_deleteIS2_EEEONSt16remove_referenceIT_E4typeEOS8_
_ZNSt10unique_ptrIN13jaegertracing9TransportESt14default_deleteIS1_EEC2INS0_12UDPTransportES2_IS6_EvEEOS_IT_T0_E
_ZN13jaegertracing9reporters14RemoteReporterC1ERKNSt6chrono8durationIlSt5ratioILl1ELl1000000000EEEEiOSt10unique_ptrINS_9TransportESt14default_deleteISA_EERNS_7logging6LoggerERNS_7metrics7MetricsE
_ZNSt10unique_ptrIN13jaegertracing9reporters14RemoteReporterESt14default_deleteIS2_EEC2IS4_vEEPS2_
_ZNSt10unique_ptrIN13jaegertracing9TransportESt14default_deleteIS1_EED2Ev
_ZSt4moveIRSt10unique_ptrIN13jaegertracing9reporters14RemoteReporterESt14default_deleteIS3_EEEONSt16remove_referenceIT_E4typeEOS9_
_ZNSt10shared_ptrIN13jaegertracing9reporters14RemoteReporterEEC2IS2_St14default_deleteIS2_EvEEOSt10unique_ptrIT_T0_E
_ZNSt10shared_ptrIN13jaegertracing9reporters8ReporterEEC2INS1_14RemoteReporterEvEEOS_IT_E
_ZSt11make_sharedIN13jaegertracing9reporters15LoggingReporterEJRNS0_7logging6LoggerEEESt10shared_ptrIT_EDpOT0_
_ZNSt10shared_ptrIN13jaegertracing9reporters8ReporterEEC2INS1_15LoggingReporterEvEEOS_IT_E
_ZNSaISt10shared_ptrIN13jaegertracing9reporters8ReporterEEEC2Ev
_ZNSt6vectorISt10shared_ptrIN13jaegertracing9reporters8ReporterEESaIS4_EEC2ESt16initializer_listIS4_ERKS5_
_ZN13jaegertracing9reporters17CompositeReporterC2ERKSt6vectorISt10shared_ptrINS0_8ReporterEESaIS5_EE
_ZNSt10unique_ptrIN13jaegertracing9reporters17CompositeReporterESt14default_deleteIS2_EEC2IS4_vEEPS2_
_ZNSt10unique_ptrIN13jaegertracing9reporters8ReporterESt14default_deleteIS2_EEC2INS1_17CompositeReporterES3_IS7_EvEEOS_IT_T0_E
_ZNSt10unique_ptrIN13jaegertracing9reporters17CompositeReporterESt14default_deleteIS2_EED2Ev
_ZNSt6vectorISt10shared_ptrIN13jaegertracing9reporters8ReporterEESaIS4_EED2Ev
_ZNSaISt10shared_ptrIN13jaegertracing9reporters8ReporterEEED2Ev
_ZNSt10shared_ptrIN13jaegertracing9reporters15LoggingReporterEED2Ev
_ZNSt10shared_ptrIN13jaegertracing9reporters14RemoteReporterEED2Ev
_ZNSt10unique_ptrIN13jaegertracing9reporters8ReporterESt14default_deleteIS2_EEC2INS1_14RemoteReporterES3_IS7_EvEEOS_IT_T0_E
_ZNSt10unique_ptrIN13jaegertracing9reporters14RemoteReporterESt14default_deleteIS2_EED2Ev
_ZNSt10unique_ptrIN13jaegertracing12UDPTransportESt14default_deleteIS1_EED2Ev
_ZNKSt7__cxx1112basic_stringIcSt11char_traitsIcESaIcEE4findEcm
_ZNKSt7__cxx1112basic_stringIcSt11char_traitsIcESaIcEE6substrEmm
_ZNSt7__cxx1119basic_istringstreamIcSt11char_traitsIcESaIcEEC1ERKNS_12basic_stringIcS2_S3_EESt13_Ios_Openmode
_ZNKSt9basic_iosIcSt11char_traitsIcEEntEv
_ZNSt7__cxx1119basic_istringstreamIcSt11char_traitsIcESaIcEED1Ev
_ZN13jaegertracing3net9IPAddress2v4ERKNSt7__cxx1112basic_stringIcSt11char_traitsIcESaIcEEEi
_ZN13jaegertracing3net9IPAddress17versionFromStringERKNSt7__cxx1112basic_stringIcSt11char_traitsIcESaIcEEEii
_ZNSt15__uniq_ptr_implIN13jaegertracing12UDPTransportESt14default_deleteIS1_EEC2EPS1_
_ZNSt5tupleIJPN13jaegertracing12UDPTransportESt14default_deleteIS1_EEEC2IS2_S4_Lb1EEEv
_ZNSt15__uniq_ptr_implIN13jaegertracing12UDPTransportESt14default_deleteIS1_EE6_M_ptrEv
_ZNSt11_Tuple_implILm0EJPN13jaegertracing12UDPTransportESt14default_deleteIS1_EEEC2Ev
_ZNSt11_Tuple_implILm1EJSt14default_deleteIN13jaegertracing12UDPTransportEEEEC2Ev
_ZNSt10_Head_baseILm0EPN13jaegertracing12UDPTransportELb0EEC2Ev
_ZNSt10_Head_baseILm1ESt14default_deleteIN13jaegertracing12UDPTransportEELb1EEC2Ev
_ZSt3getILm0EJPN13jaegertracing12UDPTransportESt14default_deleteIS1_EEERNSt13tuple_elementIXT_ESt5tupleIJDpT0_EEE4typeERS9_
_ZSt12__get_helperILm0EPN13jaegertracing12UDPTransportEJSt14default_deleteIS1_EEERT0_RSt11_Tuple_implIXT_EJS5_DpT1_EE
_ZNSt11_Tuple_implILm0EJPN13jaegertracing12UDPTransportESt14default_deleteIS1_EEE7_M_headERS5_
_ZNSt10_Head_baseILm0EPN13jaegertracing12UDPTransportELb0EE7_M_headERS3_
_ZNSt10unique_ptrIN13jaegertracing12UDPTransportESt14default_deleteIS1_EE7releaseEv
_ZSt7forwardISt14default_deleteIN13jaegertracing12UDPTransportEEEOT_RNSt16remove_referenceIS4_E4typeE
_ZNSt10unique_ptrIN13jaegertracing12UDPTransportESt14default_deleteIS1_EE11get_deleterEv
_ZNSt15__uniq_ptr_implIN13jaegertracing9TransportESt14default_deleteIS1_EEC2IS2_INS0_12UDPTransportEEEEPS1_OT_
_ZNKSt10unique_ptrIN13jaegertracing12UDPTransportESt14default_deleteIS1_EE3getEv
_ZNKSt15__uniq_ptr_implIN13jaegertracing12UDPTransportESt14default_deleteIS1_EE6_M_ptrEv
_ZSt3getILm0EJPN13jaegertracing12UDPTransportESt14default_deleteIS1_EEERKNSt13tuple_elementIXT_ESt5tupleIJDpT0_EEE4typeERKS9_
_ZSt12__get_helperILm0EPN13jaegertracing12UDPTransportEJSt14default_deleteIS1_EEERKT0_RKSt11_Tuple_implIXT_EJS5_DpT1_EE
_ZNSt11_Tuple_implILm0EJPN13jaegertracing12UDPTransportESt14default_deleteIS1_EEE7_M_headERKS5_
_ZNSt10_Head_baseILm0EPN13jaegertracing12UDPTransportELb0EE7_M_headERKS3_
_ZNSt15__uniq_ptr_implIN13jaegertracing12UDPTransportESt14default_deleteIS1_EE10_M_deleterEv
_ZSt3getILm1EJPN13jaegertracing12UDPTransportESt14default_deleteIS1_EEERNSt13tuple_elementIXT_ESt5tupleIJDpT0_EEE4typeERS9_
_ZSt12__get_helperILm1ESt14default_deleteIN13jaegertracing12UDPTransportEEJEERT0_RSt11_Tuple_implIXT_EJS4_DpT1_EE
_ZNSt11_Tuple_implILm1EJSt14default_deleteIN13jaegertracing12UDPTransportEEEE7_M_headERS4_
_ZNSt10_Head_baseILm1ESt14default_deleteIN13jaegertracing12UDPTransportEELb1EE7_M_headERS4_
_ZNSt5tupleIJPN13jaegertracing9TransportESt14default_deleteIS1_EEEC2IRS2_S3_INS0_12UDPTransportEELb1EEEOT_OT0_
_ZSt7forwardIRPN13jaegertracing9TransportEEOT_RNSt16remove_referenceIS4_E4typeE
_ZNSt11_Tuple_implILm0EJPN13jaegertracing9TransportESt14default_deleteIS1_EEEC2IRS2_JS3_INS0_12UDPTransportEEEvEEOT_DpOT0_
_ZNSt11_Tuple_implILm1EJSt14default_deleteIN13jaegertracing9TransportEEEEC2IS0_INS1_12UDPTransportEEEEOT_
_ZNSt10_Head_baseILm0EPN13jaegertracing9TransportELb0EEC2IRS2_EEOT_
_ZNSt10_Head_baseILm1ESt14default_deleteIN13jaegertracing9TransportEELb1EEC2IS0_INS1_12UDPTransportEEEEOT_
_ZNSt14default_deleteIN13jaegertracing9TransportEEC2INS0_12UDPTransportEvEERKS_IT_E
_ZNSt15__uniq_ptr_implIN13jaegertracing9reporters14RemoteReporterESt14default_deleteIS2_EEC2EPS2_
_ZNSt5tupleIJPN13jaegertracing9reporters14RemoteReporterESt14default_deleteIS2_EEEC2IS3_S5_Lb1EEEv
_ZNSt15__uniq_ptr_implIN13jaegertracing9reporters14RemoteReporterESt14default_deleteIS2_EE6_M_ptrEv
_ZNSt11_Tuple_implILm0EJPN13jaegertracing9reporters14RemoteReporterESt14default_deleteIS2_EEEC2Ev
_ZNSt11_Tuple_implILm1EJSt14default_deleteIN13jaegertracing9reporters14RemoteReporterEEEEC2Ev
_ZNSt10_Head_baseILm0EPN13jaegertracing9reporters14RemoteReporterELb0EEC2Ev
_ZNSt10_Head_baseILm1ESt14default_deleteIN13jaegertracing9reporters14RemoteReporterEELb1EEC2Ev
_ZSt3getILm0EJPN13jaegertracing9reporters14RemoteReporterESt14default_deleteIS2_EEERNSt13tuple_elementIXT_ESt5tupleIJDpT0_EEE4typeERSA_
_ZSt12__get_helperILm0EPN13jaegertracing9reporters14RemoteReporterEJSt14default_deleteIS2_EEERT0_RSt11_Tuple_implIXT_EJS6_DpT1_EE
_ZNSt11_Tuple_implILm0EJPN13jaegertracing9reporters14RemoteReporterESt14default_deleteIS2_EEE7_M_headERS6_
_ZNSt10_Head_baseILm0EPN13jaegertracing9reporters14RemoteReporterELb0EE7_M_headERS4_
_ZNSt15__uniq_ptr_implIN13jaegertracing9TransportESt14default_deleteIS1_EE6_M_ptrEv
_ZNSt10unique_ptrIN13jaegertracing9TransportESt14default_deleteIS1_EE11get_deleterEv
_ZNKSt14default_deleteIN13jaegertracing9TransportEEclEPS1_
_ZSt4moveIRPN13jaegertracing9TransportEEONSt16remove_referenceIT_E4typeEOS5_
_ZSt3getILm0EJPN13jaegertracing9TransportESt14default_deleteIS1_EEERNSt13tuple_elementIXT_ESt5tupleIJDpT0_EEE4typeERS9_
_ZSt12__get_helperILm0EPN13jaegertracing9TransportEJSt14default_deleteIS1_EEERT0_RSt11_Tuple_implIXT_EJS5_DpT1_EE
_ZNSt11_Tuple_implILm0EJPN13jaegertracing9TransportESt14default_deleteIS1_EEE7_M_headERS5_
_ZNSt10_Head_baseILm0EPN13jaegertracing9TransportELb0EE7_M_headERS3_
_ZNSt15__uniq_ptr_implIN13jaegertracing9TransportESt14default_deleteIS1_EE10_M_deleterEv
_ZSt3getILm1EJPN13jaegertracing9TransportESt14default_deleteIS1_EEERNSt13tuple_elementIXT_ESt5tupleIJDpT0_EEE4typeERS9_
_ZSt12__get_helperILm1ESt14default_deleteIN13jaegertracing9TransportEEJEERT0_RSt11_Tuple_implIXT_EJS4_DpT1_EE
_ZNSt11_Tuple_implILm1EJSt14default_deleteIN13jaegertracing9TransportEEEE7_M_headERS4_
_ZNSt10_Head_baseILm1ESt14default_deleteIN13jaegertracing9TransportEELb1EE7_M_headERS4_
_ZNSt12__shared_ptrIN13jaegertracing9reporters14RemoteReporterELN9__gnu_cxx12_Lock_policyE2EEC2IS2_St14default_deleteIS2_EvEEOSt10unique_ptrIT_T0_E
_ZNKSt10unique_ptrIN13jaegertracing9reporters14RemoteReporterESt14default_deleteIS2_EE3getEv
_ZSt12__to_addressIN13jaegertracing9reporters14RemoteReporterEEPT_S4_
_ZNSt14__shared_countILN9__gnu_cxx12_Lock_policyE2EEC2IN13jaegertracing9reporters14RemoteReporterESt14default_deleteIS6_EEEOSt10unique_ptrIT_T0_E
_ZNSt12__shared_ptrIN13jaegertracing9reporters14RemoteReporterELN9__gnu_cxx12_Lock_policyE2EE31_M_enable_shared_from_this_withIS2_S2_EENSt9enable_ifIXntsr15__has_esft_baseIT0_EE5valueEvE4typeEPT_
_ZNKSt15__uniq_ptr_implIN13jaegertracing9reporters14RemoteReporterESt14default_deleteIS2_EE6_M_ptrEv
_ZSt3getILm0EJPN13jaegertracing9reporters14RemoteReporterESt14default_deleteIS2_EEERKNSt13tuple_elementIXT_ESt5tupleIJDpT0_EEE4typeERKSA_
_ZSt12__get_helperILm0EPN13jaegertracing9reporters14RemoteReporterEJSt14default_deleteIS2_EEERKT0_RKSt11_Tuple_implIXT_EJS6_DpT1_EE
_ZNSt11_Tuple_implILm0EJPN13jaegertracing9reporters14RemoteReporterESt14default_deleteIS2_EEE7_M_headERKS6_
_ZNSt10_Head_baseILm0EPN13jaegertracing9reporters14RemoteReporterELb0EE7_M_headERKS4_
_ZNSaISt19_Sp_counted_deleterIPN13jaegertracing9reporters14RemoteReporterESt14default_deleteIS2_ESaIvELN9__gnu_cxx12_Lock_policyE2EEEC2Ev
_ZNSt16allocator_traitsISaISt19_Sp_counted_deleterIPN13jaegertracing9reporters14RemoteReporterESt14default_deleteIS3_ESaIvELN9__gnu_cxx12_Lock_policyE2EEEE8allocateERSB_m
_ZNSt16allocator_traitsISaISt19_Sp_counted_deleterIPN13jaegertracing9reporters14RemoteReporterESt14default_deleteIS3_ESaIvELN9__gnu_cxx12_Lock_policyE2EEEE9constructISA_JS4_RS6_EEEvRSB_PT_DpOT0_
_ZNSt10unique_ptrIN13jaegertracing9reporters14RemoteReporterESt14default_deleteIS2_EE7releaseEv
_ZNSt10unique_ptrIN13jaegertracing9reporters14RemoteReporterESt14default_deleteIS2_EE11get_deleterEv
_ZNSaISt19_Sp_counted_deleterIPN13jaegertracing9reporters14RemoteReporterESt14default_deleteIS2_ESaIvELN9__gnu_cxx12_Lock_policyE2EEED2Ev
_ZN9__gnu_cxx13new_allocatorISt19_Sp_counted_deleterIPN13jaegertracing9reporters14RemoteReporterESt14default_deleteIS4_ESaIvELNS_12_Lock_policyE2EEEC2Ev
_ZN9__gnu_cxx13new_allocatorISt19_Sp_counted_deleterIPN13jaegertracing9reporters14RemoteReporterESt14default_deleteIS4_ESaIvELNS_12_Lock_policyE2EEE8allocateEmPKv
_ZNK9__gnu_cxx13new_allocatorISt19_Sp_counted_deleterIPN13jaegertracing9reporters14RemoteReporterESt14default_deleteIS4_ESaIvELNS_12_Lock_policyE2EEE8max_sizeEv
_ZN9__gnu_cxx13new_allocatorISt19_Sp_counted_deleterIPN13jaegertracing9reporters14RemoteReporterESt14default_deleteIS4_ESaIvELNS_12_Lock_policyE2EEE9constructISA_JS5_RS7_EEEvPT_DpOT0_
_ZSt7forwardIPN13jaegertracing9reporters14RemoteReporterEEOT_RNSt16remove_referenceIS4_E4typeE
_ZSt7forwardIRSt14default_deleteIN13jaegertracing9reporters14RemoteReporterEEEOT_RNSt16remove_referenceIS6_E4typeE
_ZNSt19_Sp_counted_deleterIPN13jaegertracing9reporters14RemoteReporterESt14default_deleteIS2_ESaIvELN9__gnu_cxx12_Lock_policyE2EEC2ES3_S5_
_ZSt4moveIRSt14default_deleteIN13jaegertracing9reporters14RemoteReporterEEEONSt16remove_referenceIT_E4typeEOS7_
_ZNSt19_Sp_counted_deleterIPN13jaegertracing9reporters14RemoteReporterESt14default_deleteIS2_ESaIvELN9__gnu_cxx12_Lock_policyE2EE5_ImplC2ES3_S5_RKS6_
_ZNSt19_Sp_counted_deleterIPN13jaegertracing9reporters14RemoteReporterESt14default_deleteIS2_ESaIvELN9__gnu_cxx12_Lock_policyE2EED2Ev
_ZNSt19_Sp_counted_deleterIPN13jaegertracing9reporters14RemoteReporterESt14default_deleteIS2_ESaIvELN9__gnu_cxx12_Lock_policyE2EED0Ev
_ZNSt19_Sp_counted_deleterIPN13jaegertracing9reporters14RemoteReporterESt14default_deleteIS2_ESaIvELN9__gnu_cxx12_Lock_policyE2EE10_M_disposeEv
_ZNSt19_Sp_counted_deleterIPN13jaegertracing9reporters14RemoteReporterESt14default_deleteIS2_ESaIvELN9__gnu_cxx12_Lock_policyE2EE10_M_destroyEv
_ZNSt19_Sp_counted_deleterIPN13jaegertracing9reporters14RemoteReporterESt14default_deleteIS2_ESaIvELN9__gnu_cxx12_Lock_policyE2EE14_M_get_deleterERKSt9type_info
_ZNSt14_Sp_ebo_helperILi0ESt14default_deleteIN13jaegertracing9reporters14RemoteReporterEELb1EEC2EOS4_
_ZNSt19_Sp_counted_deleterIPN13jaegertracing9reporters14RemoteReporterESt14default_deleteIS2_ESaIvELN9__gnu_cxx12_Lock_policyE2EE5_Impl6_M_delEv
_ZNKSt14default_deleteIN13jaegertracing9reporters14RemoteReporterEEclEPS2_
_ZNSt14_Sp_ebo_helperILi0ESt14default_deleteIN13jaegertracing9reporters14RemoteReporterEELb1EE6_S_getERS5_
_ZNSt19_Sp_counted_deleterIPN13jaegertracing9reporters14RemoteReporterESt14default_deleteIS2_ESaIvELN9__gnu_cxx12_Lock_policyE2EE5_Impl8_M_allocEv
_ZNSaISt19_Sp_counted_deleterIPN13jaegertracing9reporters14RemoteReporterESt14default_deleteIS2_ESaIvELN9__gnu_cxx12_Lock_policyE2EEEC2IvEERKSaIT_E
_ZNSt15__allocated_ptrISaISt19_Sp_counted_deleterIPN13jaegertracing9reporters14RemoteReporterESt14default_deleteIS3_ESaIvELN9__gnu_cxx12_Lock_policyE2EEEEC2ERSB_PSA_
_ZNSt15__allocated_ptrISaISt19_Sp_counted_deleterIPN13jaegertracing9reporters14RemoteReporterESt14default_deleteIS3_ESaIvELN9__gnu_cxx12_Lock_policyE2EEEED2Ev
_ZSt11__addressofISaISt19_Sp_counted_deleterIPN13jaegertracing9reporters14RemoteReporterESt14default_deleteIS3_ESaIvELN9__gnu_cxx12_Lock_policyE2EEEEPT_RSC_
_ZNSt16allocator_traitsISaISt19_Sp_counted_deleterIPN13jaegertracing9reporters14RemoteReporterESt14default_deleteIS3_ESaIvELN9__gnu_cxx12_Lock_policyE2EEEE10deallocateERSB_PSA_m
_ZN9__gnu_cxx13new_allocatorISt19_Sp_counted_deleterIPN13jaegertracing9reporters14RemoteReporterESt14default_deleteIS4_ESaIvELNS_12_Lock_policyE2EEE10deallocateEPSA_m
_ZSt11__addressofISt14default_deleteIN13jaegertracing9reporters14RemoteReporterEEEPT_RS5_
_ZNSt15__uniq_ptr_implIN13jaegertracing9reporters14RemoteReporterESt14default_deleteIS2_EE10_M_deleterEv
_ZSt3getILm1EJPN13jaegertracing9reporters14RemoteReporterESt14default_deleteIS2_EEERNSt13tuple_elementIXT_ESt5tupleIJDpT0_EEE4typeERSA_
_ZSt12__get_helperILm1ESt14default_deleteIN13jaegertracing9reporters14RemoteReporterEEJEERT0_RSt11_Tuple_implIXT_EJS5_DpT1_EE
_ZNSt11_Tuple_implILm1EJSt14default_deleteIN13jaegertracing9reporters14RemoteReporterEEEE7_M_headERS5_
_ZNSt10_Head_baseILm1ESt14default_deleteIN13jaegertracing9reporters14RemoteReporterEELb1EE7_M_headERS5_
_ZN9__gnu_cxx13new_allocatorISt19_Sp_counted_deleterIPN13jaegertracing9reporters14RemoteReporterESt14default_deleteIS4_ESaIvELNS_12_Lock_policyE2EEED2Ev
_ZSt4moveIRSt10shared_ptrIN13jaegertracing9reporters14RemoteReporterEEEONSt16remove_referenceIT_E4typeEOS7_
_ZNSt12__shared_ptrIN13jaegertracing9reporters8ReporterELN9__gnu_cxx12_Lock_policyE2EEC2INS1_14RemoteReporterEvEEOS_IT_LS4_2EE
_ZSt15allocate_sharedIN13jaegertracing9reporters15LoggingReporterESaIS2_EJRNS0_7logging6LoggerEEESt10shared_ptrIT_ERKT0_DpOT1_
_ZNSaIN13jaegertracing9reporters15LoggingReporterEEC2Ev
_ZSt7forwardIRN13jaegertracing7logging6LoggerEEOT_RNSt16remove_referenceIS4_E4typeE
_ZNSaIN13jaegertracing9reporters15LoggingReporterEED2Ev
_ZNSt10shared_ptrIN13jaegertracing9reporters15LoggingReporterEEC2ISaIS2_EJRNS0_7logging6LoggerEEEESt20_Sp_alloc_shared_tagIT_EDpOT0_
_ZNSt12__shared_ptrIN13jaegertracing9reporters15LoggingReporterELN9__gnu_cxx12_Lock_policyE2EEC2ISaIS2_EJRNS0_7logging6LoggerEEEESt20_Sp_alloc_shared_tagIT_EDpOT0_
_ZNSt14__shared_countILN9__gnu_cxx12_Lock_policyE2EEC2IN13jaegertracing9reporters15LoggingReporterESaIS6_EJRNS4_7logging6LoggerEEEERPT_St20_Sp_alloc_shared_tagIT0_EDpOT1_
_ZNSt12__shared_ptrIN13jaegertracing9reporters15LoggingReporterELN9__gnu_cxx12_Lock_policyE2EE31_M_enable_shared_from_this_withIS2_S2_EENSt9enable_ifIXntsr15__has_esft_baseIT0_EE5valueEvE4typeEPT_
_ZNSaISt23_Sp_counted_ptr_inplaceIN13jaegertracing9reporters15LoggingReporterESaIS2_ELN9__gnu_cxx12_Lock_policyE2EEEC2IS2_EERKSaIT_E
_ZSt18__allocate_guardedISaISt23_Sp_counted_ptr_inplaceIN13jaegertracing9reporters15LoggingReporterESaIS3_ELN9__gnu_cxx12_Lock_policyE2EEEESt15__allocated_ptrIT_ERSA_
_ZNSt15__allocated_ptrISaISt23_Sp_counted_ptr_inplaceIN13jaegertracing9reporters15LoggingReporterESaIS3_ELN9__gnu_cxx12_Lock_policyE2EEEE3getEv
_ZNSaIN13jaegertracing9reporters15LoggingReporterEEC2ERKS2_
_ZNSt23_Sp_counted_ptr_inplaceIN13jaegertracing9reporters15LoggingReporterESaIS2_ELN9__gnu_cxx12_Lock_policyE2EEC2IJRNS0_7logging6LoggerEEEES3_DpOT_
_ZNSt15__allocated_ptrISaISt23_Sp_counted_ptr_inplaceIN13jaegertracing9reporters15LoggingReporterESaIS3_ELN9__gnu_cxx12_Lock_policyE2EEEEaSEDn
_ZNSt23_Sp_counted_ptr_inplaceIN13jaegertracing9reporters15LoggingReporterESaIS2_ELN9__gnu_cxx12_Lock_policyE2EE6_M_ptrEv
_ZNSt15__allocated_ptrISaISt23_Sp_counted_ptr_inplaceIN13jaegertracing9reporters15LoggingReporterESaIS3_ELN9__gnu_cxx12_Lock_policyE2EEEED2Ev
_ZNSaISt23_Sp_counted_ptr_inplaceIN13jaegertracing9reporters15LoggingReporterESaIS2_ELN9__gnu_cxx12_Lock_policyE2EEED2Ev
_ZN9__gnu_cxx13new_allocatorISt23_Sp_counted_ptr_inplaceIN13jaegertracing9reporters15LoggingReporterESaIS4_ELNS_12_Lock_policyE2EEEC2Ev
_ZNSt16allocator_traitsISaISt23_Sp_counted_ptr_inplaceIN13jaegertracing9reporters15LoggingReporterESaIS3_ELN9__gnu_cxx12_Lock_policyE2EEEE8allocateERS8_m
_ZNSt15__allocated_ptrISaISt23_Sp_counted_ptr_inplaceIN13jaegertracing9reporters15LoggingReporterESaIS3_ELN9__gnu_cxx12_Lock_policyE2EEEEC2ERS8_PS7_
_ZN9__gnu_cxx13new_allocatorISt23_Sp_counted_ptr_inplaceIN13jaegertracing9reporters15LoggingReporterESaIS4_ELNS_12_Lock_policyE2EEE8allocateEmPKv
_ZNK9__gnu_cxx13new_allocatorISt23_Sp_counted_ptr_inplaceIN13jaegertracing9reporters15LoggingReporterESaIS4_ELNS_12_Lock_policyE2EEE8max_sizeEv
_ZSt11__addressofISaISt23_Sp_counted_ptr_inplaceIN13jaegertracing9reporters15LoggingReporterESaIS3_ELN9__gnu_cxx12_Lock_policyE2EEEEPT_RS9_
_ZSt12__to_addressISt23_Sp_counted_ptr_inplaceIN13jaegertracing9reporters15LoggingReporterESaIS3_ELN9__gnu_cxx12_Lock_policyE2EEEPT_S9_
_ZN9__gnu_cxx13new_allocatorIN13jaegertracing9reporters15LoggingReporterEEC2ERKS4_
_ZNSt23_Sp_counted_ptr_inplaceIN13jaegertracing9reporters15LoggingReporterESaIS2_ELN9__gnu_cxx12_Lock_policyE2EE5_ImplC2ES3_
_ZNSt16allocator_traitsISaIN13jaegertracing9reporters15LoggingReporterEEE9constructIS2_JRNS0_7logging6LoggerEEEEvRS3_PT_DpOT0_
_ZNSt23_Sp_counted_ptr_inplaceIN13jaegertracing9reporters15LoggingReporterESaIS2_ELN9__gnu_cxx12_Lock_policyE2EE5_ImplD2Ev
_ZNSt23_Sp_counted_ptr_inplaceIN13jaegertracing9reporters15LoggingReporterESaIS2_ELN9__gnu_cxx12_Lock_policyE2EED2Ev
_ZNSt23_Sp_counted_ptr_inplaceIN13jaegertracing9reporters15LoggingReporterESaIS2_ELN9__gnu_cxx12_Lock_policyE2EED0Ev
_ZNSt23_Sp_counted_ptr_inplaceIN13jaegertracing9reporters15LoggingReporterESaIS2_ELN9__gnu_cxx12_Lock_policyE2EE10_M_disposeEv
_ZNSt23_Sp_counted_ptr_inplaceIN13jaegertracing9reporters15LoggingReporterESaIS2_ELN9__gnu_cxx12_Lock_policyE2EE10_M_destroyEv
_ZNSt23_Sp_counted_ptr_inplaceIN13jaegertracing9reporters15LoggingReporterESaIS2_ELN9__gnu_cxx12_Lock_policyE2EE14_M_get_deleterERKSt9type_info
_ZNSt14_Sp_ebo_helperILi0ESaIN13jaegertracing9reporters15LoggingReporterEELb1EEC2ERKS3_
_ZN9__gnu_cxx13new_allocatorIN13jaegertracing9reporters15LoggingReporterEE9constructIS3_JRNS1_7logging6LoggerEEEEvPT_DpOT0_
_ZN13jaegertracing9reporters15LoggingReporterC2ERNS_7logging6LoggerE
_ZN13jaegertracing9reporters8ReporterC2Ev
_ZN13jaegertracing9reporters8ReporterD2Ev
_ZN13jaegertracing9reporters8ReporterD0Ev
_ZNSt14_Sp_ebo_helperILi0ESaIN13jaegertracing9reporters15LoggingReporterEELb1EED2Ev
_ZN9__gnu_cxx13new_allocatorIN13jaegertracing9reporters15LoggingReporterEED2Ev
_ZNSt16allocator_traitsISaIN13jaegertracing9reporters15LoggingReporterEEE7destroyIS2_EEvRS3_PT_
_ZNSt23_Sp_counted_ptr_inplaceIN13jaegertracing9reporters15LoggingReporterESaIS2_ELN9__gnu_cxx12_Lock_policyE2EE5_Impl8_M_allocEv
_ZN9__gnu_cxx13new_allocatorIN13jaegertracing9reporters15LoggingReporterEE7destroyIS3_EEvPT_
_ZNSt14_Sp_ebo_helperILi0ESaIN13jaegertracing9reporters15LoggingReporterEELb1EE6_S_getERS4_
_ZN9__gnu_cxx16__aligned_bufferIN13jaegertracing9reporters15LoggingReporterEE6_M_ptrEv
_ZN9__gnu_cxx16__aligned_bufferIN13jaegertracing9reporters15LoggingReporterEE7_M_addrEv
_ZNSt16allocator_traitsISaISt23_Sp_counted_ptr_inplaceIN13jaegertracing9reporters15LoggingReporterESaIS3_ELN9__gnu_cxx12_Lock_policyE2EEEE10deallocateERS8_PS7_m
_ZN9__gnu_cxx13new_allocatorISt23_Sp_counted_ptr_inplaceIN13jaegertracing9reporters15LoggingReporterESaIS4_ELNS_12_Lock_policyE2EEE10deallocateEPS7_m
_ZN9__gnu_cxx13new_allocatorISt23_Sp_counted_ptr_inplaceIN13jaegertracing9reporters15LoggingReporterESaIS4_ELNS_12_Lock_policyE2EEED2Ev
_ZN9__gnu_cxx13new_allocatorIN13jaegertracing9reporters15LoggingReporterEEC2Ev
_ZSt4moveIRSt10shared_ptrIN13jaegertracing9reporters15LoggingReporterEEEONSt16remove_referenceIT_E4typeEOS7_
_ZNSt12__shared_ptrIN13jaegertracing9reporters8ReporterELN9__gnu_cxx12_Lock_policyE2EEC2INS1_15LoggingReporterEvEEOS_IT_LS4_2EE
_ZN9__gnu_cxx13new_allocatorISt10shared_ptrIN13jaegertracing9reporters8ReporterEEEC2Ev
_ZNSt12_Vector_baseISt10shared_ptrIN13jaegertracing9reporters8ReporterEESaIS4_EEC2ERKS5_
_ZNSt6vectorISt10shared_ptrIN13jaegertracing9reporters8ReporterEESaIS4_EE19_M_range_initializeIPKS4_EEvT_SA_St20forward_iterator_tag
_ZNKSt16initializer_listISt10shared_ptrIN13jaegertracing9reporters8ReporterEEE5beginEv
_ZNKSt16initializer_listISt10shared_ptrIN13jaegertracing9reporters8ReporterEEE3endEv
_ZNSt12_Vector_baseISt10shared_ptrIN13jaegertracing9reporters8ReporterEESaIS4_EED2Ev
_ZNSt12_Vector_baseISt10shared_ptrIN13jaegertracing9reporters8ReporterEESaIS4_EE12_Vector_implC2ERKS5_
_ZNSt12_Vector_baseISt10shared_ptrIN13jaegertracing9reporters8ReporterEESaIS4_EE17_Vector_impl_dataC2Ev
_ZN9__gnu_cxx13new_allocatorISt10shared_ptrIN13jaegertracing9reporters8ReporterEEEC2ERKS6_
_ZSt8distanceIPKSt10shared_ptrIN13jaegertracing9reporters8ReporterEEENSt15iterator_traitsIT_E15difference_typeES8_S8_
_ZNSt12_Vector_baseISt10shared_ptrIN13jaegertracing9reporters8ReporterEESaIS4_EE11_M_allocateEm
_ZNSt6vectorISt10shared_ptrIN13jaegertracing9reporters8ReporterEESaIS4_EE17_S_check_init_lenEmRKS5_
_ZNSt12_Vector_baseISt10shared_ptrIN13jaegertracing9reporters8ReporterEESaIS4_EE19_M_get_Tp_allocatorEv
_ZSt22__uninitialized_copy_aIPKSt10shared_ptrIN13jaegertracing9reporters8ReporterEEPS4_S4_ET0_T_S9_S8_RSaIT1_E
_ZSt10__distanceIPKSt10shared_ptrIN13jaegertracing9reporters8ReporterEEENSt15iterator_traitsIT_E15difference_typeES8_S8_St26random_access_iterator_tag
_ZSt19__iterator_categoryIPKSt10shared_ptrIN13jaegertracing9reporters8ReporterEEENSt15iterator_traitsIT_E17iterator_categoryERKS8_
_ZNSt16allocator_traitsISaISt10shared_ptrIN13jaegertracing9reporters8ReporterEEEE8allocateERS5_m
_ZN9__gnu_cxx13new_allocatorISt10shared_ptrIN13jaegertracing9reporters8ReporterEEE8allocateEmPKv
_ZNK9__gnu_cxx13new_allocatorISt10shared_ptrIN13jaegertracing9reporters8ReporterEEE8max_sizeEv
_ZNSt6vectorISt10shared_ptrIN13jaegertracing9reporters8ReporterEESaIS4_EE11_S_max_sizeERKS5_
_ZNSaISt10shared_ptrIN13jaegertracing9reporters8ReporterEEEC2ERKS4_
_ZNSt16allocator_traitsISaISt10shared_ptrIN13jaegertracing9reporters8ReporterEEEE8max_sizeERKS5_
_ZSt18uninitialized_copyIPKSt10shared_ptrIN13jaegertracing9reporters8ReporterEEPS4_ET0_T_S9_S8_
_ZNSt20__uninitialized_copyILb0EE13__uninit_copyIPKSt10shared_ptrIN13jaegertracing9reporters8ReporterEEPS6_EET0_T_SB_SA_
_ZSt10_ConstructISt10shared_ptrIN13jaegertracing9reporters8ReporterEEJRKS4_EEvPT_DpOT0_
_ZSt11__addressofISt10shared_ptrIN13jaegertracing9reporters8ReporterEEEPT_RS5_
_ZSt8_DestroyIPSt10shared_ptrIN13jaegertracing9reporters8ReporterEEEvT_S6_
_ZSt7forwardIRKSt10shared_ptrIN13jaegertracing9reporters8ReporterEEEOT_RNSt16remove_referenceIS7_E4typeE
_ZNSt10shared_ptrIN13jaegertracing9reporters8ReporterEEC2ERKS3_
_ZNSt12__shared_ptrIN13jaegertracing9reporters8ReporterELN9__gnu_cxx12_Lock_policyE2EEC2ERKS5_
_ZNSt12_Destroy_auxILb0EE9__destroyIPSt10shared_ptrIN13jaegertracing9reporters8ReporterEEEEvT_S8_
_ZSt8_DestroyISt10shared_ptrIN13jaegertracing9reporters8ReporterEEEvPT_
_ZNKSt16initializer_listISt10shared_ptrIN13jaegertracing9reporters8ReporterEEE4sizeEv
_ZNSt12_Vector_baseISt10shared_ptrIN13jaegertracing9reporters8ReporterEESaIS4_EE13_M_deallocateEPS4_m
_ZNSt12_Vector_baseISt10shared_ptrIN13jaegertracing9reporters8ReporterEESaIS4_EE12_Vector_implD2Ev
_ZNSt16allocator_traitsISaISt10shared_ptrIN13jaegertracing9reporters8ReporterEEEE10deallocateERS5_PS4_m
_ZN9__gnu_cxx13new_allocatorISt10shared_ptrIN13jaegertracing9reporters8ReporterEEE10deallocateEPS5_m
_ZN9__gnu_cxx13new_allocatorISt10shared_ptrIN13jaegertracing9reporters8ReporterEEED2Ev
_ZNSt6vectorISt10shared_ptrIN13jaegertracing9reporters8ReporterEESaIS4_EEC2ERKS6_
_ZN13jaegertracing9reporters17CompositeReporterD2Ev
_ZN13jaegertracing9reporters17CompositeReporterD0Ev
_ZN13jaegertracing9reporters17CompositeReporter6reportERKNS_4SpanE
_ZN13jaegertracing9reporters17CompositeReporter5closeEv
_ZNKSt6vectorISt10shared_ptrIN13jaegertracing9reporters8ReporterEESaIS4_EE4sizeEv
_ZN9__gnu_cxx14__alloc_traitsISaISt10shared_ptrIN13jaegertracing9reporters8ReporterEEES5_E17_S_select_on_copyERKS6_
_ZNKSt12_Vector_baseISt10shared_ptrIN13jaegertracing9reporters8ReporterEESaIS4_EE19_M_get_Tp_allocatorEv
_ZNSt12_Vector_baseISt10shared_ptrIN13jaegertracing9reporters8ReporterEESaIS4_EEC2EmRKS5_
_ZSt22__uninitialized_copy_aIN9__gnu_cxx17__normal_iteratorIPKSt10shared_ptrIN13jaegertracing9reporters8ReporterEESt6vectorIS6_SaIS6_EEEEPS6_S6_ET0_T_SF_SE_RSaIT1_E
_ZNKSt6vectorISt10shared_ptrIN13jaegertracing9reporters8ReporterEESaIS4_EE5beginEv
_ZNKSt6vectorISt10shared_ptrIN13jaegertracing9reporters8ReporterEESaIS4_EE3endEv
_ZNSt16allocator_traitsISaISt10shared_ptrIN13jaegertracing9reporters8ReporterEEEE37select_on_container_copy_constructionERKS5_
_ZNSt12_Vector_baseISt10shared_ptrIN13jaegertracing9reporters8ReporterEESaIS4_EE17_M_create_storageEm
_ZSt18uninitialized_copyIN9__gnu_cxx17__normal_iteratorIPKSt10shared_ptrIN13jaegertracing9reporters8ReporterEESt6vectorIS6_SaIS6_EEEEPS6_ET0_T_SF_SE_
_ZNSt20__uninitialized_copyILb0EE13__uninit_copyIN9__gnu_cxx17__normal_iteratorIPKSt10shared_ptrIN13jaegertracing9reporters8ReporterEESt6vectorIS8_SaIS8_EEEEPS8_EET0_T_SH_SG_
_ZN9__gnu_cxxneIPKSt10shared_ptrIN13jaegertracing9reporters8ReporterEESt6vectorIS5_SaIS5_EEEEbRKNS_17__normal_iteratorIT_T0_EESG_
_ZNK9__gnu_cxx17__normal_iteratorIPKSt10shared_ptrIN13jaegertracing9reporters8ReporterEESt6vectorIS5_SaIS5_EEEdeEv
_ZN9__gnu_cxx17__normal_iteratorIPKSt10shared_ptrIN13jaegertracing9reporters8ReporterEESt6vectorIS5_SaIS5_EEEppEv
_ZNK9__gnu_cxx17__normal_iteratorIPKSt10shared_ptrIN13jaegertracing9reporters8ReporterEESt6vectorIS5_SaIS5_EEE4baseEv
_ZN9__gnu_cxx17__normal_iteratorIPKSt10shared_ptrIN13jaegertracing9reporters8ReporterEESt6vectorIS5_SaIS5_EEEC2ERKS7_
_ZSt8for_eachIN9__gnu_cxx17__normal_iteratorIPSt10shared_ptrIN13jaegertracing9reporters8ReporterEESt6vectorIS6_SaIS6_EEEEZNS4_17CompositeReporter6reportERKNS3_4SpanEEUlRKS6_E_ET0_T_SK_SJ_
_ZSt5beginISt6vectorISt10shared_ptrIN13jaegertracing9reporters8ReporterEESaIS5_EEEDTcldtfp_5beginEERT_
_ZSt3endISt6vectorISt10shared_ptrIN13jaegertracing9reporters8ReporterEESaIS5_EEEDTcldtfp_3endEERT_
_ZN9__gnu_cxxneIPSt10shared_ptrIN13jaegertracing9reporters8ReporterEESt6vectorIS5_SaIS5_EEEEbRKNS_17__normal_iteratorIT_T0_EESF_
_ZZN13jaegertracing9reporters17CompositeReporter6reportERKNS_4SpanEENKUlRKSt10shared_ptrINS0_8ReporterEEE_clES9_
_ZNK9__gnu_cxx17__normal_iteratorIPSt10shared_ptrIN13jaegertracing9reporters8ReporterEESt6vectorIS5_SaIS5_EEEdeEv
_ZN9__gnu_cxx17__normal_iteratorIPSt10shared_ptrIN13jaegertracing9reporters8ReporterEESt6vectorIS5_SaIS5_EEEppEv
_ZNK9__gnu_cxx17__normal_iteratorIPSt10shared_ptrIN13jaegertracing9reporters8ReporterEESt6vectorIS5_SaIS5_EEE4baseEv
_ZNKSt19__shared_ptr_accessIN13jaegertracing9reporters8ReporterELN9__gnu_cxx12_Lock_policyE2ELb0ELb0EEptEv
_ZNKSt19__shared_ptr_accessIN13jaegertracing9reporters8ReporterELN9__gnu_cxx12_Lock_policyE2ELb0ELb0EE6_M_getEv
_ZNKSt12__shared_ptrIN13jaegertracing9reporters8ReporterELN9__gnu_cxx12_Lock_policyE2EE3getEv
_ZNSt6vectorISt10shared_ptrIN13jaegertracing9reporters8ReporterEESaIS4_EE5beginEv
_ZN9__gnu_cxx17__normal_iteratorIPSt10shared_ptrIN13jaegertracing9reporters8ReporterEESt6vectorIS5_SaIS5_EEEC2ERKS6_
_ZNSt6vectorISt10shared_ptrIN13jaegertracing9reporters8ReporterEESaIS4_EE3endEv
_ZSt8for_eachIN9__gnu_cxx17__normal_iteratorIPSt10shared_ptrIN13jaegertracing9reporters8ReporterEESt6vectorIS6_SaIS6_EEEEZNS4_17CompositeReporter5closeEvEUlRKS6_E_ET0_T_SH_SG_
_ZZN13jaegertracing9reporters17CompositeReporter5closeEvENKUlRKSt10shared_ptrINS0_8ReporterEEE_clES6_
_ZNSt15__uniq_ptr_implIN13jaegertracing9reporters17CompositeReporterESt14default_deleteIS2_EEC2EPS2_
_ZNSt5tupleIJPN13jaegertracing9reporters17CompositeReporterESt14default_deleteIS2_EEEC2IS3_S5_Lb1EEEv
_ZNSt15__uniq_ptr_implIN13jaegertracing9reporters17CompositeReporterESt14default_deleteIS2_EE6_M_ptrEv
_ZNSt11_Tuple_implILm0EJPN13jaegertracing9reporters17CompositeReporterESt14default_deleteIS2_EEEC2Ev
_ZNSt11_Tuple_implILm1EJSt14default_deleteIN13jaegertracing9reporters17CompositeReporterEEEEC2Ev
_ZNSt10_Head_baseILm0EPN13jaegertracing9reporters17CompositeReporterELb0EEC2Ev
_ZNSt10_Head_baseILm1ESt14default_deleteIN13jaegertracing9reporters17CompositeReporterEELb1EEC2Ev
_ZSt3getILm0EJPN13jaegertracing9reporters17CompositeReporterESt14default_deleteIS2_EEERNSt13tuple_elementIXT_ESt5tupleIJDpT0_EEE4typeERSA_
_ZSt12__get_helperILm0EPN13jaegertracing9reporters17CompositeReporterEJSt14default_deleteIS2_EEERT0_RSt11_Tuple_implIXT_EJS6_DpT1_EE
_ZNSt11_Tuple_implILm0EJPN13jaegertracing9reporters17CompositeReporterESt14default_deleteIS2_EEE7_M_headERS6_
_ZNSt10_Head_baseILm0EPN13jaegertracing9reporters17CompositeReporterELb0EE7_M_headERS4_
_ZNSt10unique_ptrIN13jaegertracing9reporters17CompositeReporterESt14default_deleteIS2_EE7releaseEv
_ZSt7forwardISt14default_deleteIN13jaegertracing9reporters17CompositeReporterEEEOT_RNSt16remove_referenceIS5_E4typeE
_ZNSt10unique_ptrIN13jaegertracing9reporters17CompositeReporterESt14default_deleteIS2_EE11get_deleterEv
_ZNSt15__uniq_ptr_implIN13jaegertracing9reporters8ReporterESt14default_deleteIS2_EEC2IS3_INS1_17CompositeReporterEEEEPS2_OT_
_ZNKSt10unique_ptrIN13jaegertracing9reporters17CompositeReporterESt14default_deleteIS2_EE3getEv
_ZNKSt15__uniq_ptr_implIN13jaegertracing9reporters17CompositeReporterESt14default_deleteIS2_EE6_M_ptrEv
_ZSt3getILm0EJPN13jaegertracing9reporters17CompositeReporterESt14default_deleteIS2_EEERKNSt13tuple_elementIXT_ESt5tupleIJDpT0_EEE4typeERKSA_
_ZSt12__get_helperILm0EPN13jaegertracing9reporters17CompositeReporterEJSt14default_deleteIS2_EEERKT0_RKSt11_Tuple_implIXT_EJS6_DpT1_EE
_ZNSt11_Tuple_implILm0EJPN13jaegertracing9reporters17CompositeReporterESt14default_deleteIS2_EEE7_M_headERKS6_
_ZNSt10_Head_baseILm0EPN13jaegertracing9reporters17CompositeReporterELb0EE7_M_headERKS4_
_ZNSt15__uniq_ptr_implIN13jaegertracing9reporters17CompositeReporterESt14default_deleteIS2_EE10_M_deleterEv
_ZSt3getILm1EJPN13jaegertracing9reporters17CompositeReporterESt14default_deleteIS2_EEERNSt13tuple_elementIXT_ESt5tupleIJDpT0_EEE4typeERSA_
_ZSt12__get_helperILm1ESt14default_deleteIN13jaegertracing9reporters17CompositeReporterEEJEERT0_RSt11_Tuple_implIXT_EJS5_DpT1_EE
_ZNSt11_Tuple_implILm1EJSt14default_deleteIN13jaegertracing9reporters17CompositeReporterEEEE7_M_headERS5_
_ZNSt10_Head_baseILm1ESt14default_deleteIN13jaegertracing9reporters17CompositeReporterEELb1EE7_M_headERS5_
_ZNSt5tupleIJPN13jaegertracing9reporters8ReporterESt14default_deleteIS2_EEEC2IRS3_S4_INS1_17CompositeReporterEELb1EEEOT_OT0_
_ZSt7forwardIRPN13jaegertracing9reporters8ReporterEEOT_RNSt16remove_referenceIS5_E4typeE
_ZNSt11_Tuple_implILm0EJPN13jaegertracing9reporters8ReporterESt14default_deleteIS2_EEEC2IRS3_JS4_INS1_17CompositeReporterEEEvEEOT_DpOT0_
_ZNSt11_Tuple_implILm1EJSt14default_deleteIN13jaegertracing9reporters8ReporterEEEEC2IS0_INS2_17CompositeReporterEEEEOT_
_ZNSt10_Head_baseILm0EPN13jaegertracing9reporters8ReporterELb0EEC2IRS3_EEOT_
_ZNSt10_Head_baseILm1ESt14default_deleteIN13jaegertracing9reporters8ReporterEELb1EEC2IS0_INS2_17CompositeReporterEEEEOT_
_ZNSt14default_deleteIN13jaegertracing9reporters8ReporterEEC2INS1_17CompositeReporterEvEERKS_IT_E
_ZNKSt14default_deleteIN13jaegertracing9reporters17CompositeReporterEEclEPS2_
_ZSt4moveIRPN13jaegertracing9reporters17CompositeReporterEEONSt16remove_referenceIT_E4typeEOS6_
_ZSt8_DestroyIPSt10shared_ptrIN13jaegertracing9reporters8ReporterEES4_EvT_S6_RSaIT0_E
_ZNSt12__shared_ptrIN13jaegertracing9reporters15LoggingReporterELN9__gnu_cxx12_Lock_policyE2EED2Ev
_ZNSt12__shared_ptrIN13jaegertracing9reporters14RemoteReporterELN9__gnu_cxx12_Lock_policyE2EED2Ev
_ZSt7forwardISt14default_deleteIN13jaegertracing9reporters14RemoteReporterEEEOT_RNSt16remove_referenceIS5_E4typeE
_ZNSt15__uniq_ptr_implIN13jaegertracing9reporters8ReporterESt14default_deleteIS2_EEC2IS3_INS1_14RemoteReporterEEEEPS2_OT_
_ZNSt5tupleIJPN13jaegertracing9reporters8ReporterESt14default_deleteIS2_EEEC2IRS3_S4_INS1_14RemoteReporterEELb1EEEOT_OT0_
_ZNSt11_Tuple_implILm0EJPN13jaegertracing9reporters8ReporterESt14default_deleteIS2_EEEC2IRS3_JS4_INS1_14RemoteReporterEEEvEEOT_DpOT0_
_ZNSt11_Tuple_implILm1EJSt14default_deleteIN13jaegertracing9reporters8ReporterEEEEC2IS0_INS2_14RemoteReporterEEEEOT_
_ZNSt10_Head_baseILm1ESt14default_deleteIN13jaegertracing9reporters8ReporterEELb1EEC2IS0_INS2_14RemoteReporterEEEEOT_
_ZNSt14default_deleteIN13jaegertracing9reporters8ReporterEEC2INS1_14RemoteReporterEvEERKS_IT_E
_ZSt4moveIRPN13jaegertracing9reporters14RemoteReporterEEONSt16remove_referenceIT_E4typeEOS6_
_ZNKSt14default_deleteIN13jaegertracing12UDPTransportEEclEPS1_
_ZSt4moveIRPN13jaegertracing12UDPTransportEEONSt16remove_referenceIT_E4typeEOS5_
_ZSt4moveIRSt10unique_ptrIN13jaegertracing9reporters8ReporterESt14default_deleteIS3_EEEONSt16remove_referenceIT_E4typeEOS9_
_ZNSt12__shared_ptrIN13jaegertracing9reporters8ReporterELN9__gnu_cxx12_Lock_policyE2EEC2IS2_St14default_deleteIS2_EvEEOSt10unique_ptrIT_T0_E
_ZNKSt10unique_ptrIN13jaegertracing9reporters8ReporterESt14default_deleteIS2_EE3getEv
_ZSt12__to_addressIN13jaegertracing9reporters8ReporterEEPT_S4_
_ZNSt14__shared_countILN9__gnu_cxx12_Lock_policyE2EEC2IN13jaegertracing9reporters8ReporterESt14default_deleteIS6_EEEOSt10unique_ptrIT_T0_E
_ZNSt12__shared_ptrIN13jaegertracing9reporters8ReporterELN9__gnu_cxx12_Lock_policyE2EE31_M_enable_shared_from_this_withIS2_S2_EENSt9enable_ifIXntsr15__has_esft_baseIT0_EE5valueEvE4typeEPT_
_ZNKSt15__uniq_ptr_implIN13jaegertracing9reporters8ReporterESt14default_deleteIS2_EE6_M_ptrEv
_ZSt3getILm0EJPN13jaegertracing9reporters8ReporterESt14default_deleteIS2_EEERKNSt13tuple_elementIXT_ESt5tupleIJDpT0_EEE4typeERKSA_
_ZSt12__get_helperILm0EPN13jaegertracing9reporters8ReporterEJSt14default_deleteIS2_EEERKT0_RKSt11_Tuple_implIXT_EJS6_DpT1_EE
_ZNSt11_Tuple_implILm0EJPN13jaegertracing9reporters8ReporterESt14default_deleteIS2_EEE7_M_headERKS6_
_ZNSt10_Head_baseILm0EPN13jaegertracing9reporters8ReporterELb0EE7_M_headERKS4_
_ZNSaISt19_Sp_counted_deleterIPN13jaegertracing9reporters8ReporterESt14default_deleteIS2_ESaIvELN9__gnu_cxx12_Lock_policyE2EEEC2Ev
_ZNSt16allocator_traitsISaISt19_Sp_counted_deleterIPN13jaegertracing9reporters8ReporterESt14default_deleteIS3_ESaIvELN9__gnu_cxx12_Lock_policyE2EEEE8allocateERSB_m
_ZNSt16allocator_traitsISaISt19_Sp_counted_deleterIPN13jaegertracing9reporters8ReporterESt14default_deleteIS3_ESaIvELN9__gnu_cxx12_Lock_policyE2EEEE9constructISA_JS4_RS6_EEEvRSB_PT_DpOT0_
_ZNSt10unique_ptrIN13jaegertracing9reporters8ReporterESt14default_deleteIS2_EE7releaseEv
_ZNSt10unique_ptrIN13jaegertracing9reporters8ReporterESt14default_deleteIS2_EE11get_deleterEv
_ZNSaISt19_Sp_counted_deleterIPN13jaegertracing9reporters8ReporterESt14default_deleteIS2_ESaIvELN9__gnu_cxx12_Lock_policyE2EEED2Ev
_ZN9__gnu_cxx13new_allocatorISt19_Sp_counted_deleterIPN13jaegertracing9reporters8ReporterESt14default_deleteIS4_ESaIvELNS_12_Lock_policyE2EEEC2Ev
_ZN9__gnu_cxx13new_allocatorISt19_Sp_counted_deleterIPN13jaegertracing9reporters8ReporterESt14default_deleteIS4_ESaIvELNS_12_Lock_policyE2EEE8allocateEmPKv
_ZNK9__gnu_cxx13new_allocatorISt19_Sp_counted_deleterIPN13jaegertracing9reporters8ReporterESt14default_deleteIS4_ESaIvELNS_12_Lock_policyE2EEE8max_sizeEv
_ZN9__gnu_cxx13new_allocatorISt19_Sp_counted_deleterIPN13jaegertracing9reporters8ReporterESt14default_deleteIS4_ESaIvELNS_12_Lock_policyE2EEE9constructISA_JS5_RS7_EEEvPT_DpOT0_
_ZSt7forwardIPN13jaegertracing9reporters8ReporterEEOT_RNSt16remove_referenceIS4_E4typeE
_ZSt7forwardIRSt14default_deleteIN13jaegertracing9reporters8ReporterEEEOT_RNSt16remove_referenceIS6_E4typeE
_ZNSt19_Sp_counted_deleterIPN13jaegertracing9reporters8ReporterESt14default_deleteIS2_ESaIvELN9__gnu_cxx12_Lock_policyE2EEC2ES3_S5_
_ZSt4moveIRSt14default_deleteIN13jaegertracing9reporters8ReporterEEEONSt16remove_referenceIT_E4typeEOS7_
_ZNSt19_Sp_counted_deleterIPN13jaegertracing9reporters8ReporterESt14default_deleteIS2_ESaIvELN9__gnu_cxx12_Lock_policyE2EE5_ImplC2ES3_S5_RKS6_
_ZNSt19_Sp_counted_deleterIPN13jaegertracing9reporters8ReporterESt14default_deleteIS2_ESaIvELN9__gnu_cxx12_Lock_policyE2EED2Ev
_ZNSt19_Sp_counted_deleterIPN13jaegertracing9reporters8ReporterESt14default_deleteIS2_ESaIvELN9__gnu_cxx12_Lock_policyE2EED0Ev
_ZNSt19_Sp_counted_deleterIPN13jaegertracing9reporters8ReporterESt14default_deleteIS2_ESaIvELN9__gnu_cxx12_Lock_policyE2EE10_M_disposeEv
_ZNSt19_Sp_counted_deleterIPN13jaegertracing9reporters8ReporterESt14default_deleteIS2_ESaIvELN9__gnu_cxx12_Lock_policyE2EE10_M_destroyEv
_ZNSt19_Sp_counted_deleterIPN13jaegertracing9reporters8ReporterESt14default_deleteIS2_ESaIvELN9__gnu_cxx12_Lock_policyE2EE14_M_get_deleterERKSt9type_info
_ZNSt14_Sp_ebo_helperILi0ESt14default_deleteIN13jaegertracing9reporters8ReporterEELb1EEC2EOS4_
_ZNSt19_Sp_counted_deleterIPN13jaegertracing9reporters8ReporterESt14default_deleteIS2_ESaIvELN9__gnu_cxx12_Lock_policyE2EE5_Impl6_M_delEv
_ZNKSt14default_deleteIN13jaegertracing9reporters8ReporterEEclEPS2_
_ZNSt14_Sp_ebo_helperILi0ESt14default_deleteIN13jaegertracing9reporters8ReporterEELb1EE6_S_getERS5_
_ZNSt19_Sp_counted_deleterIPN13jaegertracing9reporters8ReporterESt14default_deleteIS2_ESaIvELN9__gnu_cxx12_Lock_policyE2EE5_Impl8_M_allocEv
_ZNSaISt19_Sp_counted_deleterIPN13jaegertracing9reporters8ReporterESt14default_deleteIS2_ESaIvELN9__gnu_cxx12_Lock_policyE2EEEC2IvEERKSaIT_E
_ZNSt15__allocated_ptrISaISt19_Sp_counted_deleterIPN13jaegertracing9reporters8ReporterESt14default_deleteIS3_ESaIvELN9__gnu_cxx12_Lock_policyE2EEEEC2ERSB_PSA_
_ZNSt15__allocated_ptrISaISt19_Sp_counted_deleterIPN13jaegertracing9reporters8ReporterESt14default_deleteIS3_ESaIvELN9__gnu_cxx12_Lock_policyE2EEEED2Ev
_ZSt11__addressofISaISt19_Sp_counted_deleterIPN13jaegertracing9reporters8ReporterESt14default_deleteIS3_ESaIvELN9__gnu_cxx12_Lock_policyE2EEEEPT_RSC_
_ZNSt16allocator_traitsISaISt19_Sp_counted_deleterIPN13jaegertracing9reporters8ReporterESt14default_deleteIS3_ESaIvELN9__gnu_cxx12_Lock_policyE2EEEE10deallocateERSB_PSA_m
_ZN9__gnu_cxx13new_allocatorISt19_Sp_counted_deleterIPN13jaegertracing9reporters8ReporterESt14default_deleteIS4_ESaIvELNS_12_Lock_policyE2EEE10deallocateEPSA_m
_ZSt11__addressofISt14default_deleteIN13jaegertracing9reporters8ReporterEEEPT_RS5_
_ZNSt15__uniq_ptr_implIN13jaegertracing9reporters8ReporterESt14default_deleteIS2_EE6_M_ptrEv
_ZSt3getILm0EJPN13jaegertracing9reporters8ReporterESt14default_deleteIS2_EEERNSt13tuple_elementIXT_ESt5tupleIJDpT0_EEE4typeERSA_
_ZSt12__get_helperILm0EPN13jaegertracing9reporters8ReporterEJSt14default_deleteIS2_EEERT0_RSt11_Tuple_implIXT_EJS6_DpT1_EE
_ZNSt11_Tuple_implILm0EJPN13jaegertracing9reporters8ReporterESt14default_deleteIS2_EEE7_M_headERS6_
_ZNSt10_Head_baseILm0EPN13jaegertracing9reporters8ReporterELb0EE7_M_headERS4_
_ZNSt15__uniq_ptr_implIN13jaegertracing9reporters8ReporterESt14default_deleteIS2_EE10_M_deleterEv
_ZSt3getILm1EJPN13jaegertracing9reporters8ReporterESt14default_deleteIS2_EEERNSt13tuple_elementIXT_ESt5tupleIJDpT0_EEE4typeERSA_
_ZSt12__get_helperILm1ESt14default_deleteIN13jaegertracing9reporters8ReporterEEJEERT0_RSt11_Tuple_implIXT_EJS5_DpT1_EE
_ZNSt11_Tuple_implILm1EJSt14default_deleteIN13jaegertracing9reporters8ReporterEEEE7_M_headERS5_
_ZNSt10_Head_baseILm1ESt14default_deleteIN13jaegertracing9reporters8ReporterEELb1EE7_M_headERS5_
_ZN9__gnu_cxx13new_allocatorISt19_Sp_counted_deleterIPN13jaegertracing9reporters8ReporterESt14default_deleteIS4_ESaIvELNS_12_Lock_policyE2EEED2Ev
_ZSt4moveIRPN13jaegertracing9reporters8ReporterEEONSt16remove_referenceIT_E4typeEOS6_
_ZN11opentracing2v26TracerC2Ev
_ZNSt23enable_shared_from_thisIN13jaegertracing6TracerEEC2Ev
_ZN13jaegertracing3net9IPAddress7localIPEi
_ZNSt10shared_ptrIN13jaegertracing8samplers7SamplerEEC2ERKS3_
_ZNSt10shared_ptrIN13jaegertracing7metrics7MetricsEEC2ERKS3_
_ZNSt10shared_ptrIN13jaegertracing7logging6LoggerEEC2ERKS3_
_ZNSt23mersenne_twister_engineImLm64ELm312ELm156ELm31ELm13043109905998158313ELm29ELm6148914691236517205ELm17ELm8202884508482404352ELm37ELm18444473444759240704ELm43ELm6364136223846793005EEC2Ev
_ZN13jaegertracing11propagation10PropagatorIRKN11opentracing2v213TextMapReaderERKNS3_13TextMapWriterEEC2ERKNS0_13HeadersConfigERKSt10shared_ptrINS_7metrics7MetricsEE
_ZN13jaegertracing11propagation20HTTPHeaderPropagatorCI2NS0_10PropagatorIRKN11opentracing2v217HTTPHeadersReaderERKNS4_17HTTPHeadersWriterEEEERKNS0_13HeadersConfigERKSt10shared_ptrINS_7metrics7MetricsEE
_ZN13jaegertracing11propagation16BinaryPropagatorC2ERKSt10shared_ptrINS_7metrics7MetricsEE
_ZNSt6vectorIN13jaegertracing3TagESaIS1_EEC2Ev
_ZN13jaegertracing7baggage25DefaultRestrictionManagerC2Ei
_ZNSt10unique_ptrIN13jaegertracing7baggage18RestrictionManagerESt14default_deleteIS2_EEC2IS4_vEEPS2_
_ZNKSt10unique_ptrIN13jaegertracing7baggage18RestrictionManagerESt14default_deleteIS2_EEdeEv
_ZN13jaegertracing7baggage13BaggageSetterC2ERNS0_18RestrictionManagerERNS_7metrics7MetricsE
_ZNSt6vectorIN13jaegertracing3TagESaIS1_EE9push_backEOS1_
_ZN13jaegertracing8platform8hostnameB5cxx11Ev
_ZN13jaegertracing3TagC2INSt7__cxx1112basic_stringIcSt11char_traitsIcESaIcEEEEERKS7_OT_
llvm.eh.typeid.for
_ZNK13jaegertracing3net9IPAddresseqERKS1_
_ZN13jaegertracing3net9IPAddressC2Ev
_ZNKSt19__shared_ptr_accessIN13jaegertracing7logging6LoggerELN9__gnu_cxx12_Lock_policyE2ELb0ELb0EEptEv
_ZNK13jaegertracing3net9IPAddress4hostB5cxx11Ev
_ZNSt13random_deviceC2Ev
_ZNSt23mersenne_twister_engineImLm64ELm312ELm156ELm31ELm13043109905998158313ELm29ELm6148914691236517205ELm17ELm8202884508482404352ELm37ELm18444473444759240704ELm43ELm6364136223846793005EE4seedEm
_ZNSt13random_deviceclEv
_ZNSt13random_deviceD2Ev
_ZNSt10unique_ptrIN13jaegertracing7baggage18RestrictionManagerESt14default_deleteIS2_EED2Ev
_ZN13jaegertracing11propagation16BinaryPropagatorD2Ev
_ZN13jaegertracing11propagation20HTTPHeaderPropagatorD2Ev
_ZN13jaegertracing11propagation10PropagatorIRKN11opentracing2v213TextMapReaderERKNS3_13TextMapWriterEED2Ev
_ZNSt23enable_shared_from_thisIN13jaegertracing6TracerEED2Ev
_ZN11opentracing2v26TracerD2Ev
_ZN11opentracing2v26TracerD0Ev
_ZNK11opentracing2v26Tracer6InjectERKNS0_11SpanContextERKNS0_19CustomCarrierWriterE
_ZNK11opentracing2v26Tracer7ExtractERKNS0_19CustomCarrierReaderE
_ZN11opentracing2v26Tracer5CloseEv
_ZN11opentracing2v28expectedIvSt10error_codeEC2ILb1ELi0EEEOS3_
_ZN11opentracing2v215expected_detail9storage_tIvSt10error_codeEC2Ev
_ZNK11opentracing2v28expectedIvSt10error_codeE9has_valueEv
_ZN11opentracing2v215expected_detail9storage_tIvSt10error_codeE15construct_errorEOS3_
_ZSt4moveIRSt10error_codeEONSt16remove_referenceIT_E4typeEOS3_
_ZN11opentracing2v215expected_detail9storage_tIvSt10error_codeE5errorEv
_ZN11opentracing2v215expected_detail9storage_tIvSt10error_codeED2Ev
_ZNSt8weak_ptrIN13jaegertracing6TracerEEC2Ev
_ZNSt10__weak_ptrIN13jaegertracing6TracerELN9__gnu_cxx12_Lock_policyE2EEC2Ev
_ZNSt12__weak_countILN9__gnu_cxx12_Lock_policyE2EEC2Ev
_ZNSt12__shared_ptrIN13jaegertracing8samplers7SamplerELN9__gnu_cxx12_Lock_policyE2EEC2ERKS5_
_ZNSt12__shared_ptrIN13jaegertracing7metrics7MetricsELN9__gnu_cxx12_Lock_policyE2EEC2ERKS5_
_ZNSt12__shared_ptrIN13jaegertracing7logging6LoggerELN9__gnu_cxx12_Lock_policyE2EEC2ERKS5_
_ZNSt23mersenne_twister_engineImLm64ELm312ELm156ELm31ELm13043109905998158313ELm29ELm6148914691236517205ELm17ELm8202884508482404352ELm37ELm18444473444759240704ELm43ELm6364136223846793005EEC2Em
_ZN13jaegertracing11propagation9ExtractorIRKN11opentracing2v213TextMapReaderEEC2Ev
_ZN13jaegertracing11propagation8InjectorIRKN11opentracing2v213TextMapWriterEEC2Ev
_ZN13jaegertracing11propagation10PropagatorIRKN11opentracing2v213TextMapReaderERKNS3_13TextMapWriterEED0Ev
_ZNK13jaegertracing11propagation10PropagatorIRKN11opentracing2v213TextMapReaderERKNS3_13TextMapWriterEE7extractES6_
_ZNK13jaegertracing11propagation10PropagatorIRKN11opentracing2v213TextMapReaderERKNS3_13TextMapWriterEE6injectERKNS_11SpanContextES9_
_ZNK13jaegertracing11propagation10PropagatorIRKN11opentracing2v213TextMapReaderERKNS3_13TextMapWriterEE11encodeValueERKNSt7__cxx1112basic_stringIcSt11char_traitsIcESaIcEEE
_ZNK13jaegertracing11propagation10PropagatorIRKN11opentracing2v213TextMapReaderERKNS3_13TextMapWriterEE11decodeValueERKNSt7__cxx1112basic_stringIcSt11char_traitsIcESaIcEEE
_ZNK13jaegertracing11propagation10PropagatorIRKN11opentracing2v213TextMapReaderERKNS3_13TextMapWriterEE12normalizeKeyERKNSt7__cxx1112basic_stringIcSt11char_traitsIcESaIcEEE
_ZThn8_N13jaegertracing11propagation10PropagatorIRKN11opentracing2v213TextMapReaderERKNS3_13TextMapWriterEED1Ev
_ZThn8_N13jaegertracing11propagation10PropagatorIRKN11opentracing2v213TextMapReaderERKNS3_13TextMapWriterEED0Ev
_ZThn8_NK13jaegertracing11propagation10PropagatorIRKN11opentracing2v213TextMapReaderERKNS3_13TextMapWriterEE6injectERKNS_11SpanContextES9_
_ZN13jaegertracing11propagation9ExtractorIRKN11opentracing2v213TextMapReaderEED2Ev
_ZN13jaegertracing11propagation9ExtractorIRKN11opentracing2v213TextMapReaderEED0Ev
_ZN13jaegertracing11propagation8InjectorIRKN11opentracing2v213TextMapWriterEED2Ev
_ZN13jaegertracing11propagation8InjectorIRKN11opentracing2v213TextMapWriterEED0Ev
_ZN13jaegertracing11SpanContextC2Ev
_ZNSt13unordered_mapINSt7__cxx1112basic_stringIcSt11char_traitsIcESaIcEEES5_St4hashIS5_ESt8equal_toIS5_ESaISt4pairIKS5_S5_EEEC2Ev
_ZNSt8functionIFN11opentracing2v28expectedIvSt10error_codeEENS1_11string_viewES5_EEC2IZNK13jaegertracing11propagation10PropagatorIRKNS1_13TextMapReaderERKNS1_13TextMapWriterEE7extractESE_EUlRKNSt7__cxx1112basic_stringIcSt11char_traitsIcESaIcEEESQ_E_vvEET_
_ZNSt8functionIFN11opentracing2v28expectedIvSt10error_codeEENS1_11string_viewES5_EED2Ev
_ZNK11opentracing2v28expectedIvSt10error_codeEcvbEv
_ZSteqRKSt10error_codeS1_
_ZNKR11opentracing2v28expectedIvSt10error_codeE5errorEv
_ZNKSt19__shared_ptr_accessIN13jaegertracing7metrics7MetricsELN9__gnu_cxx12_Lock_policyE2ELb0ELb0EEptEv
_ZN13jaegertracing7metrics7Metrics14decodingErrorsEv
_ZNK13jaegertracing11SpanContext7traceIDEv
_ZNK13jaegertracing7TraceID7isValidEv
_ZNKSt13unordered_mapINSt7__cxx1112basic_stringIcSt11char_traitsIcESaIcEEES5_St4hashIS5_ESt8equal_toIS5_ESaISt4pairIKS5_S5_EEE5emptyEv
_ZNK13jaegertracing11SpanContext5flagsEv
_ZNK13jaegertracing11SpanContext6spanIDEv
_ZNK13jaegertracing11SpanContext8parentIDEv
_ZN13jaegertracing11SpanContextC2ERKNS_7TraceIDEmmhRKSt13unordered_mapINSt7__cxx1112basic_stringIcSt11char_traitsIcESaIcEEESA_St4hashISA_ESt8equal_toISA_ESaISt4pairIKSA_SA_EEERSG_
_ZN13jaegertracing11SpanContextD2Ev
_ZN11opentracing2v211SpanContextC2Ev
_ZN13jaegertracing7TraceIDC2Emm
_ZN13jaegertracing11SpanContextD0Ev
_ZNK13jaegertracing11SpanContext18ForeachBaggageItemESt8functionIFbRKNSt7__cxx1112basic_stringIcSt11char_traitsIcESaIcEEES9_EE
_ZN11opentracing2v211SpanContextD2Ev
_ZN11opentracing2v211SpanContextD0Ev
_ZNK13jaegertracing11SpanContext18forEachBaggageItemISt8functionIFbRKNSt7__cxx1112basic_stringIcSt11char_traitsIcESaIcEEESA_EEEEvT_
_ZNSt8functionIFbRKNSt7__cxx1112basic_stringIcSt11char_traitsIcESaIcEEES7_EEC2ERKS9_
_ZNSt8functionIFbRKNSt7__cxx1112basic_stringIcSt11char_traitsIcESaIcEEES7_EED2Ev
_ZNKSt13unordered_mapINSt7__cxx1112basic_stringIcSt11char_traitsIcESaIcEEES5_St4hashIS5_ESt8equal_toIS5_ESaISt4pairIKS5_S5_EEE5beginEv
_ZNKSt13unordered_mapINSt7__cxx1112basic_stringIcSt11char_traitsIcESaIcEEES5_St4hashIS5_ESt8equal_toIS5_ESaISt4pairIKS5_S5_EEE3endEv
_ZNSt8__detailneISt4pairIKNSt7__cxx1112basic_stringIcSt11char_traitsIcESaIcEEES7_ELb1EEEbRKNS_19_Node_iterator_baseIT_XT0_EEESE_
_ZNKSt8__detail20_Node_const_iteratorISt4pairIKNSt7__cxx1112basic_stringIcSt11char_traitsIcESaIcEEES7_ELb0ELb1EEdeEv
_ZNKSt8functionIFbRKNSt7__cxx1112basic_stringIcSt11char_traitsIcESaIcEEES7_EEclES7_S7_
_ZNSt8__detail20_Node_const_iteratorISt4pairIKNSt7__cxx1112basic_stringIcSt11char_traitsIcESaIcEEES7_ELb0ELb1EEppEv
_ZNKSt10_HashtableINSt7__cxx1112basic_stringIcSt11char_traitsIcESaIcEEESt4pairIKS5_S5_ESaIS8_ENSt8__detail10_Select1stESt8equal_toIS5_ESt4hashIS5_ENSA_18_Mod_range_hashingENSA_20_Default_ranged_hashENSA_20_Prime_rehash_policyENSA_17_Hashtable_traitsILb1ELb0ELb1EEEE5beginEv
_ZNSt8__detail20_Node_const_iteratorISt4pairIKNSt7__cxx1112basic_stringIcSt11char_traitsIcESaIcEEES7_ELb0ELb1EEC2EPNS_10_Hash_nodeIS9_Lb1EEE
_ZNKSt10_HashtableINSt7__cxx1112basic_stringIcSt11char_traitsIcESaIcEEESt4pairIKS5_S5_ESaIS8_ENSt8__detail10_Select1stESt8equal_toIS5_ESt4hashIS5_ENSA_18_Mod_range_hashingENSA_20_Default_ranged_hashENSA_20_Prime_rehash_policyENSA_17_Hashtable_traitsILb1ELb0ELb1EEEE3endEv
_ZNKSt14_Function_base8_M_emptyEv
_ZSt25__throw_bad_function_callv
_ZSt7forwardIRKNSt7__cxx1112basic_stringIcSt11char_traitsIcESaIcEEEEOT_RNSt16remove_referenceIS8_E4typeE
_ZNSt8__detail19_Node_iterator_baseISt4pairIKNSt7__cxx1112basic_stringIcSt11char_traitsIcESaIcEEES7_ELb1EE7_M_incrEv
_ZNSt14_Function_baseC2Ev
_ZNKSt8functionIFbRKNSt7__cxx1112basic_stringIcSt11char_traitsIcESaIcEEES7_EEcvbEv
_ZNSt10_HashtableINSt7__cxx1112basic_stringIcSt11char_traitsIcESaIcEEESt4pairIKS5_S5_ESaIS8_ENSt8__detail10_Select1stESt8equal_toIS5_ESt4hashIS5_ENSA_18_Mod_range_hashingENSA_20_Default_ranged_hashENSA_20_Prime_rehash_policyENSA_17_Hashtable_traitsILb1ELb0ELb1EEEEC2Ev
_ZNSt8__detail16_Hashtable_allocISaINS_10_Hash_nodeISt4pairIKNSt7__cxx1112basic_stringIcSt11char_traitsIcESaIcEEES8_ELb1EEEEEC2Ev
_ZNSt8__detail21_Hashtable_ebo_helperILi0ESaINS_10_Hash_nodeISt4pairIKNSt7__cxx1112basic_stringIcSt11char_traitsIcESaIcEEES8_ELb1EEEELb1EEC2Ev
_ZNSaINSt8__detail10_Hash_nodeISt4pairIKNSt7__cxx1112basic_stringIcSt11char_traitsIcESaIcEEES7_ELb1EEEEC2Ev
_ZNSt14_Function_base13_Base_managerIZNK13jaegertracing11propagation10PropagatorIRKN11opentracing2v213TextMapReaderERKNS5_13TextMapWriterEE7extractES8_EUlRKNSt7__cxx1112basic_stringIcSt11char_traitsIcESaIcEEESK_E_E21_M_not_empty_functionISL_EEbRKT_
_ZNSt14_Function_base13_Base_managerIZNK13jaegertracing11propagation10PropagatorIRKN11opentracing2v213TextMapReaderERKNS5_13TextMapWriterEE7extractES8_EUlRKNSt7__cxx1112basic_stringIcSt11char_traitsIcESaIcEEESK_E_E15_M_init_functorERSt9_Any_dataOSL_
_ZSt4moveIRZNK13jaegertracing11propagation10PropagatorIRKN11opentracing2v213TextMapReaderERKNS4_13TextMapWriterEE7extractES7_EUlRKNSt7__cxx1112basic_stringIcSt11char_traitsIcESaIcEEESJ_E_EONSt16remove_referenceIT_E4typeEOSN_
_ZNSt17_Function_handlerIFN11opentracing2v28expectedIvSt10error_codeEENS1_11string_viewES5_EZNK13jaegertracing11propagation10PropagatorIRKNS1_13TextMapReaderERKNS1_13TextMapWriterEE7extractESC_EUlRKNSt7__cxx1112basic_stringIcSt11char_traitsIcESaIcEEESO_E_E9_M_invokeERKSt9_Any_dataOS5_SU_
_ZNSt14_Function_base13_Base_managerIZNK13jaegertracing11propagation10PropagatorIRKN11opentracing2v213TextMapReaderERKNS5_13TextMapWriterEE7extractES8_EUlRKNSt7__cxx1112basic_stringIcSt11char_traitsIcESaIcEEESK_E_E10_M_managerERSt9_Any_dataRKSN_St18_Manager_operation
_ZNSt14_Function_base13_Base_managerIZNK13jaegertracing11propagation10PropagatorIRKN11opentracing2v213TextMapReaderERKNS5_13TextMapWriterEE7extractES8_EUlRKNSt7__cxx1112basic_stringIcSt11char_traitsIcESaIcEEESK_E_E15_M_init_functorERSt9_Any_dataOSL_St17integral_constantIbLb0EE
_ZNSt9_Any_data9_M_accessIPZNK13jaegertracing11propagation10PropagatorIRKN11opentracing2v213TextMapReaderERKNS5_13TextMapWriterEE7extractES8_EUlRKNSt7__cxx1112basic_stringIcSt11char_traitsIcESaIcEEESK_E_EERT_v
_ZNSt9_Any_data9_M_accessEv
_ZNSt14_Function_base13_Base_managerIZNK13jaegertracing11propagation10PropagatorIRKN11opentracing2v213TextMapReaderERKNS5_13TextMapWriterEE7extractES8_EUlRKNSt7__cxx1112basic_stringIcSt11char_traitsIcESaIcEEESK_E_E14_M_get_pointerERKSt9_Any_data
_ZZNK13jaegertracing11propagation10PropagatorIRKN11opentracing2v213TextMapReaderERKNS3_13TextMapWriterEE7extractES6_ENKUlRKNSt7__cxx1112basic_stringIcSt11char_traitsIcESaIcEEESI_E_clESI_SI_
_ZSt7forwardIN11opentracing2v211string_viewEEOT_RNSt16remove_referenceIS3_E4typeE
_ZNK11opentracing2v211string_viewcvNSt7__cxx1112basic_stringIcSt11char_traitsIcESaIcEEEEv
_ZNKSt9_Any_data9_M_accessIPZNK13jaegertracing11propagation10PropagatorIRKN11opentracing2v213TextMapReaderERKNS5_13TextMapWriterEE7extractES8_EUlRKNSt7__cxx1112basic_stringIcSt11char_traitsIcESaIcEEESK_E_EERKT_v
_ZNKSt9_Any_data9_M_accessEv
_ZNK13jaegertracing11propagation13HeadersConfig22traceContextHeaderNameB5cxx11Ev
_ZrsRSiRN13jaegertracing11SpanContextE
_ZN13jaegertracingeqERKNS_11SpanContextES2_
_ZN11opentracing2v224make_expected_from_errorIvSt10error_codeEENS0_8expectedIT_NSt5decayIT0_E4typeEEES6_
_ZNK13jaegertracing11propagation13HeadersConfig17jaegerDebugHeaderB5cxx11Ev
_ZNK13jaegertracing11propagation13HeadersConfig19jaegerBaggageHeaderB5cxx11Ev
_ZN13jaegertracing11propagation10PropagatorIRKN11opentracing2v213TextMapReaderERKNS3_13TextMapWriterEE22parseCommaSeparatedMapERKNSt7__cxx1112basic_stringIcSt11char_traitsIcESaIcEEE
_ZNSt13unordered_mapINSt7__cxx1112basic_stringIcSt11char_traitsIcESaIcEEES5_St4hashIS5_ESt8equal_toIS5_ESaISt4pairIKS5_S5_EEE5beginEv
_ZNSt13unordered_mapINSt7__cxx1112basic_stringIcSt11char_traitsIcESaIcEEES5_St4hashIS5_ESt8equal_toIS5_ESaISt4pairIKS5_S5_EEE3endEv
_ZNKSt8__detail14_Node_iteratorISt4pairIKNSt7__cxx1112basic_stringIcSt11char_traitsIcESaIcEEES7_ELb0ELb1EEdeEv
_ZNSt13unordered_mapINSt7__cxx1112basic_stringIcSt11char_traitsIcESaIcEEES5_St4hashIS5_ESt8equal_toIS5_ESaISt4pairIKS5_S5_EEEixERSB_
_ZNSt8__detail14_Node_iteratorISt4pairIKNSt7__cxx1112basic_stringIcSt11char_traitsIcESaIcEEES7_ELb0ELb1EEppEv
_ZNK13jaegertracing11propagation13HeadersConfig24traceBaggageHeaderPrefixB5cxx11Ev
_ZNK13jaegertracing11propagation10PropagatorIRKN11opentracing2v213TextMapReaderERKNS3_13TextMapWriterEE22removeBaggageKeyPrefixERKNSt7__cxx1112basic_stringIcSt11char_traitsIcESaIcEEE
_ZN11opentracing2v213make_expectedEv
_ZN13jaegertracing11SpanContext10fromStreamERSi
_ZN13jaegertracing11SpanContextaSES0_
_ZN13jaegertracing11SpanContext4swapERS0_
_ZSt4swapIN13jaegertracing7TraceIDEENSt9enable_ifIXsr6__and_ISt6__not_ISt15__is_tuple_likeIT_EESt21is_move_constructibleIS5_ESt18is_move_assignableIS5_EEE5valueEvE4typeERS5_SE_
_ZSt4swapImENSt9enable_ifIXsr6__and_ISt6__not_ISt15__is_tuple_likeIT_EESt21is_move_constructibleIS3_ESt18is_move_assignableIS3_EEE5valueEvE4typeERS3_SC_
_ZSt4swapIhENSt9enable_ifIXsr6__and_ISt6__not_ISt15__is_tuple_likeIT_EESt21is_move_constructibleIS3_ESt18is_move_assignableIS3_EEE5valueEvE4typeERS3_SC_
_ZSt4swapINSt7__cxx1112basic_stringIcSt11char_traitsIcESaIcEEES5_St4hashIS5_ESt8equal_toIS5_ESaISt4pairIKS5_S5_EEEvRSt13unordered_mapIT_T0_T1_T2_T3_ESL_
_ZSt4swapIcSt11char_traitsIcESaIcEEvRNSt7__cxx1112basic_stringIT_T0_T1_EES9_
_ZSt4moveIRN13jaegertracing7TraceIDEEONSt16remove_referenceIT_E4typeEOS4_
_ZSt4moveIRmEONSt16remove_referenceIT_E4typeEOS2_
_ZSt4moveIRhEONSt16remove_referenceIT_E4typeEOS2_
_ZNSt13unordered_mapINSt7__cxx1112basic_stringIcSt11char_traitsIcESaIcEEES5_St4hashIS5_ESt8equal_toIS5_ESaISt4pairIKS5_S5_EEE4swapERSE_
_ZNSt10_HashtableINSt7__cxx1112basic_stringIcSt11char_traitsIcESaIcEEESt4pairIKS5_S5_ESaIS8_ENSt8__detail10_Select1stESt8equal_toIS5_ESt4hashIS5_ENSA_18_Mod_range_hashingENSA_20_Default_ranged_hashENSA_20_Prime_rehash_policyENSA_17_Hashtable_traitsILb1ELb0ELb1EEEE4swapERSL_
_ZNSt8__detail15_Hashtable_baseINSt7__cxx1112basic_stringIcSt11char_traitsIcESaIcEEESt4pairIKS6_S6_ENS_10_Select1stESt8equal_toIS6_ESt4hashIS6_ENS_18_Mod_range_hashingENS_20_Default_ranged_hashENS_17_Hashtable_traitsILb1ELb0ELb1EEEE7_M_swapERSJ_
_ZSt15__alloc_on_swapISaINSt8__detail10_Hash_nodeISt4pairIKNSt7__cxx1112basic_stringIcSt11char_traitsIcESaIcEEES8_ELb1EEEEEvRT_SE_
_ZSt4swapINSt8__detail20_Prime_rehash_policyEENSt9enable_ifIXsr6__and_ISt6__not_ISt15__is_tuple_likeIT_EESt21is_move_constructibleIS5_ESt18is_move_assignableIS5_EEE5valueEvE4typeERS5_SE_
_ZNKSt10_HashtableINSt7__cxx1112basic_stringIcSt11char_traitsIcESaIcEEESt4pairIKS5_S5_ESaIS8_ENSt8__detail10_Select1stESt8equal_toIS5_ESt4hashIS5_ENSA_18_Mod_range_hashingENSA_20_Default_ranged_hashENSA_20_Prime_rehash_policyENSA_17_Hashtable_traitsILb1ELb0ELb1EEEE21_M_uses_single_bucketEv
_ZSt4swapIPPNSt8__detail15_Hash_node_baseEENSt9enable_ifIXsr6__and_ISt6__not_ISt15__is_tuple_likeIT_EESt21is_move_constructibleIS7_ESt18is_move_assignableIS7_EEE5valueEvE4typeERS7_SG_
_ZSt4swapIPNSt8__detail15_Hash_node_baseEENSt9enable_ifIXsr6__and_ISt6__not_ISt15__is_tuple_likeIT_EESt21is_move_constructibleIS6_ESt18is_move_assignableIS6_EEE5valueEvE4typeERS6_SF_
_ZNSt8__detail15_Hash_code_baseINSt7__cxx1112basic_stringIcSt11char_traitsIcESaIcEEESt4pairIKS6_S6_ENS_10_Select1stESt4hashIS6_ENS_18_Mod_range_hashingENS_20_Default_ranged_hashELb1EE7_M_swapERSF_
_ZSt4swapISt8equal_toINSt7__cxx1112basic_stringIcSt11char_traitsIcESaIcEEEEENSt9enable_ifIXsr6__and_ISt6__not_ISt15__is_tuple_likeIT_EESt21is_move_constructibleISB_ESt18is_move_assignableISB_EEE5valueEvE4typeERSB_SK_
_ZNSt8__detail15_Hashtable_baseINSt7__cxx1112basic_stringIcSt11char_traitsIcESaIcEEESt4pairIKS6_S6_ENS_10_Select1stESt8equal_toIS6_ESt4hashIS6_ENS_18_Mod_range_hashingENS_20_Default_ranged_hashENS_17_Hashtable_traitsILb1ELb0ELb1EEEE5_M_eqEv
_ZSt4swapINSt8__detail10_Select1stEENSt9enable_ifIXsr6__and_ISt6__not_ISt15__is_tuple_likeIT_EESt21is_move_constructibleIS5_ESt18is_move_assignableIS5_EEE5valueEvE4typeERS5_SE_
_ZSt4swapISt4hashINSt7__cxx1112basic_stringIcSt11char_traitsIcESaIcEEEEENSt9enable_ifIXsr6__and_ISt6__not_ISt15__is_tuple_likeIT_EESt21is_move_constructibleISB_ESt18is_move_assignableISB_EEE5valueEvE4typeERSB_SK_
_ZNSt8__detail15_Hash_code_baseINSt7__cxx1112basic_stringIcSt11char_traitsIcESaIcEEESt4pairIKS6_S6_ENS_10_Select1stESt4hashIS6_ENS_18_Mod_range_hashingENS_20_Default_ranged_hashELb1EE5_M_h1Ev
_ZSt4swapINSt8__detail18_Mod_range_hashingEENSt9enable_ifIXsr6__and_ISt6__not_ISt15__is_tuple_likeIT_EESt21is_move_constructibleIS5_ESt18is_move_assignableIS5_EEE5valueEvE4typeERS5_SE_
_ZNSt8__detail15_Hash_code_baseINSt7__cxx1112basic_stringIcSt11char_traitsIcESaIcEEESt4pairIKS6_S6_ENS_10_Select1stESt4hashIS6_ENS_18_Mod_range_hashingENS_20_Default_ranged_hashELb1EE5_M_h2Ev
_ZSt4moveIRNSt8__detail10_Select1stEEONSt16remove_referenceIT_E4typeEOS4_
_ZSt4moveIRSt4hashINSt7__cxx1112basic_stringIcSt11char_traitsIcESaIcEEEEEONSt16remove_referenceIT_E4typeEOSA_
_ZNSt8__detail21_Hashtable_ebo_helperILi1ESt4hashINSt7__cxx1112basic_stringIcSt11char_traitsIcESaIcEEEELb1EE6_S_getERS9_
_ZSt4moveIRNSt8__detail18_Mod_range_hashingEEONSt16remove_referenceIT_E4typeEOS4_
_ZNSt8__detail21_Hashtable_ebo_helperILi2ENS_18_Mod_range_hashingELb1EE6_S_getERS2_
_ZSt4moveIRSt8equal_toINSt7__cxx1112basic_stringIcSt11char_traitsIcESaIcEEEEEONSt16remove_referenceIT_E4typeEOSA_
_ZNSt8__detail21_Hashtable_ebo_helperILi0ESt8equal_toINSt7__cxx1112basic_stringIcSt11char_traitsIcESaIcEEEELb1EE6_S_getERS9_
_ZSt18__do_alloc_on_swapISaINSt8__detail10_Hash_nodeISt4pairIKNSt7__cxx1112basic_stringIcSt11char_traitsIcESaIcEEES8_ELb1EEEEEvRT_SE_St17integral_constantIbLb0EE
_ZSt4moveIRNSt8__detail20_Prime_rehash_policyEEONSt16remove_referenceIT_E4typeEOS4_
_ZSt4moveIRPPNSt8__detail15_Hash_node_baseEEONSt16remove_referenceIT_E4typeEOS6_
_ZSt4moveIRPNSt8__detail15_Hash_node_baseEEONSt16remove_referenceIT_E4typeEOS5_
_ZNSt7__cxx1112basic_stringIcSt11char_traitsIcESaIcEE4swapERS4_
_ZSt4lockISt5mutexS0_JEEvRT_RT0_DpRT1_
_ZNSt10lock_guardISt5mutexEC2ERS0_St12adopt_lock_t
_ZStneINSt7__cxx1112basic_stringIcSt11char_traitsIcESaIcEEES5_St4hashIS5_ESt8equal_toIS5_ESaISt4pairIKS5_S5_EEEbRKSt13unordered_mapIT_T0_T1_T2_T3_ESM_
_ZNK13jaegertracing7TraceIDeqERKS0_
_ZNSt11unique_lockISt5mutexEC2ERS0_
_ZSt3tieIJSt5mutexEESt5tupleIJDpRT_EES4_
_ZNSt15__try_lock_implILi0ELb0EE13__do_try_lockIJSt5mutexEEEvRSt5tupleIJDpRT_EERi
_ZNSt11unique_lockISt5mutexE7releaseEv
_ZNSt11unique_lockISt5mutexED2Ev
_ZSt11__addressofISt5mutexEPT_RS1_
_ZNSt11unique_lockISt5mutexE4lockEv
_ZSt20__throw_system_errori
_ZNSt5tupleIJRSt5mutexEEC2IvLb1EEES1_
_ZNSt11_Tuple_implILm0EJRSt5mutexEEC2ES1_
_ZNSt10_Head_baseILm0ERSt5mutexLb0EEC2ES1_
_ZSt13__try_to_lockISt5mutexESt11unique_lockIT_ERS2_
_ZSt3getILm0EJRSt5mutexEERNSt13tuple_elementIXT_ESt5tupleIJDpT0_EEE4typeERS6_
_ZNKSt11unique_lockISt5mutexE9owns_lockEv
_ZNSt11unique_lockISt5mutexEC2ERS0_St13try_to_lock_t
_ZNSt5mutex8try_lockEv
_ZL23__gthread_mutex_trylockP15pthread_mutex_t
pthread_mutex_trylock
_ZSt12__get_helperILm0ERSt5mutexJEERT0_RSt11_Tuple_implIXT_EJS2_DpT1_EE
_ZNSt11_Tuple_implILm0EJRSt5mutexEE7_M_headERS2_
_ZNSt10_Head_baseILm0ERSt5mutexLb0EE7_M_headERS2_
_ZNSt11unique_lockISt5mutexE6unlockEv
_ZSteqINSt7__cxx1112basic_stringIcSt11char_traitsIcESaIcEEES5_St4hashIS5_ESt8equal_toIS5_ESaISt4pairIKS5_S5_EEEbRKSt13unordered_mapIT_T0_T1_T2_T3_ESM_
_ZNKSt8__detail9_EqualityINSt7__cxx1112basic_stringIcSt11char_traitsIcESaIcEEESt4pairIKS6_S6_ESaIS9_ENS_10_Select1stESt8equal_toIS6_ESt4hashIS6_ENS_18_Mod_range_hashingENS_20_Default_ranged_hashENS_20_Prime_rehash_policyENS_17_Hashtable_traitsILb1ELb0ELb1EEELb1EE8_M_equalERKSt10_HashtableIS6_S9_SA_SB_SD_SF_SG_SH_SI_SK_E
_ZNKSt10_HashtableINSt7__cxx1112basic_stringIcSt11char_traitsIcESaIcEEESt4pairIKS5_S5_ESaIS8_ENSt8__detail10_Select1stESt8equal_toIS5_ESt4hashIS5_ENSA_18_Mod_range_hashingENSA_20_Default_ranged_hashENSA_20_Prime_rehash_policyENSA_17_Hashtable_traitsILb1ELb0ELb1EEEE4sizeEv
_ZNKSt10_HashtableINSt7__cxx1112basic_stringIcSt11char_traitsIcESaIcEEESt4pairIKS5_S5_ESaIS8_ENSt8__detail10_Select1stESt8equal_toIS5_ESt4hashIS5_ENSA_18_Mod_range_hashingENSA_20_Default_ranged_hashENSA_20_Prime_rehash_policyENSA_17_Hashtable_traitsILb1ELb0ELb1EEEE4findERS7_
_ZNSt8__detaileqISt4pairIKNSt7__cxx1112basic_stringIcSt11char_traitsIcESaIcEEES7_ELb1EEEbRKNS_19_Node_iterator_baseIT_XT0_EEESE_
_ZSteqIKNSt7__cxx1112basic_stringIcSt11char_traitsIcESaIcEEES5_EbRKSt4pairIT_T0_ESC_
_ZN11opentracing2v215make_unexpectedIRSt10error_codeEENS0_15unexpected_typeINSt5decayIT_E4typeEEEOS6_
_ZN11opentracing2v28expectedIvSt10error_codeEC2ERKNS0_15unexpected_typeIS2_EE
_ZN11opentracing2v215unexpected_typeISt10error_codeEC2ILb1ELi0EEERKS2_
_ZN11opentracing2v215expected_detail9storage_tIvSt10error_codeE15construct_errorERKS3_
_ZNK11opentracing2v215unexpected_typeISt10error_codeE5valueEv
_ZN13jaegertracing3net3URI13queryUnescapeERKNSt7__cxx1112basic_stringIcSt11char_traitsIcESaIcEEE
_ZSt7getlineIcSt11char_traitsIcESaIcEERSt13basic_istreamIT_T0_ES7_RNSt7__cxx1112basic_stringIS4_S5_T1_EES4_
_ZNSt10_HashtableINSt7__cxx1112basic_stringIcSt11char_traitsIcESaIcEEESt4pairIKS5_S5_ESaIS8_ENSt8__detail10_Select1stESt8equal_toIS5_ESt4hashIS5_ENSA_18_Mod_range_hashingENSA_20_Default_ranged_hashENSA_20_Prime_rehash_policyENSA_17_Hashtable_traitsILb1ELb0ELb1EEEE5beginEv
_ZNSt10_HashtableINSt7__cxx1112basic_stringIcSt11char_traitsIcESaIcEEESt4pairIKS5_S5_ESaIS8_ENSt8__detail10_Select1stESt8equal_toIS5_ESt4hashIS5_ENSA_18_Mod_range_hashingENSA_20_Default_ranged_hashENSA_20_Prime_rehash_policyENSA_17_Hashtable_traitsILb1ELb0ELb1EEEE3endEv
_ZNSt8__detail9_Map_baseINSt7__cxx1112basic_stringIcSt11char_traitsIcESaIcEEESt4pairIKS6_S6_ESaIS9_ENS_10_Select1stESt8equal_toIS6_ESt4hashIS6_ENS_18_Mod_range_hashingENS_20_Default_ranged_hashENS_20_Prime_rehash_policyENS_17_Hashtable_traitsILb1ELb0ELb1EEELb1EEixERS8_
_ZNSt8__detail16_Hashtable_allocISaINS_10_Hash_nodeISt4pairIKNSt7__cxx1112basic_stringIcSt11char_traitsIcESaIcEEES8_ELb1EEEEE16_M_allocate_nodeIJRKSt21piecewise_construct_tSt5tupleIJRS9_EESI_IJEEEEEPSB_DpOT_
_ZNSt5tupleIJRKNSt7__cxx1112basic_stringIcSt11char_traitsIcESaIcEEEEEC2IvLb1EEES7_
_ZNKSt8__detail14_Node_iteratorISt4pairIKNSt7__cxx1112basic_stringIcSt11char_traitsIcESaIcEEES7_ELb0ELb1EEptEv
_ZNSt16allocator_traitsISaINSt8__detail10_Hash_nodeISt4pairIKNSt7__cxx1112basic_stringIcSt11char_traitsIcESaIcEEES8_ELb1EEEEE9constructISA_JRKSt21piecewise_construct_tSt5tupleIJRS9_EESI_IJEEEEEvRSC_PT_DpOT0_
_ZSt7forwardIRKSt21piecewise_construct_tEOT_RNSt16remove_referenceIS3_E4typeE
_ZSt7forwardISt5tupleIJRKNSt7__cxx1112basic_stringIcSt11char_traitsIcESaIcEEEEEEOT_RNSt16remove_referenceISA_E4typeE
_ZSt7forwardISt5tupleIJEEEOT_RNSt16remove_referenceIS2_E4typeE
_ZN9__gnu_cxx13new_allocatorINSt8__detail10_Hash_nodeISt4pairIKNSt7__cxx1112basic_stringIcSt11char_traitsIcESaIcEEES9_ELb1EEEE9constructISB_JRKSt21piecewise_construct_tSt5tupleIJRSA_EESI_IJEEEEEvPT_DpOT0_
_ZNSt5tupleIJRKNSt7__cxx1112basic_stringIcSt11char_traitsIcESaIcEEEEEC2EOS8_
_ZNSt4pairIKNSt7__cxx1112basic_stringIcSt11char_traitsIcESaIcEEES5_EC2IJRS6_EJEEESt21piecewise_construct_tSt5tupleIJDpT_EESB_IJDpT0_EE
_ZNSt11_Tuple_implILm0EJRKNSt7__cxx1112basic_stringIcSt11char_traitsIcESaIcEEEEEC2EOS8_
_ZNSt11_Tuple_implILm0EJRKNSt7__cxx1112basic_stringIcSt11char_traitsIcESaIcEEEEE7_M_headERS8_
_ZNSt10_Head_baseILm0ERKNSt7__cxx1112basic_stringIcSt11char_traitsIcESaIcEEELb0EEC2ES7_
_ZNSt10_Head_baseILm0ERKNSt7__cxx1112basic_stringIcSt11char_traitsIcESaIcEEELb0EE7_M_headERS8_
_ZNSt4pairIKNSt7__cxx1112basic_stringIcSt11char_traitsIcESaIcEEES5_EC2IJRS6_EJLm0EEJEJEEERSt5tupleIJDpT_EERSA_IJDpT1_EESt12_Index_tupleIJXspT0_EEESJ_IJXspT2_EEE
_ZSt3getILm0EJRKNSt7__cxx1112basic_stringIcSt11char_traitsIcESaIcEEEEERNSt13tuple_elementIXT_ESt5tupleIJDpT0_EEE4typeERSC_
_ZSt12__get_helperILm0ERKNSt7__cxx1112basic_stringIcSt11char_traitsIcESaIcEEEJEERT0_RSt11_Tuple_implIXT_EJS8_DpT1_EE
_ZNSt11_Tuple_implILm0EJRKNSt7__cxx1112basic_stringIcSt11char_traitsIcESaIcEEEEEC2ES7_
_ZN11opentracing2v28expectedIvSt10error_codeEC2ENS0_10in_place_tE
_ZNSt7__cxx1112basic_stringIcSt11char_traitsIcESaIcEEC1EPKcmRKS3_
_ZNSt9_Any_data9_M_accessIPKSt9type_infoEERT_v
_ZNSt14_Function_base13_Base_managerIZNK13jaegertracing11propagation10PropagatorIRKN11opentracing2v213TextMapReaderERKNS5_13TextMapWriterEE7extractES8_EUlRKNSt7__cxx1112basic_stringIcSt11char_traitsIcESaIcEEESK_E_E8_M_cloneERSt9_Any_dataRKSN_St17integral_constantIbLb0EE
_ZNSt14_Function_base13_Base_managerIZNK13jaegertracing11propagation10PropagatorIRKN11opentracing2v213TextMapReaderERKNS5_13TextMapWriterEE7extractES8_EUlRKNSt7__cxx1112basic_stringIcSt11char_traitsIcESaIcEEESK_E_E10_M_destroyERSt9_Any_dataSt17integral_constantIbLb0EE
_ZNKSt9_Any_data9_M_accessIPKZNK13jaegertracing11propagation10PropagatorIRKN11opentracing2v213TextMapReaderERKNS5_13TextMapWriterEE7extractES8_EUlRKNSt7__cxx1112basic_stringIcSt11char_traitsIcESaIcEEESK_E_EERKT_v
_ZNKSt10error_code8categoryEv
_ZNKSt10error_code5valueEv
_ZNK11opentracing2v215expected_detail9storage_tIvSt10error_codeE5errorEv
_ZNKSt10unique_ptrIN13jaegertracing7metrics7CounterESt14default_deleteIS2_EEdeEv
_ZNKSt10unique_ptrIN13jaegertracing7metrics7CounterESt14default_deleteIS2_EE3getEv
_ZNKSt15__uniq_ptr_implIN13jaegertracing7metrics7CounterESt14default_deleteIS2_EE6_M_ptrEv
_ZSt3getILm0EJPN13jaegertracing7metrics7CounterESt14default_deleteIS2_EEERKNSt13tuple_elementIXT_ESt5tupleIJDpT0_EEE4typeERKSA_
_ZSt12__get_helperILm0EPN13jaegertracing7metrics7CounterEJSt14default_deleteIS2_EEERKT0_RKSt11_Tuple_implIXT_EJS6_DpT1_EE
_ZNSt11_Tuple_implILm0EJPN13jaegertracing7metrics7CounterESt14default_deleteIS2_EEE7_M_headERKS6_
_ZNSt10_Head_baseILm0EPN13jaegertracing7metrics7CounterELb0EE7_M_headERKS4_
_ZNKSt10_HashtableINSt7__cxx1112basic_stringIcSt11char_traitsIcESaIcEEESt4pairIKS5_S5_ESaIS8_ENSt8__detail10_Select1stESt8equal_toIS5_ESt4hashIS5_ENSA_18_Mod_range_hashingENSA_20_Default_ranged_hashENSA_20_Prime_rehash_policyENSA_17_Hashtable_traitsILb1ELb0ELb1EEEE5emptyEv
_ZNSt13unordered_mapINSt7__cxx1112basic_stringIcSt11char_traitsIcESaIcEEES5_St4hashIS5_ESt8equal_toIS5_ESaISt4pairIKS5_S5_EEEC2ERKSE_
_ZNSt10_HashtableINSt7__cxx1112basic_stringIcSt11char_traitsIcESaIcEEESt4pairIKS5_S5_ESaIS8_ENSt8__detail10_Select1stESt8equal_toIS5_ESt4hashIS5_ENSA_18_Mod_range_hashingENSA_20_Default_ranged_hashENSA_20_Prime_rehash_policyENSA_17_Hashtable_traitsILb1ELb0ELb1EEEEC2ERKSL_
_ZN9__gnu_cxx14__alloc_traitsISaINSt8__detail10_Hash_nodeISt4pairIKNSt7__cxx1112basic_stringIcSt11char_traitsIcESaIcEEES9_ELb1EEEESC_E17_S_select_on_copyERKSD_
_ZNKSt8__detail16_Hashtable_allocISaINS_10_Hash_nodeISt4pairIKNSt7__cxx1112basic_stringIcSt11char_traitsIcESaIcEEES8_ELb1EEEEE17_M_node_allocatorEv
_ZNSt10_HashtableINSt7__cxx1112basic_stringIcSt11char_traitsIcESaIcEEESt4pairIKS5_S5_ESaIS8_ENSt8__detail10_Select1stESt8equal_toIS5_ESt4hashIS5_ENSA_18_Mod_range_hashingENSA_20_Default_ranged_hashENSA_20_Prime_rehash_policyENSA_17_Hashtable_traitsILb1ELb0ELb1EEEE9_M_assignIZNSL_C1ERKSL_EUlPKNSA_10_Hash_nodeIS8_Lb1EEEE_EEvSO_RKT_
_ZNSt16allocator_traitsISaINSt8__detail10_Hash_nodeISt4pairIKNSt7__cxx1112basic_stringIcSt11char_traitsIcESaIcEEES8_ELb1EEEEE37select_on_container_copy_constructionERKSC_
_ZNSaINSt8__detail10_Hash_nodeISt4pairIKNSt7__cxx1112basic_stringIcSt11char_traitsIcESaIcEEES7_ELb1EEEEC2ERKSB_
_ZNSt8__detail21_Hashtable_ebo_helperILi0ESaINS_10_Hash_nodeISt4pairIKNSt7__cxx1112basic_stringIcSt11char_traitsIcESaIcEEES8_ELb1EEEELb1EE7_S_cgetERKSD_
_ZZNSt10_HashtableINSt7__cxx1112basic_stringIcSt11char_traitsIcESaIcEEESt4pairIKS5_S5_ESaIS8_ENSt8__detail10_Select1stESt8equal_toIS5_ESt4hashIS5_ENSA_18_Mod_range_hashingENSA_20_Default_ranged_hashENSA_20_Prime_rehash_policyENSA_17_Hashtable_traitsILb1ELb0ELb1EEEEC1ERKSL_ENKUlPKNSA_10_Hash_nodeIS8_Lb1EEEE_clB5cxx11ESR_
_ZNKSt8__detail15_Hash_code_baseINSt7__cxx1112basic_stringIcSt11char_traitsIcESaIcEEESt4pairIKS6_S6_ENS_10_Select1stESt4hashIS6_ENS_18_Mod_range_hashingENS_20_Default_ranged_hashELb1EE12_M_copy_codeEPNS_10_Hash_nodeIS9_Lb1EEEPKSH_
_ZNKSt8__detail21_Hash_node_value_baseISt4pairIKNSt7__cxx1112basic_stringIcSt11char_traitsIcESaIcEEES7_EE4_M_vEv
_ZNKSt8__detail21_Hash_node_value_baseISt4pairIKNSt7__cxx1112basic_stringIcSt11char_traitsIcESaIcEEES7_EE9_M_valptrEv
_ZNK9__gnu_cxx16__aligned_bufferISt4pairIKNSt7__cxx1112basic_stringIcSt11char_traitsIcESaIcEEES7_EE6_M_ptrEv
_ZNK9__gnu_cxx16__aligned_bufferISt4pairIKNSt7__cxx1112basic_stringIcSt11char_traitsIcESaIcEEES7_EE7_M_addrEv
_ZlsRSoRKN13jaegertracing11SpanContextE
_ZN11opentracing2v211string_viewC2ERKNSt7__cxx1112basic_stringIcSt11char_traitsIcESaIcEEE
_ZNK13jaegertracing11SpanContext18forEachBaggageItemIZNKS_11propagation10PropagatorIRKN11opentracing2v213TextMapReaderERKNS5_13TextMapWriterEE6injectERKS0_SB_EUlRKNSt7__cxx1112basic_stringIcSt11char_traitsIcESaIcEEESM_E_EEvT_
_ZNK13jaegertracing11SpanContext5printISoEEvRT_
_ZNK13jaegertracing7TraceID5printISoEEvRT_
_ZStlsISt11char_traitsIcEERSt13basic_ostreamIcT_ES5_c
_ZNSolsEm
_ZStlsIcSt11char_traitsIcEERSt13basic_ostreamIT_T0_ES6_St8_SetfillIS3_E
_ZStlsIcSt11char_traitsIcEERSt13basic_ostreamIT_T0_ES6_St5_Setw
_ZSt4setwi
_ZSt7setfillIcESt8_SetfillIT_ES1_
_ZZNK13jaegertracing11propagation10PropagatorIRKN11opentracing2v213TextMapReaderERKNS3_13TextMapWriterEE6injectERKNS_11SpanContextES9_ENKUlRKNSt7__cxx1112basic_stringIcSt11char_traitsIcESaIcEEESL_E_clESL_SL_
_ZNK13jaegertracing11propagation10PropagatorIRKN11opentracing2v213TextMapReaderERKNS3_13TextMapWriterEE19addBaggageKeyPrefixERKNSt7__cxx1112basic_stringIcSt11char_traitsIcESaIcEEE
_ZN13jaegertracing11propagation10PropagatorIRKN11opentracing2v217HTTPHeadersReaderERKNS3_17HTTPHeadersWriterEEC2ERKNS0_13HeadersConfigERKSt10shared_ptrINS_7metrics7MetricsEE
_ZN13jaegertracing11propagation20HTTPHeaderPropagatorD0Ev
_ZNK13jaegertracing11propagation10PropagatorIRKN11opentracing2v217HTTPHeadersReaderERKNS3_17HTTPHeadersWriterEE7extractES6_
_ZNK13jaegertracing11propagation10PropagatorIRKN11opentracing2v217HTTPHeadersReaderERKNS3_17HTTPHeadersWriterEE6injectERKNS_11SpanContextES9_
_ZNK13jaegertracing11propagation20HTTPHeaderPropagator11encodeValueERKNSt7__cxx1112basic_stringIcSt11char_traitsIcESaIcEEE
_ZNK13jaegertracing11propagation20HTTPHeaderPropagator11decodeValueERKNSt7__cxx1112basic_stringIcSt11char_traitsIcESaIcEEE
_ZNK13jaegertracing11propagation20HTTPHeaderPropagator12normalizeKeyERKNSt7__cxx1112basic_stringIcSt11char_traitsIcESaIcEEE
_ZThn8_N13jaegertracing11propagation20HTTPHeaderPropagatorD1Ev
_ZThn8_N13jaegertracing11propagation20HTTPHeaderPropagatorD0Ev
_ZThn8_NK13jaegertracing11propagation10PropagatorIRKN11opentracing2v217HTTPHeadersReaderERKNS3_17HTTPHeadersWriterEE6injectERKNS_11SpanContextES9_
_ZN13jaegertracing11propagation9ExtractorIRKN11opentracing2v217HTTPHeadersReaderEEC2Ev
_ZN13jaegertracing11propagation8InjectorIRKN11opentracing2v217HTTPHeadersWriterEEC2Ev
_ZN13jaegertracing11propagation10PropagatorIRKN11opentracing2v217HTTPHeadersReaderERKNS3_17HTTPHeadersWriterEED2Ev
_ZN13jaegertracing11propagation10PropagatorIRKN11opentracing2v217HTTPHeadersReaderERKNS3_17HTTPHeadersWriterEED0Ev
_ZNK13jaegertracing11propagation10PropagatorIRKN11opentracing2v217HTTPHeadersReaderERKNS3_17HTTPHeadersWriterEE11encodeValueERKNSt7__cxx1112basic_stringIcSt11char_traitsIcESaIcEEE
_ZNK13jaegertracing11propagation10PropagatorIRKN11opentracing2v217HTTPHeadersReaderERKNS3_17HTTPHeadersWriterEE11decodeValueERKNSt7__cxx1112basic_stringIcSt11char_traitsIcESaIcEEE
_ZNK13jaegertracing11propagation10PropagatorIRKN11opentracing2v217HTTPHeadersReaderERKNS3_17HTTPHeadersWriterEE12normalizeKeyERKNSt7__cxx1112basic_stringIcSt11char_traitsIcESaIcEEE
_ZThn8_N13jaegertracing11propagation10PropagatorIRKN11opentracing2v217HTTPHeadersReaderERKNS3_17HTTPHeadersWriterEED1Ev
_ZThn8_N13jaegertracing11propagation10PropagatorIRKN11opentracing2v217HTTPHeadersReaderERKNS3_17HTTPHeadersWriterEED0Ev
_ZN13jaegertracing11propagation9ExtractorIRKN11opentracing2v217HTTPHeadersReaderEED2Ev
_ZN13jaegertracing11propagation9ExtractorIRKN11opentracing2v217HTTPHeadersReaderEED0Ev
_ZN13jaegertracing11propagation8InjectorIRKN11opentracing2v217HTTPHeadersWriterEED2Ev
_ZN13jaegertracing11propagation8InjectorIRKN11opentracing2v217HTTPHeadersWriterEED0Ev
_ZNSt8functionIFN11opentracing2v28expectedIvSt10error_codeEENS1_11string_viewES5_EEC2IZNK13jaegertracing11propagation10PropagatorIRKNS1_17HTTPHeadersReaderERKNS1_17HTTPHeadersWriterEE7extractESE_EUlRKNSt7__cxx1112basic_stringIcSt11char_traitsIcESaIcEEESQ_E_vvEET_
_ZNSt14_Function_base13_Base_managerIZNK13jaegertracing11propagation10PropagatorIRKN11opentracing2v217HTTPHeadersReaderERKNS5_17HTTPHeadersWriterEE7extractES8_EUlRKNSt7__cxx1112basic_stringIcSt11char_traitsIcESaIcEEESK_E_E21_M_not_empty_functionISL_EEbRKT_
_ZNSt14_Function_base13_Base_managerIZNK13jaegertracing11propagation10PropagatorIRKN11opentracing2v217HTTPHeadersReaderERKNS5_17HTTPHeadersWriterEE7extractES8_EUlRKNSt7__cxx1112basic_stringIcSt11char_traitsIcESaIcEEESK_E_E15_M_init_functorERSt9_Any_dataOSL_
_ZSt4moveIRZNK13jaegertracing11propagation10PropagatorIRKN11opentracing2v217HTTPHeadersReaderERKNS4_17HTTPHeadersWriterEE7extractES7_EUlRKNSt7__cxx1112basic_stringIcSt11char_traitsIcESaIcEEESJ_E_EONSt16remove_referenceIT_E4typeEOSN_
_ZNSt17_Function_handlerIFN11opentracing2v28expectedIvSt10error_codeEENS1_11string_viewES5_EZNK13jaegertracing11propagation10PropagatorIRKNS1_17HTTPHeadersReaderERKNS1_17HTTPHeadersWriterEE7extractESC_EUlRKNSt7__cxx1112basic_stringIcSt11char_traitsIcESaIcEEESO_E_E9_M_invokeERKSt9_Any_dataOS5_SU_
_ZNSt14_Function_base13_Base_managerIZNK13jaegertracing11propagation10PropagatorIRKN11opentracing2v217HTTPHeadersReaderERKNS5_17HTTPHeadersWriterEE7extractES8_EUlRKNSt7__cxx1112basic_stringIcSt11char_traitsIcESaIcEEESK_E_E10_M_managerERSt9_Any_dataRKSN_St18_Manager_operation
_ZNSt14_Function_base13_Base_managerIZNK13jaegertracing11propagation10PropagatorIRKN11opentracing2v217HTTPHeadersReaderERKNS5_17HTTPHeadersWriterEE7extractES8_EUlRKNSt7__cxx1112basic_stringIcSt11char_traitsIcESaIcEEESK_E_E15_M_init_functorERSt9_Any_dataOSL_St17integral_constantIbLb0EE
_ZNSt9_Any_data9_M_accessIPZNK13jaegertracing11propagation10PropagatorIRKN11opentracing2v217HTTPHeadersReaderERKNS5_17HTTPHeadersWriterEE7extractES8_EUlRKNSt7__cxx1112basic_stringIcSt11char_traitsIcESaIcEEESK_E_EERT_v
_ZNSt14_Function_base13_Base_managerIZNK13jaegertracing11propagation10PropagatorIRKN11opentracing2v217HTTPHeadersReaderERKNS5_17HTTPHeadersWriterEE7extractES8_EUlRKNSt7__cxx1112basic_stringIcSt11char_traitsIcESaIcEEESK_E_E14_M_get_pointerERKSt9_Any_data
_ZZNK13jaegertracing11propagation10PropagatorIRKN11opentracing2v217HTTPHeadersReaderERKNS3_17HTTPHeadersWriterEE7extractES6_ENKUlRKNSt7__cxx1112basic_stringIcSt11char_traitsIcESaIcEEESI_E_clESI_SI_
_ZNKSt9_Any_data9_M_accessIPZNK13jaegertracing11propagation10PropagatorIRKN11opentracing2v217HTTPHeadersReaderERKNS5_17HTTPHeadersWriterEE7extractES8_EUlRKNSt7__cxx1112basic_stringIcSt11char_traitsIcESaIcEEESK_E_EERKT_v
_ZN13jaegertracing11propagation10PropagatorIRKN11opentracing2v217HTTPHeadersReaderERKNS3_17HTTPHeadersWriterEE22parseCommaSeparatedMapERKNSt7__cxx1112basic_stringIcSt11char_traitsIcESaIcEEE
_ZNK13jaegertracing11propagation10PropagatorIRKN11opentracing2v217HTTPHeadersReaderERKNS3_17HTTPHeadersWriterEE22removeBaggageKeyPrefixERKNSt7__cxx1112basic_stringIcSt11char_traitsIcESaIcEEE
_ZNSt14_Function_base13_Base_managerIZNK13jaegertracing11propagation10PropagatorIRKN11opentracing2v217HTTPHeadersReaderERKNS5_17HTTPHeadersWriterEE7extractES8_EUlRKNSt7__cxx1112basic_stringIcSt11char_traitsIcESaIcEEESK_E_E8_M_cloneERSt9_Any_dataRKSN_St17integral_constantIbLb0EE
_ZNSt14_Function_base13_Base_managerIZNK13jaegertracing11propagation10PropagatorIRKN11opentracing2v217HTTPHeadersReaderERKNS5_17HTTPHeadersWriterEE7extractES8_EUlRKNSt7__cxx1112basic_stringIcSt11char_traitsIcESaIcEEESK_E_E10_M_destroyERSt9_Any_dataSt17integral_constantIbLb0EE
_ZNKSt9_Any_data9_M_accessIPKZNK13jaegertracing11propagation10PropagatorIRKN11opentracing2v217HTTPHeadersReaderERKNS5_17HTTPHeadersWriterEE7extractES8_EUlRKNSt7__cxx1112basic_stringIcSt11char_traitsIcESaIcEEESK_E_EERKT_v
_ZNK13jaegertracing11SpanContext18forEachBaggageItemIZNKS_11propagation10PropagatorIRKN11opentracing2v217HTTPHeadersReaderERKNS5_17HTTPHeadersWriterEE6injectERKS0_SB_EUlRKNSt7__cxx1112basic_stringIcSt11char_traitsIcESaIcEEESM_E_EEvT_
_ZZNK13jaegertracing11propagation10PropagatorIRKN11opentracing2v217HTTPHeadersReaderERKNS3_17HTTPHeadersWriterEE6injectERKNS_11SpanContextES9_ENKUlRKNSt7__cxx1112basic_stringIcSt11char_traitsIcESaIcEEESL_E_clESL_SL_
_ZNK13jaegertracing11propagation10PropagatorIRKN11opentracing2v217HTTPHeadersReaderERKNS3_17HTTPHeadersWriterEE19addBaggageKeyPrefixERKNSt7__cxx1112basic_stringIcSt11char_traitsIcESaIcEEE
_ZN13jaegertracing3net3URI11queryEscapeERKNSt7__cxx1112basic_stringIcSt11char_traitsIcESaIcEEE
_ZSt9transformIN9__gnu_cxx17__normal_iteratorIPKcNSt7__cxx1112basic_stringIcSt11char_traitsIcESaIcEEEEESt20back_insert_iteratorIS9_EZNK13jaegertracing11propagation20HTTPHeaderPropagator12normalizeKeyERKS9_EUlcE_ET0_T_SK_SJ_T1_
_ZZNK13jaegertracing11propagation20HTTPHeaderPropagator12normalizeKeyERKNSt7__cxx1112basic_stringIcSt11char_traitsIcESaIcEEEENKUlcE_clEc
_ZN13jaegertracing11propagation9ExtractorIRSiEC2Ev
_ZN13jaegertracing11propagation8InjectorIRSoEC2Ev
_ZSteqIN13jaegertracing7metrics7MetricsEEbRKSt10shared_ptrIT_EDn
_ZN13jaegertracing7metrics7Metrics15makeNullMetricsEv
_ZNSt10shared_ptrIN13jaegertracing7metrics7MetricsEEC2IS2_St14default_deleteIS2_EvEEOSt10unique_ptrIT_T0_E
_ZNSt10unique_ptrIN13jaegertracing7metrics7MetricsESt14default_deleteIS2_EED2Ev
_ZN13jaegertracing11propagation16BinaryPropagatorD0Ev
_ZNK13jaegertracing11propagation16BinaryPropagator7extractERSi
_ZNK13jaegertracing11propagation16BinaryPropagator6injectERKNS_11SpanContextERSo
_ZThn8_N13jaegertracing11propagation16BinaryPropagatorD1Ev
_ZThn8_N13jaegertracing11propagation16BinaryPropagatorD0Ev
_ZThn8_NK13jaegertracing11propagation16BinaryPropagator6injectERKNS_11SpanContextERSo
_ZN13jaegertracing11propagation9ExtractorIRSiED2Ev
_ZN13jaegertracing11propagation9ExtractorIRSiED0Ev
_ZN13jaegertracing11propagation8InjectorIRSoED2Ev
_ZN13jaegertracing11propagation8InjectorIRSoED0Ev
_ZNKSt12__shared_ptrIN13jaegertracing7metrics7MetricsELN9__gnu_cxx12_Lock_policyE2EEcvbEv
_ZSt4moveIRSt10unique_ptrIN13jaegertracing7metrics7MetricsESt14default_deleteIS3_EEEONSt16remove_referenceIT_E4typeEOS9_
_ZNSt12__shared_ptrIN13jaegertracing7metrics7MetricsELN9__gnu_cxx12_Lock_policyE2EEC2IS2_St14default_deleteIS2_EvEEOSt10unique_ptrIT_T0_E
_ZNKSt10unique_ptrIN13jaegertracing7metrics7MetricsESt14default_deleteIS2_EE3getEv
_ZSt12__to_addressIN13jaegertracing7metrics7MetricsEEPT_S4_
_ZNSt14__shared_countILN9__gnu_cxx12_Lock_policyE2EEC2IN13jaegertracing7metrics7MetricsESt14default_deleteIS6_EEEOSt10unique_ptrIT_T0_E
_ZNKSt15__uniq_ptr_implIN13jaegertracing7metrics7MetricsESt14default_deleteIS2_EE6_M_ptrEv
_ZSt3getILm0EJPN13jaegertracing7metrics7MetricsESt14default_deleteIS2_EEERKNSt13tuple_elementIXT_ESt5tupleIJDpT0_EEE4typeERKSA_
_ZSt12__get_helperILm0EPN13jaegertracing7metrics7MetricsEJSt14default_deleteIS2_EEERKT0_RKSt11_Tuple_implIXT_EJS6_DpT1_EE
_ZNSt11_Tuple_implILm0EJPN13jaegertracing7metrics7MetricsESt14default_deleteIS2_EEE7_M_headERKS6_
_ZNSt10_Head_baseILm0EPN13jaegertracing7metrics7MetricsELb0EE7_M_headERKS4_
_ZNSaISt19_Sp_counted_deleterIPN13jaegertracing7metrics7MetricsESt14default_deleteIS2_ESaIvELN9__gnu_cxx12_Lock_policyE2EEEC2Ev
_ZNSt16allocator_traitsISaISt19_Sp_counted_deleterIPN13jaegertracing7metrics7MetricsESt14default_deleteIS3_ESaIvELN9__gnu_cxx12_Lock_policyE2EEEE8allocateERSB_m
_ZNSt16allocator_traitsISaISt19_Sp_counted_deleterIPN13jaegertracing7metrics7MetricsESt14default_deleteIS3_ESaIvELN9__gnu_cxx12_Lock_policyE2EEEE9constructISA_JS4_RS6_EEEvRSB_PT_DpOT0_
_ZNSt10unique_ptrIN13jaegertracing7metrics7MetricsESt14default_deleteIS2_EE7releaseEv
_ZNSt10unique_ptrIN13jaegertracing7metrics7MetricsESt14default_deleteIS2_EE11get_deleterEv
_ZNSaISt19_Sp_counted_deleterIPN13jaegertracing7metrics7MetricsESt14default_deleteIS2_ESaIvELN9__gnu_cxx12_Lock_policyE2EEED2Ev
_ZN9__gnu_cxx13new_allocatorISt19_Sp_counted_deleterIPN13jaegertracing7metrics7MetricsESt14default_deleteIS4_ESaIvELNS_12_Lock_policyE2EEEC2Ev
_ZN9__gnu_cxx13new_allocatorISt19_Sp_counted_deleterIPN13jaegertracing7metrics7MetricsESt14default_deleteIS4_ESaIvELNS_12_Lock_policyE2EEE8allocateEmPKv
_ZNK9__gnu_cxx13new_allocatorISt19_Sp_counted_deleterIPN13jaegertracing7metrics7MetricsESt14default_deleteIS4_ESaIvELNS_12_Lock_policyE2EEE8max_sizeEv
_ZN9__gnu_cxx13new_allocatorISt19_Sp_counted_deleterIPN13jaegertracing7metrics7MetricsESt14default_deleteIS4_ESaIvELNS_12_Lock_policyE2EEE9constructISA_JS5_RS7_EEEvPT_DpOT0_
_ZSt7forwardIPN13jaegertracing7metrics7MetricsEEOT_RNSt16remove_referenceIS4_E4typeE
_ZSt7forwardIRSt14default_deleteIN13jaegertracing7metrics7MetricsEEEOT_RNSt16remove_referenceIS6_E4typeE
_ZNSt19_Sp_counted_deleterIPN13jaegertracing7metrics7MetricsESt14default_deleteIS2_ESaIvELN9__gnu_cxx12_Lock_policyE2EEC2ES3_S5_
_ZSt4moveIRSt14default_deleteIN13jaegertracing7metrics7MetricsEEEONSt16remove_referenceIT_E4typeEOS7_
_ZNSt19_Sp_counted_deleterIPN13jaegertracing7metrics7MetricsESt14default_deleteIS2_ESaIvELN9__gnu_cxx12_Lock_policyE2EE5_ImplC2ES3_S5_RKS6_
_ZNSt19_Sp_counted_deleterIPN13jaegertracing7metrics7MetricsESt14default_deleteIS2_ESaIvELN9__gnu_cxx12_Lock_policyE2EED2Ev
_ZNSt19_Sp_counted_deleterIPN13jaegertracing7metrics7MetricsESt14default_deleteIS2_ESaIvELN9__gnu_cxx12_Lock_policyE2EED0Ev
_ZNSt19_Sp_counted_deleterIPN13jaegertracing7metrics7MetricsESt14default_deleteIS2_ESaIvELN9__gnu_cxx12_Lock_policyE2EE10_M_disposeEv
_ZNSt19_Sp_counted_deleterIPN13jaegertracing7metrics7MetricsESt14default_deleteIS2_ESaIvELN9__gnu_cxx12_Lock_policyE2EE10_M_destroyEv
_ZNSt19_Sp_counted_deleterIPN13jaegertracing7metrics7MetricsESt14default_deleteIS2_ESaIvELN9__gnu_cxx12_Lock_policyE2EE14_M_get_deleterERKSt9type_info
_ZNSt14_Sp_ebo_helperILi0ESt14default_deleteIN13jaegertracing7metrics7MetricsEELb1EEC2EOS4_
_ZNSt19_Sp_counted_deleterIPN13jaegertracing7metrics7MetricsESt14default_deleteIS2_ESaIvELN9__gnu_cxx12_Lock_policyE2EE5_Impl6_M_delEv
_ZNKSt14default_deleteIN13jaegertracing7metrics7MetricsEEclEPS2_
_ZNSt14_Sp_ebo_helperILi0ESt14default_deleteIN13jaegertracing7metrics7MetricsEELb1EE6_S_getERS5_
_ZNSt19_Sp_counted_deleterIPN13jaegertracing7metrics7MetricsESt14default_deleteIS2_ESaIvELN9__gnu_cxx12_Lock_policyE2EE5_Impl8_M_allocEv
_ZNSaISt19_Sp_counted_deleterIPN13jaegertracing7metrics7MetricsESt14default_deleteIS2_ESaIvELN9__gnu_cxx12_Lock_policyE2EEEC2IvEERKSaIT_E
_ZNSt15__allocated_ptrISaISt19_Sp_counted_deleterIPN13jaegertracing7metrics7MetricsESt14default_deleteIS3_ESaIvELN9__gnu_cxx12_Lock_policyE2EEEEC2ERSB_PSA_
_ZNSt15__allocated_ptrISaISt19_Sp_counted_deleterIPN13jaegertracing7metrics7MetricsESt14default_deleteIS3_ESaIvELN9__gnu_cxx12_Lock_policyE2EEEED2Ev
_ZSt11__addressofISaISt19_Sp_counted_deleterIPN13jaegertracing7metrics7MetricsESt14default_deleteIS3_ESaIvELN9__gnu_cxx12_Lock_policyE2EEEEPT_RSC_
_ZNSt16allocator_traitsISaISt19_Sp_counted_deleterIPN13jaegertracing7metrics7MetricsESt14default_deleteIS3_ESaIvELN9__gnu_cxx12_Lock_policyE2EEEE10deallocateERSB_PSA_m
_ZN9__gnu_cxx13new_allocatorISt19_Sp_counted_deleterIPN13jaegertracing7metrics7MetricsESt14default_deleteIS4_ESaIvELNS_12_Lock_policyE2EEE10deallocateEPSA_m
_ZSt11__addressofISt14default_deleteIN13jaegertracing7metrics7MetricsEEEPT_RS5_
_ZNSt15__uniq_ptr_implIN13jaegertracing7metrics7MetricsESt14default_deleteIS2_EE6_M_ptrEv
_ZSt3getILm0EJPN13jaegertracing7metrics7MetricsESt14default_deleteIS2_EEERNSt13tuple_elementIXT_ESt5tupleIJDpT0_EEE4typeERSA_
_ZSt12__get_helperILm0EPN13jaegertracing7metrics7MetricsEJSt14default_deleteIS2_EEERT0_RSt11_Tuple_implIXT_EJS6_DpT1_EE
_ZNSt11_Tuple_implILm0EJPN13jaegertracing7metrics7MetricsESt14default_deleteIS2_EEE7_M_headERS6_
_ZNSt10_Head_baseILm0EPN13jaegertracing7metrics7MetricsELb0EE7_M_headERS4_
_ZNSt15__uniq_ptr_implIN13jaegertracing7metrics7MetricsESt14default_deleteIS2_EE10_M_deleterEv
_ZSt3getILm1EJPN13jaegertracing7metrics7MetricsESt14default_deleteIS2_EEERNSt13tuple_elementIXT_ESt5tupleIJDpT0_EEE4typeERSA_
_ZSt12__get_helperILm1ESt14default_deleteIN13jaegertracing7metrics7MetricsEEJEERT0_RSt11_Tuple_implIXT_EJS5_DpT1_EE
_ZNSt11_Tuple_implILm1EJSt14default_deleteIN13jaegertracing7metrics7MetricsEEEE7_M_headERS5_
_ZNSt10_Head_baseILm1ESt14default_deleteIN13jaegertracing7metrics7MetricsEELb1EE7_M_headERS5_
_ZN9__gnu_cxx13new_allocatorISt19_Sp_counted_deleterIPN13jaegertracing7metrics7MetricsESt14default_deleteIS4_ESaIvELNS_12_Lock_policyE2EEED2Ev
_ZSt4moveIRPN13jaegertracing7metrics7MetricsEEONSt16remove_referenceIT_E4typeEOS6_
_ZN13jaegertracing11propagation16BinaryPropagator10readBinaryImEENSt9enable_ifIXsr3std11is_integralIT_EE5valueES4_E4typeERSi
_ZNSi3getERc
_ZN13jaegertracing11propagation16BinaryPropagator10readBinaryIjEENSt9enable_ifIXsr3std11is_integralIT_EE5valueES4_E4typeERSi
_ZNSt13unordered_mapINSt7__cxx1112basic_stringIcSt11char_traitsIcESaIcEEES5_St4hashIS5_ESt8equal_toIS5_ESaISt4pairIKS5_S5_EEE7reserveEm
_ZNSi4readEPcl
_ZN13jaegertracing11SpanContextC2ERKS0_
_ZN13jaegertracing8platform6endian13fromBigEndianEm
_ZL10__bswap_64m
_ZN13jaegertracing8platform6endian13fromBigEndianEj
_ZL10__bswap_32j
_ZNSt8__detail12_Rehash_baseINSt7__cxx1112basic_stringIcSt11char_traitsIcESaIcEEESt4pairIKS6_S6_ESaIS9_ENS_10_Select1stESt8equal_toIS6_ESt4hashIS6_ENS_18_Mod_range_hashingENS_20_Default_ranged_hashENS_20_Prime_rehash_policyENS_17_Hashtable_traitsILb1ELb0ELb1EEESt17integral_constantIbLb1EEE7reserveEm
_ZNSt10_HashtableINSt7__cxx1112basic_stringIcSt11char_traitsIcESaIcEEESt4pairIKS5_S5_ESaIS8_ENSt8__detail10_Select1stESt8equal_toIS5_ESt4hashIS5_ENSA_18_Mod_range_hashingENSA_20_Default_ranged_hashENSA_20_Prime_rehash_policyENSA_17_Hashtable_traitsILb1ELb0ELb1EEEE6rehashEm
_ZNKSt8__detail12_Rehash_baseINSt7__cxx1112basic_stringIcSt11char_traitsIcESaIcEEESt4pairIKS6_S6_ESaIS9_ENS_10_Select1stESt8equal_toIS6_ESt4hashIS6_ENS_18_Mod_range_hashingENS_20_Default_ranged_hashENS_20_Prime_rehash_policyENS_17_Hashtable_traitsILb1ELb0ELb1EEESt17integral_constantIbLb1EEE15max_load_factorEv
_ZNKSt10_HashtableINSt7__cxx1112basic_stringIcSt11char_traitsIcESaIcEEESt4pairIKS5_S5_ESaIS8_ENSt8__detail10_Select1stESt8equal_toIS5_ESt4hashIS5_ENSA_18_Mod_range_hashingENSA_20_Default_ranged_hashENSA_20_Prime_rehash_policyENSA_17_Hashtable_traitsILb1ELb0ELb1EEEE15__rehash_policyEv
_ZNKSt8__detail20_Prime_rehash_policy15max_load_factorEv
_ZN13jaegertracing11propagation16BinaryPropagator11writeBinaryImEENSt9enable_ifIXsr3std11is_integralIT_EE5valueEvE4typeERSoS4_
_ZNK13jaegertracing7TraceID4highEv
_ZNSo3putEc
_ZN13jaegertracing11propagation16BinaryPropagator11writeBinaryIjEENSt9enable_ifIXsr3std11is_integralIT_EE5valueEvE4typeERSoS4_
_ZNK13jaegertracing11SpanContext7baggageB5cxx11Ev
_ZNKSt13unordered_mapINSt7__cxx1112basic_stringIcSt11char_traitsIcESaIcEEES5_St4hashIS5_ESt8equal_toIS5_ESaISt4pairIKS5_S5_EEE4sizeEv
_ZNSo5writeEPKcl
_ZN13jaegertracing8platform6endian11toBigEndianEm
_ZN13jaegertracing8platform6endian11toBigEndianEj
_ZNSt12_Vector_baseIN13jaegertracing3TagESaIS1_EEC2Ev
_ZNSt12_Vector_baseIN13jaegertracing3TagESaIS1_EE12_Vector_implC2Ev
_ZN13jaegertracing7baggage18RestrictionManagerC2Ev
_ZN13jaegertracing7baggage11RestrictionC2Ebi
_ZN13jaegertracing7baggage25DefaultRestrictionManagerD2Ev
_ZN13jaegertracing7baggage25DefaultRestrictionManagerD0Ev
_ZN13jaegertracing7baggage25DefaultRestrictionManager14getRestrictionERKNSt7__cxx1112basic_stringIcSt11char_traitsIcESaIcEEES9_
_ZN13jaegertracing7baggage18RestrictionManager5closeEv
_ZN13jaegertracing7baggage18RestrictionManagerD2Ev
_ZN13jaegertracing7baggage18RestrictionManagerD0Ev
_ZNSt15__uniq_ptr_implIN13jaegertracing7baggage18RestrictionManagerESt14default_deleteIS2_EEC2EPS2_
_ZNSt5tupleIJPN13jaegertracing7baggage18RestrictionManagerESt14default_deleteIS2_EEEC2IS3_S5_Lb1EEEv
_ZNSt15__uniq_ptr_implIN13jaegertracing7baggage18RestrictionManagerESt14default_deleteIS2_EE6_M_ptrEv
_ZNSt11_Tuple_implILm0EJPN13jaegertracing7baggage18RestrictionManagerESt14default_deleteIS2_EEEC2Ev
_ZNSt11_Tuple_implILm1EJSt14default_deleteIN13jaegertracing7baggage18RestrictionManagerEEEEC2Ev
_ZNSt10_Head_baseILm0EPN13jaegertracing7baggage18RestrictionManagerELb0EEC2Ev
_ZNSt10_Head_baseILm1ESt14default_deleteIN13jaegertracing7baggage18RestrictionManagerEELb1EEC2Ev
_ZSt3getILm0EJPN13jaegertracing7baggage18RestrictionManagerESt14default_deleteIS2_EEERNSt13tuple_elementIXT_ESt5tupleIJDpT0_EEE4typeERSA_
_ZSt12__get_helperILm0EPN13jaegertracing7baggage18RestrictionManagerEJSt14default_deleteIS2_EEERT0_RSt11_Tuple_implIXT_EJS6_DpT1_EE
_ZNSt11_Tuple_implILm0EJPN13jaegertracing7baggage18RestrictionManagerESt14default_deleteIS2_EEE7_M_headERS6_
_ZNSt10_Head_baseILm0EPN13jaegertracing7baggage18RestrictionManagerELb0EE7_M_headERS4_
_ZNKSt10unique_ptrIN13jaegertracing7baggage18RestrictionManagerESt14default_deleteIS2_EE3getEv
_ZNKSt15__uniq_ptr_implIN13jaegertracing7baggage18RestrictionManagerESt14default_deleteIS2_EE6_M_ptrEv
_ZSt3getILm0EJPN13jaegertracing7baggage18RestrictionManagerESt14default_deleteIS2_EEERKNSt13tuple_elementIXT_ESt5tupleIJDpT0_EEE4typeERKSA_
_ZSt12__get_helperILm0EPN13jaegertracing7baggage18RestrictionManagerEJSt14default_deleteIS2_EEERKT0_RKSt11_Tuple_implIXT_EJS6_DpT1_EE
_ZNSt11_Tuple_implILm0EJPN13jaegertracing7baggage18RestrictionManagerESt14default_deleteIS2_EEE7_M_headERKS6_
_ZNSt10_Head_baseILm0EPN13jaegertracing7baggage18RestrictionManagerELb0EE7_M_headERKS4_
_ZNSt6vectorIN13jaegertracing3TagESaIS1_EE12emplace_backIJS1_EEEvDpOT_
_ZSt4moveIRN13jaegertracing3TagEEONSt16remove_referenceIT_E4typeEOS4_
_ZNSt16allocator_traitsISaIN13jaegertracing3TagEEE9constructIS1_JS1_EEEvRS2_PT_DpOT0_
_ZSt7forwardIN13jaegertracing3TagEEOT_RNSt16remove_referenceIS2_E4typeE
_ZNSt6vectorIN13jaegertracing3TagESaIS1_EE17_M_realloc_insertIJS1_EEEvN9__gnu_cxx17__normal_iteratorIPS1_S3_EEDpOT_
_ZNSt6vectorIN13jaegertracing3TagESaIS1_EE3endEv
_ZN9__gnu_cxx13new_allocatorIN13jaegertracing3TagEE9constructIS2_JS2_EEEvPT_DpOT0_
_ZN13jaegertracing3TagC2EOS0_
_ZNSt7__cxx1112basic_stringIcSt11char_traitsIcESaIcEEC1EOS4_
_ZN11opentracing2v25ValueC2EOS1_
_ZN11opentracing2v24util7variantIJbdlmNSt7__cxx1112basic_stringIcSt11char_traitsIcESaIcEEEDnPKcNS1_17recursive_wrapperISt6vectorINS0_5ValueESaISD_EEEENSB_ISt13unordered_mapIS8_SD_St4hashIS8_ESt8equal_toIS8_ESaISt4pairIKS8_SD_EEEEEEEC2EOSS_
_ZN11opentracing2v24util6detail14variant_helperIJbdlmNSt7__cxx1112basic_stringIcSt11char_traitsIcESaIcEEEDnPKcNS1_17recursive_wrapperISt6vectorINS0_5ValueESaISE_EEEENSC_ISt13unordered_mapIS9_SE_St4hashIS9_ESt8equal_toIS9_ESaISt4pairIKS9_SE_EEEEEEE4moveEmPvSU_
_ZSt4moveIRbEONSt16remove_referenceIT_E4typeEOS2_
_ZN11opentracing2v24util6detail14variant_helperIJdlmNSt7__cxx1112basic_stringIcSt11char_traitsIcESaIcEEEDnPKcNS1_17recursive_wrapperISt6vectorINS0_5ValueESaISE_EEEENSC_ISt13unordered_mapIS9_SE_St4hashIS9_ESt8equal_toIS9_ESaISt4pairIKS9_SE_EEEEEEE4moveEmPvSU_
_ZSt4moveIRdEONSt16remove_referenceIT_E4typeEOS2_
_ZN11opentracing2v24util6detail14variant_helperIJlmNSt7__cxx1112basic_stringIcSt11char_traitsIcESaIcEEEDnPKcNS1_17recursive_wrapperISt6vectorINS0_5ValueESaISE_EEEENSC_ISt13unordered_mapIS9_SE_St4hashIS9_ESt8equal_toIS9_ESaISt4pairIKS9_SE_EEEEEEE4moveEmPvSU_
_ZSt4moveIRlEONSt16remove_referenceIT_E4typeEOS2_
_ZN11opentracing2v24util6detail14variant_helperIJmNSt7__cxx1112basic_stringIcSt11char_traitsIcESaIcEEEDnPKcNS1_17recursive_wrapperISt6vectorINS0_5ValueESaISE_EEEENSC_ISt13unordered_mapIS9_SE_St4hashIS9_ESt8equal_toIS9_ESaISt4pairIKS9_SE_EEEEEEE4moveEmPvSU_
_ZN11opentracing2v24util6detail14variant_helperIJNSt7__cxx1112basic_stringIcSt11char_traitsIcESaIcEEEDnPKcNS1_17recursive_wrapperISt6vectorINS0_5ValueESaISE_EEEENSC_ISt13unordered_mapIS9_SE_St4hashIS9_ESt8equal_toIS9_ESaISt4pairIKS9_SE_EEEEEEE4moveEmPvSU_
_ZSt4moveIRNSt7__cxx1112basic_stringIcSt11char_traitsIcESaIcEEEEONSt16remove_referenceIT_E4typeEOS8_
_ZN11opentracing2v24util6detail14variant_helperIJDnPKcNS1_17recursive_wrapperISt6vectorINS0_5ValueESaIS8_EEEENS6_ISt13unordered_mapINSt7__cxx1112basic_stringIcSt11char_traitsIcESaIcEEES8_St4hashISI_ESt8equal_toISI_ESaISt4pairIKSI_S8_EEEEEEE4moveEmPvSU_
_ZSt4moveIRDnEONSt16remove_referenceIT_E4typeEOS2_
_ZN11opentracing2v24util6detail14variant_helperIJPKcNS1_17recursive_wrapperISt6vectorINS0_5ValueESaIS8_EEEENS6_ISt13unordered_mapINSt7__cxx1112basic_stringIcSt11char_traitsIcESaIcEEES8_St4hashISI_ESt8equal_toISI_ESaISt4pairIKSI_S8_EEEEEEE4moveEmPvSU_
_ZSt4moveIRPKcEONSt16remove_referenceIT_E4typeEOS4_
_ZN11opentracing2v24util6detail14variant_helperIJNS1_17recursive_wrapperISt6vectorINS0_5ValueESaIS6_EEEENS4_ISt13unordered_mapINSt7__cxx1112basic_stringIcSt11char_traitsIcESaIcEEES6_St4hashISG_ESt8equal_toISG_ESaISt4pairIKSG_S6_EEEEEEE4moveEmPvSS_
_ZSt4moveIRN11opentracing2v24util17recursive_wrapperISt6vectorINS1_5ValueESaIS5_EEEEEONSt16remove_referenceIT_E4typeEOSB_
_ZN11opentracing2v24util17recursive_wrapperISt6vectorINS0_5ValueESaIS4_EEEC2EOS7_
_ZN11opentracing2v24util6detail14variant_helperIJNS1_17recursive_wrapperISt13unordered_mapINSt7__cxx1112basic_stringIcSt11char_traitsIcESaIcEEENS0_5ValueESt4hashISB_ESt8equal_toISB_ESaISt4pairIKSB_SC_EEEEEEE4moveEmPvSO_
_ZSt4moveIRSt6vectorIN11opentracing2v25ValueESaIS3_EEEONSt16remove_referenceIT_E4typeEOS8_
_ZN11opentracing2v24util17recursive_wrapperISt6vectorINS0_5ValueESaIS4_EEE3getEv
_ZNSt6vectorIN11opentracing2v25ValueESaIS2_EEC2EOS4_
_ZN11opentracing2v24util17recursive_wrapperISt6vectorINS0_5ValueESaIS4_EEE11get_pointerEv
_ZNSt12_Vector_baseIN11opentracing2v25ValueESaIS2_EEC2EOS4_
_ZNSt12_Vector_baseIN11opentracing2v25ValueESaIS2_EE12_Vector_implC2EOS5_
_ZSt4moveIRNSt12_Vector_baseIN11opentracing2v25ValueESaIS3_EE12_Vector_implEEONSt16remove_referenceIT_E4typeEOS9_
_ZNSt12_Vector_baseIN11opentracing2v25ValueESaIS2_EE17_Vector_impl_dataC2EOS5_
_ZSt4moveIRN11opentracing2v24util17recursive_wrapperISt13unordered_mapINSt7__cxx1112basic_stringIcSt11char_traitsIcESaIcEEENS1_5ValueESt4hashISA_ESt8equal_toISA_ESaISt4pairIKSA_SB_EEEEEEONSt16remove_referenceIT_E4typeEOSO_
_ZN11opentracing2v24util17recursive_wrapperISt13unordered_mapINSt7__cxx1112basic_stringIcSt11char_traitsIcESaIcEEENS0_5ValueESt4hashIS9_ESt8equal_toIS9_ESaISt4pairIKS9_SA_EEEEC2EOSK_
_ZN11opentracing2v24util6detail14variant_helperIJEE4moveEmPvS5_
_ZSt4moveIRSt13unordered_mapINSt7__cxx1112basic_stringIcSt11char_traitsIcESaIcEEEN11opentracing2v25ValueESt4hashIS6_ESt8equal_toIS6_ESaISt4pairIKS6_S9_EEEEONSt16remove_referenceIT_E4typeEOSL_
_ZN11opentracing2v24util17recursive_wrapperISt13unordered_mapINSt7__cxx1112basic_stringIcSt11char_traitsIcESaIcEEENS0_5ValueESt4hashIS9_ESt8equal_toIS9_ESaISt4pairIKS9_SA_EEEE3getEv
_ZNSt13unordered_mapINSt7__cxx1112basic_stringIcSt11char_traitsIcESaIcEEEN11opentracing2v25ValueESt4hashIS5_ESt8equal_toIS5_ESaISt4pairIKS5_S8_EEEC2EOSH_
_ZN11opentracing2v24util17recursive_wrapperISt13unordered_mapINSt7__cxx1112basic_stringIcSt11char_traitsIcESaIcEEENS0_5ValueESt4hashIS9_ESt8equal_toIS9_ESaISt4pairIKS9_SA_EEEE11get_pointerEv
_ZNSt10_HashtableINSt7__cxx1112basic_stringIcSt11char_traitsIcESaIcEEESt4pairIKS5_N11opentracing2v25ValueEESaISB_ENSt8__detail10_Select1stESt8equal_toIS5_ESt4hashIS5_ENSD_18_Mod_range_hashingENSD_20_Default_ranged_hashENSD_20_Prime_rehash_policyENSD_17_Hashtable_traitsILb1ELb0ELb1EEEEC2EOSO_
_ZSt4moveIRSt10_HashtableINSt7__cxx1112basic_stringIcSt11char_traitsIcESaIcEEESt4pairIKS6_N11opentracing2v25ValueEESaISC_ENSt8__detail10_Select1stESt8equal_toIS6_ESt4hashIS6_ENSE_18_Mod_range_hashingENSE_20_Default_ranged_hashENSE_20_Prime_rehash_policyENSE_17_Hashtable_traitsILb1ELb0ELb1EEEEEONSt16remove_referenceIT_E4typeEOSS_
_ZSt4moveIRSaINSt8__detail10_Hash_nodeISt4pairIKNSt7__cxx1112basic_stringIcSt11char_traitsIcESaIcEEEN11opentracing2v25ValueEELb1EEEEEONSt16remove_referenceIT_E4typeEOSI_
_ZNSt10_HashtableINSt7__cxx1112basic_stringIcSt11char_traitsIcESaIcEEESt4pairIKS5_N11opentracing2v25ValueEESaISB_ENSt8__detail10_Select1stESt8equal_toIS5_ESt4hashIS5_ENSD_18_Mod_range_hashingENSD_20_Default_ranged_hashENSD_20_Prime_rehash_policyENSD_17_Hashtable_traitsILb1ELb0ELb1EEEEC2EOSO_OSaINSD_10_Hash_nodeISB_Lb1EEEESt17integral_constantIbLb1EE
_ZNSt8__detail15_Hash_node_baseC2EPS0_
_ZNKSt10_HashtableINSt7__cxx1112basic_stringIcSt11char_traitsIcESaIcEEESt4pairIKS5_N11opentracing2v25ValueEESaISB_ENSt8__detail10_Select1stESt8equal_toIS5_ESt4hashIS5_ENSD_18_Mod_range_hashingENSD_20_Default_ranged_hashENSD_20_Prime_rehash_policyENSD_17_Hashtable_traitsILb1ELb0ELb1EEEE21_M_uses_single_bucketEv
_ZNSt10_HashtableINSt7__cxx1112basic_stringIcSt11char_traitsIcESaIcEEESt4pairIKS5_N11opentracing2v25ValueEESaISB_ENSt8__detail10_Select1stESt8equal_toIS5_ESt4hashIS5_ENSD_18_Mod_range_hashingENSD_20_Default_ranged_hashENSD_20_Prime_rehash_policyENSD_17_Hashtable_traitsILb1ELb0ELb1EEEE8_M_resetEv
_ZNSt8__detail20_Prime_rehash_policy8_M_resetEv
_ZNKSt6vectorIN13jaegertracing3TagESaIS1_EE12_M_check_lenEmPKc
_ZN9__gnu_cxxmiIPN13jaegertracing3TagESt6vectorIS2_SaIS2_EEEENS_17__normal_iteratorIT_T0_E15difference_typeERKSA_SD_
_ZNSt6vectorIN13jaegertracing3TagESaIS1_EE5beginEv
_ZSt34__uninitialized_move_if_noexcept_aIPN13jaegertracing3TagES2_SaIS1_EET0_T_S5_S4_RT1_
_ZNK9__gnu_cxx17__normal_iteratorIPN13jaegertracing3TagESt6vectorIS2_SaIS2_EEE4baseEv
_ZNSt16allocator_traitsISaIN13jaegertracing3TagEEE7destroyIS1_EEvRS2_PT_
_ZNKSt6vectorIN13jaegertracing3TagESaIS1_EE8max_sizeEv
_ZN9__gnu_cxx17__normal_iteratorIPN13jaegertracing3TagESt6vectorIS2_SaIS2_EEEC2ERKS3_
_ZSt32__make_move_if_noexcept_iteratorIN13jaegertracing3TagEPKS1_ET0_PT_
_ZN9__gnu_cxx13new_allocatorIN13jaegertracing3TagEE7destroyIS2_EEvPT_
gethostname
__errno_location
_ZNSt3_V215system_categoryEv
_ZNSt12system_errorC2EiRKNSt3_V214error_categoryEPKc
_ZNSt12system_errorD1Ev
_ZNSt12system_errorC2ESt10error_codePKc
_ZStplIcSt11char_traitsIcESaIcEENSt7__cxx1112basic_stringIT_T0_T1_EEPKS5_OS8_
_ZNKSt10error_code7messageB5cxx11Ev
_ZNSt7__cxx1112basic_stringIcSt11char_traitsIcESaIcEE6insertEmPKc
_ZSt7forwardINSt7__cxx1112basic_stringIcSt11char_traitsIcESaIcEEEEOT_RNSt16remove_referenceIS6_E4typeE
_ZN11opentracing2v25ValueC2EONSt7__cxx1112basic_stringIcSt11char_traitsIcESaIcEEE
_ZN11opentracing2v24util7variantIJbdlmNSt7__cxx1112basic_stringIcSt11char_traitsIcESaIcEEEDnPKcNS1_17recursive_wrapperISt6vectorINS0_5ValueESaISD_EEEENSB_ISt13unordered_mapIS8_SD_St4hashIS8_ESt8equal_toIS8_ESaISt4pairIKS8_SD_EEEEEEEC2IS8_NS1_6detail12value_traitsIS8_JbdlmS8_DnSA_SG_SR_EEEvEEOT_
_ZNK13jaegertracing3net9IPAddress6familyEv
inet_ntop
_ZNSt5arrayIcLm46EEixEm
_ZNKSt5arrayIcLm46EE4sizeEv
_ZNSt14__array_traitsIcLm46EE6_S_refERA46_Kcm
_ZNSt13random_device7_M_initERKNSt7__cxx1112basic_stringIcSt11char_traitsIcESaIcEEE
_ZNSt8__detail5__modImLm0ELm1ELm0EEET_S1_
_ZNSt8__detail5__modImLm312ELm1ELm0EEET_S1_
_ZNSt8__detail4_ModImLm0ELm1ELm0ELb1ELb0EE6__calcEm
_ZNSt8__detail4_ModImLm312ELm1ELm0ELb1ELb1EE6__calcEm
_ZNSt13random_device9_M_getvalEv
_ZNSt13random_device7_M_finiEv
_ZNSt10unique_ptrIN13jaegertracing7baggage18RestrictionManagerESt14default_deleteIS2_EE11get_deleterEv
_ZNKSt14default_deleteIN13jaegertracing7baggage18RestrictionManagerEEclEPS2_
_ZSt4moveIRPN13jaegertracing7baggage18RestrictionManagerEEONSt16remove_referenceIT_E4typeEOS6_
_ZNSt15__uniq_ptr_implIN13jaegertracing7baggage18RestrictionManagerESt14default_deleteIS2_EE10_M_deleterEv
_ZSt3getILm1EJPN13jaegertracing7baggage18RestrictionManagerESt14default_deleteIS2_EEERNSt13tuple_elementIXT_ESt5tupleIJDpT0_EEE4typeERSA_
_ZSt12__get_helperILm1ESt14default_deleteIN13jaegertracing7baggage18RestrictionManagerEEJEERT0_RSt11_Tuple_implIXT_EJS5_DpT1_EE
_ZNSt11_Tuple_implILm1EJSt14default_deleteIN13jaegertracing7baggage18RestrictionManagerEEEE7_M_headERS5_
_ZNSt10_Head_baseILm1ESt14default_deleteIN13jaegertracing7baggage18RestrictionManagerEELb1EE7_M_headERS5_
_ZNSt8weak_ptrIN13jaegertracing6TracerEED2Ev
_ZNSt10__weak_ptrIN13jaegertracing6TracerELN9__gnu_cxx12_Lock_policyE2EED2Ev
_ZNSt12__weak_countILN9__gnu_cxx12_Lock_policyE2EED2Ev
_ZNSt16_Sp_counted_baseILN9__gnu_cxx12_Lock_policyE2EE15_M_weak_releaseEv
_ZNSt12__shared_ptrIN13jaegertracing6TracerELN9__gnu_cxx12_Lock_policyE2EEC2IS1_vEEPT_
_ZNSt14__shared_countILN9__gnu_cxx12_Lock_policyE2EEC2IPN13jaegertracing6TracerEEET_St17integral_constantIbLb0EE
_ZNSt12__shared_ptrIN13jaegertracing6TracerELN9__gnu_cxx12_Lock_policyE2EE31_M_enable_shared_from_this_withIS1_S1_EENSt9enable_ifIXsr15__has_esft_baseIT0_EE5valueEvE4typeEPT_
_ZNSt14__shared_countILN9__gnu_cxx12_Lock_policyE2EEC2IPN13jaegertracing6TracerEEET_
_ZNSt15_Sp_counted_ptrIPN13jaegertracing6TracerELN9__gnu_cxx12_Lock_policyE2EEC2ES2_
_ZNSt15_Sp_counted_ptrIPN13jaegertracing6TracerELN9__gnu_cxx12_Lock_policyE2EED2Ev
_ZNSt15_Sp_counted_ptrIPN13jaegertracing6TracerELN9__gnu_cxx12_Lock_policyE2EED0Ev
_ZNSt15_Sp_counted_ptrIPN13jaegertracing6TracerELN9__gnu_cxx12_Lock_policyE2EE10_M_disposeEv
_ZNSt15_Sp_counted_ptrIPN13jaegertracing6TracerELN9__gnu_cxx12_Lock_policyE2EE10_M_destroyEv
_ZNSt15_Sp_counted_ptrIPN13jaegertracing6TracerELN9__gnu_cxx12_Lock_policyE2EE14_M_get_deleterERKSt9type_info
_ZSt30__enable_shared_from_this_baseRKSt14__shared_countILN9__gnu_cxx12_Lock_policyE2EEPKSt23enable_shared_from_thisIN13jaegertracing6TracerEE
_ZNKSt23enable_shared_from_thisIN13jaegertracing6TracerEE14_M_weak_assignIS1_EEvPT_RKSt14__shared_countILN9__gnu_cxx12_Lock_policyE2EE
_ZNSt10__weak_ptrIN13jaegertracing6TracerELN9__gnu_cxx12_Lock_policyE2EE9_M_assignEPS1_RKSt14__shared_countILS3_2EE
_ZNKSt10__weak_ptrIN13jaegertracing6TracerELN9__gnu_cxx12_Lock_policyE2EE9use_countEv
_ZNSt12__weak_countILN9__gnu_cxx12_Lock_policyE2EEaSERKSt14__shared_countILS1_2EE
_ZNKSt12__weak_countILN9__gnu_cxx12_Lock_policyE2EE16_M_get_use_countEv
_ZNKSt16_Sp_counted_baseILN9__gnu_cxx12_Lock_policyE2EE16_M_get_use_countEv
_ZNSt16_Sp_counted_baseILN9__gnu_cxx12_Lock_policyE2EE15_M_weak_add_refEv
_ZSt4moveIRSt10shared_ptrIN13jaegertracing6TracerEEEONSt16remove_referenceIT_E4typeEOS6_
_ZNSt12__shared_ptrIN11opentracing2v26TracerELN9__gnu_cxx12_Lock_policyE2EEC2IN13jaegertracing6TracerEvEEOS_IT_LS4_2EE
_ZNSt12__shared_ptrIN13jaegertracing6TracerELN9__gnu_cxx12_Lock_policyE2EED2Ev
_ZNSt12__shared_ptrIN13jaegertracing9reporters8ReporterELN9__gnu_cxx12_Lock_policyE2EED2Ev
_ZNSt12__shared_ptrIN13jaegertracing8samplers7SamplerELN9__gnu_cxx12_Lock_policyE2EED2Ev
_ZNSt12__shared_ptrIN13jaegertracing7metrics7MetricsELN9__gnu_cxx12_Lock_policyE2EED2Ev
_ZNSt12__shared_ptrIN13jaegertracing7logging6LoggerELN9__gnu_cxx12_Lock_policyE2EED2Ev
_ZNSt12__shared_ptrIN11opentracing2v26TracerELN9__gnu_cxx12_Lock_policyE2EED2Ev
_ZN14social_network17UniqueIdServiceIfD2Ev
_ZN14social_network17UniqueIdServiceIfD0Ev
_ZN11opentracing2v213TextMapReaderC2Ev
_ZN14social_network13TextMapReaderD0Ev
_ZNK11opentracing2v213TextMapReader9LookupKeyENS0_11string_viewE
_ZNK14social_network13TextMapReader10ForeachKeyESt8functionIFN11opentracing2v28expectedIvSt10error_codeEENS3_11string_viewES7_EE
_ZN11opentracing2v213TextMapReaderD2Ev
_ZN11opentracing2v213TextMapReaderD0Ev
_ZN11opentracing2v215make_unexpectedIRKSt10error_codeEENS0_15unexpected_typeINSt5decayIT_E4typeEEEOS7_
_ZN11opentracing2v28expectedINS0_11string_viewESt10error_codeEC2ILb1ELi0EEEONS0_15unexpected_typeIS3_EE
_ZN11opentracing2v215expected_detail9storage_tINS0_11string_viewESt10error_codeEC2Ev
_ZN11opentracing2v215expected_detail9storage_tINS0_11string_viewESt10error_codeE15construct_errorEOS4_
_ZN11opentracing2v215unexpected_typeISt10error_codeE5valueEv
_ZN11opentracing2v215expected_detail9storage_tINS0_11string_viewESt10error_codeED2Ev
_ZNKSt3mapINSt7__cxx1112basic_stringIcSt11char_traitsIcESaIcEEES5_St4lessIS5_ESaISt4pairIKS5_S5_EEE5beginEv
_ZNKSt3mapINSt7__cxx1112basic_stringIcSt11char_traitsIcESaIcEEES5_St4lessIS5_ESaISt4pairIKS5_S5_EEE3endEv
_ZStneRKSt23_Rb_tree_const_iteratorISt4pairIKNSt7__cxx1112basic_stringIcSt11char_traitsIcESaIcEEES6_EESB_
_ZNKSt23_Rb_tree_const_iteratorISt4pairIKNSt7__cxx1112basic_stringIcSt11char_traitsIcESaIcEEES6_EEdeEv
_ZNKSt8functionIFN11opentracing2v28expectedIvSt10error_codeEENS1_11string_viewES5_EEclES5_S5_
_ZNSt23_Rb_tree_const_iteratorISt4pairIKNSt7__cxx1112basic_stringIcSt11char_traitsIcESaIcEEES6_EEppEv
_ZN11opentracing2v28expectedIvSt10error_codeEC2Ev
_ZNKSt8_Rb_treeINSt7__cxx1112basic_stringIcSt11char_traitsIcESaIcEEESt4pairIKS5_S5_ESt10_Select1stIS8_ESt4lessIS5_ESaIS8_EE5beginEv
_ZNSt23_Rb_tree_const_iteratorISt4pairIKNSt7__cxx1112basic_stringIcSt11char_traitsIcESaIcEEES6_EEC2EPKSt18_Rb_tree_node_base
_ZNKSt8_Rb_treeINSt7__cxx1112basic_stringIcSt11char_traitsIcESaIcEEESt4pairIKS5_S5_ESt10_Select1stIS8_ESt4lessIS5_ESaIS8_EE3endEv
_ZNKSt13_Rb_tree_nodeISt4pairIKNSt7__cxx1112basic_stringIcSt11char_traitsIcESaIcEEES6_EE9_M_valptrEv
_ZNK9__gnu_cxx16__aligned_membufISt4pairIKNSt7__cxx1112basic_stringIcSt11char_traitsIcESaIcEEES7_EE6_M_ptrEv
_ZNK9__gnu_cxx16__aligned_membufISt4pairIKNSt7__cxx1112basic_stringIcSt11char_traitsIcESaIcEEES7_EE7_M_addrEv
_ZNSt8_Rb_treeINSt7__cxx1112basic_stringIcSt11char_traitsIcESaIcEEESt4pairIKS5_S5_ESt10_Select1stIS8_ESt4lessIS5_ESaIS8_EEC2Ev
_ZNSt8_Rb_treeINSt7__cxx1112basic_stringIcSt11char_traitsIcESaIcEEESt4pairIKS5_S5_ESt10_Select1stIS8_ESt4lessIS5_ESaIS8_EE13_Rb_tree_implISC_Lb1EEC2Ev
_ZNSaISt13_Rb_tree_nodeISt4pairIKNSt7__cxx1112basic_stringIcSt11char_traitsIcESaIcEEES6_EEEC2Ev
_ZNSt20_Rb_tree_key_compareISt4lessINSt7__cxx1112basic_stringIcSt11char_traitsIcESaIcEEEEEC2Ev
_ZN9__gnu_cxx13new_allocatorISt13_Rb_tree_nodeISt4pairIKNSt7__cxx1112basic_stringIcSt11char_traitsIcESaIcEEES8_EEEC2Ev
_ZN11opentracing2v213TextMapWriterC2Ev
_ZN14social_network13TextMapWriterD0Ev
_ZNK14social_network13TextMapWriter3SetEN11opentracing2v211string_viewES3_
_ZN11opentracing2v213TextMapWriterD2Ev
_ZN11opentracing2v213TextMapWriterD0Ev
_ZNSt3mapINSt7__cxx1112basic_stringIcSt11char_traitsIcESaIcEEES5_St4lessIS5_ESaISt4pairIKS5_S5_EEEixEOS5_
_ZNSt3mapINSt7__cxx1112basic_stringIcSt11char_traitsIcESaIcEEES5_St4lessIS5_ESaISt4pairIKS5_S5_EEE11lower_boundERS9_
_ZSteqRKSt17_Rb_tree_iteratorISt4pairIKNSt7__cxx1112basic_stringIcSt11char_traitsIcESaIcEEES6_EESB_
_ZNSt3mapINSt7__cxx1112basic_stringIcSt11char_traitsIcESaIcEEES5_St4lessIS5_ESaISt4pairIKS5_S5_EEE3endEv
_ZNKSt3mapINSt7__cxx1112basic_stringIcSt11char_traitsIcESaIcEEES5_St4lessIS5_ESaISt4pairIKS5_S5_EEE8key_compEv
_ZNKSt4lessINSt7__cxx1112basic_stringIcSt11char_traitsIcESaIcEEEEclERKS5_S8_
_ZNKSt17_Rb_tree_iteratorISt4pairIKNSt7__cxx1112basic_stringIcSt11char_traitsIcESaIcEEES6_EEdeEv
_ZNSt8_Rb_treeINSt7__cxx1112basic_stringIcSt11char_traitsIcESaIcEEESt4pairIKS5_S5_ESt10_Select1stIS8_ESt4lessIS5_ESaIS8_EE22_M_emplace_hint_uniqueIJRKSt21piecewise_construct_tSt5tupleIJOS5_EESJ_IJEEEEESt17_Rb_tree_iteratorIS8_ESt23_Rb_tree_const_iteratorIS8_EDpOT_
_ZNSt23_Rb_tree_const_iteratorISt4pairIKNSt7__cxx1112basic_stringIcSt11char_traitsIcESaIcEEES6_EEC2ERKSt17_Rb_tree_iteratorIS8_E
_ZSt16forward_as_tupleIJNSt7__cxx1112basic_stringIcSt11char_traitsIcESaIcEEEEESt5tupleIJDpOT_EES9_
_ZNSt8_Rb_treeINSt7__cxx1112basic_stringIcSt11char_traitsIcESaIcEEESt4pairIKS5_S5_ESt10_Select1stIS8_ESt4lessIS5_ESaIS8_EE11lower_boundERS7_
_ZNSt8_Rb_treeINSt7__cxx1112basic_stringIcSt11char_traitsIcESaIcEEESt4pairIKS5_S5_ESt10_Select1stIS8_ESt4lessIS5_ESaIS8_EE14_M_lower_boundEPSt13_Rb_tree_nodeIS8_EPSt18_Rb_tree_node_baseRS7_
_ZNSt8_Rb_treeINSt7__cxx1112basic_stringIcSt11char_traitsIcESaIcEEESt4pairIKS5_S5_ESt10_Select1stIS8_ESt4lessIS5_ESaIS8_EE8_M_beginEv
_ZNSt8_Rb_treeINSt7__cxx1112basic_stringIcSt11char_traitsIcESaIcEEESt4pairIKS5_S5_ESt10_Select1stIS8_ESt4lessIS5_ESaIS8_EE6_M_endEv
_ZNSt8_Rb_treeINSt7__cxx1112basic_stringIcSt11char_traitsIcESaIcEEESt4pairIKS5_S5_ESt10_Select1stIS8_ESt4lessIS5_ESaIS8_EE6_S_keyEPKSt13_Rb_tree_nodeIS8_E
_ZNSt8_Rb_treeINSt7__cxx1112basic_stringIcSt11char_traitsIcESaIcEEESt4pairIKS5_S5_ESt10_Select1stIS8_ESt4lessIS5_ESaIS8_EE7_S_leftEPSt18_Rb_tree_node_base
_ZNSt8_Rb_treeINSt7__cxx1112basic_stringIcSt11char_traitsIcESaIcEEESt4pairIKS5_S5_ESt10_Select1stIS8_ESt4lessIS5_ESaIS8_EE8_S_rightEPSt18_Rb_tree_node_base
_ZNSt17_Rb_tree_iteratorISt4pairIKNSt7__cxx1112basic_stringIcSt11char_traitsIcESaIcEEES6_EEC2EPSt18_Rb_tree_node_base
_ZNKSt10_Select1stISt4pairIKNSt7__cxx1112basic_stringIcSt11char_traitsIcESaIcEEES6_EEclERKS8_
_ZNSt8_Rb_treeINSt7__cxx1112basic_stringIcSt11char_traitsIcESaIcEEESt4pairIKS5_S5_ESt10_Select1stIS8_ESt4lessIS5_ESaIS8_EE3endEv
_ZNKSt8_Rb_treeINSt7__cxx1112basic_stringIcSt11char_traitsIcESaIcEEESt4pairIKS5_S5_ESt10_Select1stIS8_ESt4lessIS5_ESaIS8_EE8key_compEv
_ZStltIcSt11char_traitsIcESaIcEEbRKNSt7__cxx1112basic_stringIT_T0_T1_EESA_
_ZNKSt7__cxx1112basic_stringIcSt11char_traitsIcESaIcEE7compareERKS4_
_ZNSt13_Rb_tree_nodeISt4pairIKNSt7__cxx1112basic_stringIcSt11char_traitsIcESaIcEEES6_EE9_M_valptrEv
_ZN9__gnu_cxx16__aligned_membufISt4pairIKNSt7__cxx1112basic_stringIcSt11char_traitsIcESaIcEEES7_EE6_M_ptrEv
_ZN9__gnu_cxx16__aligned_membufISt4pairIKNSt7__cxx1112basic_stringIcSt11char_traitsIcESaIcEEES7_EE7_M_addrEv
_ZNSt8_Rb_treeINSt7__cxx1112basic_stringIcSt11char_traitsIcESaIcEEESt4pairIKS5_S5_ESt10_Select1stIS8_ESt4lessIS5_ESaIS8_EE14_M_create_nodeIJRKSt21piecewise_construct_tSt5tupleIJOS5_EESJ_IJEEEEEPSt13_Rb_tree_nodeIS8_EDpOT_
_ZSt7forwardISt5tupleIJONSt7__cxx1112basic_stringIcSt11char_traitsIcESaIcEEEEEEOT_RNSt16remove_referenceIS9_E4typeE
_ZNSt8_Rb_treeINSt7__cxx1112basic_stringIcSt11char_traitsIcESaIcEEESt4pairIKS5_S5_ESt10_Select1stIS8_ESt4lessIS5_ESaIS8_EE29_M_get_insert_hint_unique_posESt23_Rb_tree_const_iteratorIS8_ERS7_
_ZNSt8_Rb_treeINSt7__cxx1112basic_stringIcSt11char_traitsIcESaIcEEESt4pairIKS5_S5_ESt10_Select1stIS8_ESt4lessIS5_ESaIS8_EE14_M_insert_nodeEPSt18_Rb_tree_node_baseSG_PSt13_Rb_tree_nodeIS8_E
_ZNSt8_Rb_treeINSt7__cxx1112basic_stringIcSt11char_traitsIcESaIcEEESt4pairIKS5_S5_ESt10_Select1stIS8_ESt4lessIS5_ESaIS8_EE12_M_drop_nodeEPSt13_Rb_tree_nodeIS8_E
_ZNSt8_Rb_treeINSt7__cxx1112basic_stringIcSt11char_traitsIcESaIcEEESt4pairIKS5_S5_ESt10_Select1stIS8_ESt4lessIS5_ESaIS8_EE11_M_get_nodeEv
_ZNSt8_Rb_treeINSt7__cxx1112basic_stringIcSt11char_traitsIcESaIcEEESt4pairIKS5_S5_ESt10_Select1stIS8_ESt4lessIS5_ESaIS8_EE17_M_construct_nodeIJRKSt21piecewise_construct_tSt5tupleIJOS5_EESJ_IJEEEEEvPSt13_Rb_tree_nodeIS8_EDpOT_
_ZNSt16allocator_traitsISaISt13_Rb_tree_nodeISt4pairIKNSt7__cxx1112basic_stringIcSt11char_traitsIcESaIcEEES7_EEEE8allocateERSB_m
_ZNSt8_Rb_treeINSt7__cxx1112basic_stringIcSt11char_traitsIcESaIcEEESt4pairIKS5_S5_ESt10_Select1stIS8_ESt4lessIS5_ESaIS8_EE21_M_get_Node_allocatorEv
_ZN9__gnu_cxx13new_allocatorISt13_Rb_tree_nodeISt4pairIKNSt7__cxx1112basic_stringIcSt11char_traitsIcESaIcEEES8_EEE8allocateEmPKv
_ZNK9__gnu_cxx13new_allocatorISt13_Rb_tree_nodeISt4pairIKNSt7__cxx1112basic_stringIcSt11char_traitsIcESaIcEEES8_EEE8max_sizeEv
_ZNSt16allocator_traitsISaISt13_Rb_tree_nodeISt4pairIKNSt7__cxx1112basic_stringIcSt11char_traitsIcESaIcEEES7_EEEE9constructIS9_JRKSt21piecewise_construct_tSt5tupleIJOS7_EESH_IJEEEEEvRSB_PT_DpOT0_
_ZNSt8_Rb_treeINSt7__cxx1112basic_stringIcSt11char_traitsIcESaIcEEESt4pairIKS5_S5_ESt10_Select1stIS8_ESt4lessIS5_ESaIS8_EE11_M_put_nodeEPSt13_Rb_tree_nodeIS8_E
_ZN9__gnu_cxx13new_allocatorISt13_Rb_tree_nodeISt4pairIKNSt7__cxx1112basic_stringIcSt11char_traitsIcESaIcEEES8_EEE9constructISA_JRKSt21piecewise_construct_tSt5tupleIJOS8_EESH_IJEEEEEvPT_DpOT0_
_ZNSt5tupleIJONSt7__cxx1112basic_stringIcSt11char_traitsIcESaIcEEEEEC2EOS7_
_ZNSt4pairIKNSt7__cxx1112basic_stringIcSt11char_traitsIcESaIcEEES5_EC2IJOS5_EJEEESt21piecewise_construct_tSt5tupleIJDpT_EESB_IJDpT0_EE
_ZNSt11_Tuple_implILm0EJONSt7__cxx1112basic_stringIcSt11char_traitsIcESaIcEEEEEC2EOS7_
_ZSt7forwardIONSt7__cxx1112basic_stringIcSt11char_traitsIcESaIcEEEEOT_RNSt16remove_referenceIS7_E4typeE
_ZNSt11_Tuple_implILm0EJONSt7__cxx1112basic_stringIcSt11char_traitsIcESaIcEEEEE7_M_headERS7_
_ZNSt10_Head_baseILm0EONSt7__cxx1112basic_stringIcSt11char_traitsIcESaIcEEELb0EEC2IS5_EEOT_
_ZNSt10_Head_baseILm0EONSt7__cxx1112basic_stringIcSt11char_traitsIcESaIcEEELb0EE7_M_headERS7_
_ZNSt4pairIKNSt7__cxx1112basic_stringIcSt11char_traitsIcESaIcEEES5_EC2IJOS5_EJLm0EEJEJEEERSt5tupleIJDpT_EERSA_IJDpT1_EESt12_Index_tupleIJXspT0_EEESJ_IJXspT2_EEE
_ZSt3getILm0EJONSt7__cxx1112basic_stringIcSt11char_traitsIcESaIcEEEEERNSt13tuple_elementIXT_ESt5tupleIJDpT0_EEE4typeERSB_
_ZSt12__get_helperILm0EONSt7__cxx1112basic_stringIcSt11char_traitsIcESaIcEEEJEERT0_RSt11_Tuple_implIXT_EJS7_DpT1_EE
_ZNSt16allocator_traitsISaISt13_Rb_tree_nodeISt4pairIKNSt7__cxx1112basic_stringIcSt11char_traitsIcESaIcEEES7_EEEE10deallocateERSB_PSA_m
_ZN9__gnu_cxx13new_allocatorISt13_Rb_tree_nodeISt4pairIKNSt7__cxx1112basic_stringIcSt11char_traitsIcESaIcEEES8_EEE10deallocateEPSB_m
_ZNKSt23_Rb_tree_const_iteratorISt4pairIKNSt7__cxx1112basic_stringIcSt11char_traitsIcESaIcEEES6_EE13_M_const_castEv
_ZNKSt8_Rb_treeINSt7__cxx1112basic_stringIcSt11char_traitsIcESaIcEEESt4pairIKS5_S5_ESt10_Select1stIS8_ESt4lessIS5_ESaIS8_EE4sizeEv
_ZNSt8_Rb_treeINSt7__cxx1112basic_stringIcSt11char_traitsIcESaIcEEESt4pairIKS5_S5_ESt10_Select1stIS8_ESt4lessIS5_ESaIS8_EE6_S_keyEPKSt18_Rb_tree_node_base
_ZNSt8_Rb_treeINSt7__cxx1112basic_stringIcSt11char_traitsIcESaIcEEESt4pairIKS5_S5_ESt10_Select1stIS8_ESt4lessIS5_ESaIS8_EE12_M_rightmostEv
_ZNSt4pairIPSt18_Rb_tree_node_baseS1_EC2IRS1_Lb1EEERKS1_OT_
_ZNSt8_Rb_treeINSt7__cxx1112basic_stringIcSt11char_traitsIcESaIcEEESt4pairIKS5_S5_ESt10_Select1stIS8_ESt4lessIS5_ESaIS8_EE24_M_get_insert_unique_posERS7_
_ZNSt8_Rb_treeINSt7__cxx1112basic_stringIcSt11char_traitsIcESaIcEEESt4pairIKS5_S5_ESt10_Select1stIS8_ESt4lessIS5_ESaIS8_EE11_M_leftmostEv
_ZNSt4pairIPSt18_Rb_tree_node_baseS1_EC2IRS1_S4_Lb1EEEOT_OT0_
_ZNSt17_Rb_tree_iteratorISt4pairIKNSt7__cxx1112basic_stringIcSt11char_traitsIcESaIcEEES6_EEmmEv
_ZNSt17_Rb_tree_iteratorISt4pairIKNSt7__cxx1112basic_stringIcSt11char_traitsIcESaIcEEES6_EEppEv
_ZNSt8_Rb_treeINSt7__cxx1112basic_stringIcSt11char_traitsIcESaIcEEESt4pairIKS5_S5_ESt10_Select1stIS8_ESt4lessIS5_ESaIS8_EE5beginEv
_ZNSt4pairIPSt18_Rb_tree_node_baseS1_EC2IRPSt13_Rb_tree_nodeIS_IKNSt7__cxx1112basic_stringIcSt11char_traitsIcESaIcEEESA_EERS1_Lb1EEEOT_OT0_
_ZSt7forwardIRPSt13_Rb_tree_nodeISt4pairIKNSt7__cxx1112basic_stringIcSt11char_traitsIcESaIcEEES7_EEEOT_RNSt16remove_referenceISD_E4typeE
_ZSt18_Rb_tree_incrementPSt18_Rb_tree_node_base
_ZNSt8_Rb_treeINSt7__cxx1112basic_stringIcSt11char_traitsIcESaIcEEESt4pairIKS5_S5_ESt10_Select1stIS8_ESt4lessIS5_ESaIS8_EE15_M_destroy_nodeEPSt13_Rb_tree_nodeIS8_E
_ZNSt16allocator_traitsISaISt13_Rb_tree_nodeISt4pairIKNSt7__cxx1112basic_stringIcSt11char_traitsIcESaIcEEES7_EEEE7destroyIS9_EEvRSB_PT_
_ZN9__gnu_cxx13new_allocatorISt13_Rb_tree_nodeISt4pairIKNSt7__cxx1112basic_stringIcSt11char_traitsIcESaIcEEES8_EEE7destroyISA_EEvPT_
_ZNSt5tupleIJONSt7__cxx1112basic_stringIcSt11char_traitsIcESaIcEEEEEC2IJS5_ELb1EEEDpOT_
_ZNSt11_Tuple_implILm0EJONSt7__cxx1112basic_stringIcSt11char_traitsIcESaIcEEEEEC2IS5_EEOT_
_ZN11opentracing2v216StartSpanOptionsC2Ev
_ZNKSt16initializer_listIN11opentracing2v214option_wrapperINS1_15StartSpanOptionEEEE5beginEv
_ZNKSt16initializer_listIN11opentracing2v214option_wrapperINS1_15StartSpanOptionEEEE3endEv
_ZNK11opentracing2v214option_wrapperINS0_15StartSpanOptionEE3getEv
_ZN11opentracing2v216StartSpanOptionsD2Ev
_ZNSt6chrono10time_pointINS_3_V212system_clockENS_8durationIlSt5ratioILl1ELl1000000000EEEEEC2Ev
_ZNSt6chrono10time_pointINS_3_V212steady_clockENS_8durationIlSt5ratioILl1ELl1000000000EEEEEC2Ev
_ZNSt6vectorISt4pairIN11opentracing2v217SpanReferenceTypeEPKNS2_11SpanContextEESaIS7_EEC2Ev
_ZNSt6vectorISt4pairINSt7__cxx1112basic_stringIcSt11char_traitsIcESaIcEEEN11opentracing2v25ValueEESaISA_EEC2Ev
_ZNSt6chrono8durationIlSt5ratioILl1ELl1000000000EEE4zeroEv
_ZNSt6chrono15duration_valuesIlE4zeroEv
_ZNSt12_Vector_baseISt4pairIN11opentracing2v217SpanReferenceTypeEPKNS2_11SpanContextEESaIS7_EEC2Ev
_ZNSt12_Vector_baseISt4pairIN11opentracing2v217SpanReferenceTypeEPKNS2_11SpanContextEESaIS7_EE12_Vector_implC2Ev
_ZNSaISt4pairIN11opentracing2v217SpanReferenceTypeEPKNS1_11SpanContextEEEC2Ev
_ZNSt12_Vector_baseISt4pairIN11opentracing2v217SpanReferenceTypeEPKNS2_11SpanContextEESaIS7_EE17_Vector_impl_dataC2Ev
_ZN9__gnu_cxx13new_allocatorISt4pairIN11opentracing2v217SpanReferenceTypeEPKNS3_11SpanContextEEEC2Ev
_ZNSt12_Vector_baseISt4pairINSt7__cxx1112basic_stringIcSt11char_traitsIcESaIcEEEN11opentracing2v25ValueEESaISA_EEC2Ev
_ZNSt12_Vector_baseISt4pairINSt7__cxx1112basic_stringIcSt11char_traitsIcESaIcEEEN11opentracing2v25ValueEESaISA_EE12_Vector_implC2Ev
_ZNSaISt4pairINSt7__cxx1112basic_stringIcSt11char_traitsIcESaIcEEEN11opentracing2v25ValueEEEC2Ev
_ZNSt12_Vector_baseISt4pairINSt7__cxx1112basic_stringIcSt11char_traitsIcESaIcEEEN11opentracing2v25ValueEESaISA_EE17_Vector_impl_dataC2Ev
_ZN9__gnu_cxx13new_allocatorISt4pairINSt7__cxx1112basic_stringIcSt11char_traitsIcESaIcEEEN11opentracing2v25ValueEEEC2Ev
_ZNKSt16initializer_listIN11opentracing2v214option_wrapperINS1_15StartSpanOptionEEEE4sizeEv
_ZNSt6vectorISt4pairINSt7__cxx1112basic_stringIcSt11char_traitsIcESaIcEEEN11opentracing2v25ValueEESaISA_EED2Ev
_ZNSt6vectorISt4pairIN11opentracing2v217SpanReferenceTypeEPKNS2_11SpanContextEESaIS7_EED2Ev
_ZSt8_DestroyIPSt4pairINSt7__cxx1112basic_stringIcSt11char_traitsIcESaIcEEEN11opentracing2v25ValueEESA_EvT_SC_RSaIT0_E
_ZNSt12_Vector_baseISt4pairINSt7__cxx1112basic_stringIcSt11char_traitsIcESaIcEEEN11opentracing2v25ValueEESaISA_EE19_M_get_Tp_allocatorEv
_ZNSt12_Vector_baseISt4pairINSt7__cxx1112basic_stringIcSt11char_traitsIcESaIcEEEN11opentracing2v25ValueEESaISA_EED2Ev
_ZSt8_DestroyIPSt4pairINSt7__cxx1112basic_stringIcSt11char_traitsIcESaIcEEEN11opentracing2v25ValueEEEvT_SC_
_ZNSt12_Destroy_auxILb0EE9__destroyIPSt4pairINSt7__cxx1112basic_stringIcSt11char_traitsIcESaIcEEEN11opentracing2v25ValueEEEEvT_SE_
_ZSt8_DestroyISt4pairINSt7__cxx1112basic_stringIcSt11char_traitsIcESaIcEEEN11opentracing2v25ValueEEEvPT_
_ZSt11__addressofISt4pairINSt7__cxx1112basic_stringIcSt11char_traitsIcESaIcEEEN11opentracing2v25ValueEEEPT_RSB_
_ZNSt4pairINSt7__cxx1112basic_stringIcSt11char_traitsIcESaIcEEEN11opentracing2v25ValueEED2Ev
_ZNSt12_Vector_baseISt4pairINSt7__cxx1112basic_stringIcSt11char_traitsIcESaIcEEEN11opentracing2v25ValueEESaISA_EE13_M_deallocateEPSA_m
_ZNSt12_Vector_baseISt4pairINSt7__cxx1112basic_stringIcSt11char_traitsIcESaIcEEEN11opentracing2v25ValueEESaISA_EE12_Vector_implD2Ev
_ZNSt16allocator_traitsISaISt4pairINSt7__cxx1112basic_stringIcSt11char_traitsIcESaIcEEEN11opentracing2v25ValueEEEE10deallocateERSB_PSA_m
_ZN9__gnu_cxx13new_allocatorISt4pairINSt7__cxx1112basic_stringIcSt11char_traitsIcESaIcEEEN11opentracing2v25ValueEEE10deallocateEPSB_m
_ZNSaISt4pairINSt7__cxx1112basic_stringIcSt11char_traitsIcESaIcEEEN11opentracing2v25ValueEEED2Ev
_ZN9__gnu_cxx13new_allocatorISt4pairINSt7__cxx1112basic_stringIcSt11char_traitsIcESaIcEEEN11opentracing2v25ValueEEED2Ev
_ZSt8_DestroyIPSt4pairIN11opentracing2v217SpanReferenceTypeEPKNS2_11SpanContextEES7_EvT_S9_RSaIT0_E
_ZNSt12_Vector_baseISt4pairIN11opentracing2v217SpanReferenceTypeEPKNS2_11SpanContextEESaIS7_EE19_M_get_Tp_allocatorEv
_ZNSt12_Vector_baseISt4pairIN11opentracing2v217SpanReferenceTypeEPKNS2_11SpanContextEESaIS7_EED2Ev
_ZSt8_DestroyIPSt4pairIN11opentracing2v217SpanReferenceTypeEPKNS2_11SpanContextEEEvT_S9_
_ZNSt12_Destroy_auxILb1EE9__destroyIPSt4pairIN11opentracing2v217SpanReferenceTypeEPKNS4_11SpanContextEEEEvT_SB_
_ZNSt12_Vector_baseISt4pairIN11opentracing2v217SpanReferenceTypeEPKNS2_11SpanContextEESaIS7_EE13_M_deallocateEPS7_m
_ZNSt12_Vector_baseISt4pairIN11opentracing2v217SpanReferenceTypeEPKNS2_11SpanContextEESaIS7_EE12_Vector_implD2Ev
_ZNSt16allocator_traitsISaISt4pairIN11opentracing2v217SpanReferenceTypeEPKNS2_11SpanContextEEEE10deallocateERS8_PS7_m
_ZN9__gnu_cxx13new_allocatorISt4pairIN11opentracing2v217SpanReferenceTypeEPKNS3_11SpanContextEEE10deallocateEPS8_m
_ZNSaISt4pairIN11opentracing2v217SpanReferenceTypeEPKNS1_11SpanContextEEED2Ev
_ZN9__gnu_cxx13new_allocatorISt4pairIN11opentracing2v217SpanReferenceTypeEPKNS3_11SpanContextEEED2Ev
_ZN11opentracing2v213SpanReferenceC2ENS0_17SpanReferenceTypeEPKNS0_11SpanContextE
_ZN11opentracing2v215StartSpanOptionC2Ev
_ZN11opentracing2v213SpanReferenceD0Ev
_ZNK11opentracing2v213SpanReference5ApplyERNS0_16StartSpanOptionsE
_ZN11opentracing2v215StartSpanOptionD2Ev
_ZN11opentracing2v215StartSpanOptionD0Ev
_ZNSt6vectorISt4pairIN11opentracing2v217SpanReferenceTypeEPKNS2_11SpanContextEESaIS7_EE12emplace_backIJRKS3_RKS6_EEEvDpOT_
_ZNSt16allocator_traitsISaISt4pairIN11opentracing2v217SpanReferenceTypeEPKNS2_11SpanContextEEEE9constructIS7_JRKS3_RKS6_EEEvRS8_PT_DpOT0_
_ZSt7forwardIRKN11opentracing2v217SpanReferenceTypeEEOT_RNSt16remove_referenceIS5_E4typeE
_ZSt7forwardIRKPKN11opentracing2v211SpanContextEEOT_RNSt16remove_referenceIS7_E4typeE
_ZNSt6vectorISt4pairIN11opentracing2v217SpanReferenceTypeEPKNS2_11SpanContextEESaIS7_EE17_M_realloc_insertIJRKS3_RKS6_EEEvN9__gnu_cxx17__normal_iteratorIPS7_S9_EEDpOT_
_ZNSt6vectorISt4pairIN11opentracing2v217SpanReferenceTypeEPKNS2_11SpanContextEESaIS7_EE3endEv
_ZN9__gnu_cxx13new_allocatorISt4pairIN11opentracing2v217SpanReferenceTypeEPKNS3_11SpanContextEEE9constructIS8_JRKS4_RKS7_EEEvPT_DpOT0_
_ZNSt4pairIN11opentracing2v217SpanReferenceTypeEPKNS1_11SpanContextEEC2IS2_S5_Lb1EEERKS2_RKS5_
_ZNKSt6vectorISt4pairIN11opentracing2v217SpanReferenceTypeEPKNS2_11SpanContextEESaIS7_EE12_M_check_lenEmPKc
_ZN9__gnu_cxxmiIPSt4pairIN11opentracing2v217SpanReferenceTypeEPKNS3_11SpanContextEESt6vectorIS8_SaIS8_EEEENS_17__normal_iteratorIT_T0_E15difference_typeERKSG_SJ_
_ZNSt6vectorISt4pairIN11opentracing2v217SpanReferenceTypeEPKNS2_11SpanContextEESaIS7_EE5beginEv
_ZNSt12_Vector_baseISt4pairIN11opentracing2v217SpanReferenceTypeEPKNS2_11SpanContextEESaIS7_EE11_M_allocateEm
_ZNSt6vectorISt4pairIN11opentracing2v217SpanReferenceTypeEPKNS2_11SpanContextEESaIS7_EE11_S_relocateEPS7_SA_SA_RS8_
_ZNK9__gnu_cxx17__normal_iteratorIPSt4pairIN11opentracing2v217SpanReferenceTypeEPKNS3_11SpanContextEESt6vectorIS8_SaIS8_EEE4baseEv
_ZNSt16allocator_traitsISaISt4pairIN11opentracing2v217SpanReferenceTypeEPKNS2_11SpanContextEEEE7destroyIS7_EEvRS8_PT_
_ZNKSt6vectorISt4pairIN11opentracing2v217SpanReferenceTypeEPKNS2_11SpanContextEESaIS7_EE8max_sizeEv
_ZNKSt6vectorISt4pairIN11opentracing2v217SpanReferenceTypeEPKNS2_11SpanContextEESaIS7_EE4sizeEv
_ZNSt6vectorISt4pairIN11opentracing2v217SpanReferenceTypeEPKNS2_11SpanContextEESaIS7_EE11_S_max_sizeERKS8_
_ZNKSt12_Vector_baseISt4pairIN11opentracing2v217SpanReferenceTypeEPKNS2_11SpanContextEESaIS7_EE19_M_get_Tp_allocatorEv
_ZNSt16allocator_traitsISaISt4pairIN11opentracing2v217SpanReferenceTypeEPKNS2_11SpanContextEEEE8max_sizeERKS8_
_ZNK9__gnu_cxx13new_allocatorISt4pairIN11opentracing2v217SpanReferenceTypeEPKNS3_11SpanContextEEE8max_sizeEv
_ZN9__gnu_cxx17__normal_iteratorIPSt4pairIN11opentracing2v217SpanReferenceTypeEPKNS3_11SpanContextEESt6vectorIS8_SaIS8_EEEC2ERKS9_
_ZNSt16allocator_traitsISaISt4pairIN11opentracing2v217SpanReferenceTypeEPKNS2_11SpanContextEEEE8allocateERS8_m
_ZN9__gnu_cxx13new_allocatorISt4pairIN11opentracing2v217SpanReferenceTypeEPKNS3_11SpanContextEEE8allocateEmPKv
_ZNSt6vectorISt4pairIN11opentracing2v217SpanReferenceTypeEPKNS2_11SpanContextEESaIS7_EE14_S_do_relocateEPS7_SA_SA_RS8_St17integral_constantIbLb1EE
_ZSt12__relocate_aIPSt4pairIN11opentracing2v217SpanReferenceTypeEPKNS2_11SpanContextEES8_SaIS7_EET0_T_SB_SA_RT1_
_ZSt14__relocate_a_1IPSt4pairIN11opentracing2v217SpanReferenceTypeEPKNS2_11SpanContextEES8_SaIS7_EET0_T_SB_SA_RT1_
_ZSt12__niter_baseIPSt4pairIN11opentracing2v217SpanReferenceTypeEPKNS2_11SpanContextEEET_S9_
_ZSt19__relocate_object_aISt4pairIN11opentracing2v217SpanReferenceTypeEPKNS2_11SpanContextEES7_SaIS7_EEvPT_PT0_RT1_
_ZSt11__addressofISt4pairIN11opentracing2v217SpanReferenceTypeEPKNS2_11SpanContextEEEPT_RS8_
_ZNSt16allocator_traitsISaISt4pairIN11opentracing2v217SpanReferenceTypeEPKNS2_11SpanContextEEEE9constructIS7_JS7_EEEvRS8_PT_DpOT0_
_ZSt4moveIRSt4pairIN11opentracing2v217SpanReferenceTypeEPKNS2_11SpanContextEEEONSt16remove_referenceIT_E4typeEOSA_
_ZN9__gnu_cxx13new_allocatorISt4pairIN11opentracing2v217SpanReferenceTypeEPKNS3_11SpanContextEEE9constructIS8_JS8_EEEvPT_DpOT0_
_ZSt7forwardISt4pairIN11opentracing2v217SpanReferenceTypeEPKNS2_11SpanContextEEEOT_RNSt16remove_referenceIS8_E4typeE
_ZN9__gnu_cxx13new_allocatorISt4pairIN11opentracing2v217SpanReferenceTypeEPKNS3_11SpanContextEEE7destroyIS8_EEvPT_
_ZL20__gthread_mutex_lockP15pthread_mutex_t
pthread_mutex_lock
_ZNSt6chrono20__duration_cast_implINS_8durationIlSt5ratioILl1ELl1000EEEES2_ILl1ELl1000000EElLb1ELb0EE6__castIlS2_ILl1ELl1000000000EEEES4_RKNS1_IT_T0_EE
_ZNSt6chrono8durationIlSt5ratioILl1ELl1000EEEC2IlvEERKT_
exit
_ZL22__gthread_mutex_unlockP15pthread_mutex_t
pthread_mutex_unlock
_ZNSt8ios_base4setfESt13_Ios_FmtflagsS0_
_ZStoRRSt13_Ios_FmtflagsS_
_ZStorSt13_Ios_FmtflagsS_
_ZN9__gnu_cxx6__stoaImmcJiEEET0_PFT_PKT1_PPS3_DpT2_EPKcS5_PmS9_
strtoul
_ZZN9__gnu_cxx6__stoaImmcJiEEET0_PFT_PKT1_PPS3_DpT2_EPKcS5_PmS9_EN11_Save_errnoC2Ev
_ZSt24__throw_invalid_argumentPKc
_ZZN9__gnu_cxx6__stoaImmcJiEEET0_PFT_PKT1_PPS3_DpT2_EPKcS5_PmS9_EN10_Range_chk6_S_chkEmSt17integral_constantIbLb0EE
_ZSt20__throw_out_of_rangePKc
_ZZN9__gnu_cxx6__stoaImmcJiEEET0_PFT_PKT1_PPS3_DpT2_EPKcS5_PmS9_EN11_Save_errnoD2Ev
_ZN6apache6thrift10TExceptionC2Ev
_ZN14social_network24_ServiceException__issetC2Ev
_ZNSt9exceptionC2Ev
_ZN6apache6thrift10TExceptionD2Ev
_ZN6apache6thrift10TExceptionD0Ev
_ZNK6apache6thrift10TException4whatEv
_ZNSt9exceptionD2Ev
_ZN11opentracing2v217FinishSpanOptionsC2Ev
_ZNKSt16initializer_listIN11opentracing2v214option_wrapperINS1_16FinishSpanOptionEEEE5beginEv
_ZNKSt16initializer_listIN11opentracing2v214option_wrapperINS1_16FinishSpanOptionEEEE3endEv
_ZNK11opentracing2v214option_wrapperINS0_16FinishSpanOptionEE3getEv
_ZN11opentracing2v217FinishSpanOptionsD2Ev
_ZNSt6vectorIN11opentracing2v29LogRecordESaIS2_EEC2Ev
_ZNSt12_Vector_baseIN11opentracing2v29LogRecordESaIS2_EEC2Ev
_ZNSt12_Vector_baseIN11opentracing2v29LogRecordESaIS2_EE12_Vector_implC2Ev
_ZNSaIN11opentracing2v29LogRecordEEC2Ev
_ZNSt12_Vector_baseIN11opentracing2v29LogRecordESaIS2_EE17_Vector_impl_dataC2Ev
_ZN9__gnu_cxx13new_allocatorIN11opentracing2v29LogRecordEEC2Ev
_ZNKSt16initializer_listIN11opentracing2v214option_wrapperINS1_16FinishSpanOptionEEEE4sizeEv
_ZNSt6vectorIN11opentracing2v29LogRecordESaIS2_EED2Ev
_ZSt8_DestroyIPN11opentracing2v29LogRecordES2_EvT_S4_RSaIT0_E
_ZNSt12_Vector_baseIN11opentracing2v29LogRecordESaIS2_EE19_M_get_Tp_allocatorEv
_ZNSt12_Vector_baseIN11opentracing2v29LogRecordESaIS2_EED2Ev
_ZSt8_DestroyIPN11opentracing2v29LogRecordEEvT_S4_
_ZNSt12_Destroy_auxILb0EE9__destroyIPN11opentracing2v29LogRecordEEEvT_S6_
_ZSt8_DestroyIN11opentracing2v29LogRecordEEvPT_
_ZSt11__addressofIN11opentracing2v29LogRecordEEPT_RS3_
_ZN11opentracing2v29LogRecordD2Ev
_ZNSt12_Vector_baseIN11opentracing2v29LogRecordESaIS2_EE13_M_deallocateEPS2_m
_ZNSt12_Vector_baseIN11opentracing2v29LogRecordESaIS2_EE12_Vector_implD2Ev
_ZNSt16allocator_traitsISaIN11opentracing2v29LogRecordEEE10deallocateERS3_PS2_m
_ZN9__gnu_cxx13new_allocatorIN11opentracing2v29LogRecordEE10deallocateEPS3_m
_ZNSaIN11opentracing2v29LogRecordEED2Ev
_ZN9__gnu_cxx13new_allocatorIN11opentracing2v29LogRecordEED2Ev
_ZNSt8_Rb_treeINSt7__cxx1112basic_stringIcSt11char_traitsIcESaIcEEESt4pairIKS5_S5_ESt10_Select1stIS8_ESt4lessIS5_ESaIS8_EED2Ev
_ZNSt8_Rb_treeINSt7__cxx1112basic_stringIcSt11char_traitsIcESaIcEEESt4pairIKS5_S5_ESt10_Select1stIS8_ESt4lessIS5_ESaIS8_EE8_M_eraseEPSt13_Rb_tree_nodeIS8_E
_ZNSt8_Rb_treeINSt7__cxx1112basic_stringIcSt11char_traitsIcESaIcEEESt4pairIKS5_S5_ESt10_Select1stIS8_ESt4lessIS5_ESaIS8_EE13_Rb_tree_implISC_Lb1EED2Ev
_ZNSaISt13_Rb_tree_nodeISt4pairIKNSt7__cxx1112basic_stringIcSt11char_traitsIcESaIcEEES6_EEED2Ev
_ZN9__gnu_cxx13new_allocatorISt13_Rb_tree_nodeISt4pairIKNSt7__cxx1112basic_stringIcSt11char_traitsIcESaIcEEES8_EEED2Ev
_ZN9__gnu_cxx12__to_xstringINSt7__cxx1112basic_stringIcSt11char_traitsIcESaIcEEEcEET_PFiPT0_mPKS8_P13__va_list_tagEmSB_z
vsnprintf
llvm.va_start
llvm.va_end
_ZNSt7__cxx1112basic_stringIcSt11char_traitsIcESaIcEEC2IPcvEET_S7_RKS3_
_ZNSt7__cxx1112basic_stringIcSt11char_traitsIcESaIcEE13_M_local_dataEv
_ZNSt7__cxx1112basic_stringIcSt11char_traitsIcESaIcEE12_Alloc_hiderC1EPcRKS3_
_ZNSt7__cxx1112basic_stringIcSt11char_traitsIcESaIcEE12_M_constructIPcEEvT_S7_
_ZNSt7__cxx1112basic_stringIcSt11char_traitsIcESaIcEE12_Alloc_hiderD2Ev
_ZNSt7__cxx1112basic_stringIcSt11char_traitsIcESaIcEE16_M_construct_auxIPcEEvT_S7_St12__false_type
_ZNSt7__cxx1112basic_stringIcSt11char_traitsIcESaIcEE12_M_constructIPcEEvT_S7_St20forward_iterator_tag
_ZN9__gnu_cxx17__is_null_pointerIcEEbPT_
_ZSt19__throw_logic_errorPKc
_ZSt8distanceIPcENSt15iterator_traitsIT_E15difference_typeES2_S2_
_ZNSt7__cxx1112basic_stringIcSt11char_traitsIcESaIcEE7_M_dataEPc
_ZNSt7__cxx1112basic_stringIcSt11char_traitsIcESaIcEE9_M_createERmm
_ZNSt7__cxx1112basic_stringIcSt11char_traitsIcESaIcEE11_M_capacityEm
_ZNSt7__cxx1112basic_stringIcSt11char_traitsIcESaIcEE13_S_copy_charsEPcS5_S5_
_ZNKSt7__cxx1112basic_stringIcSt11char_traitsIcESaIcEE7_M_dataEv
_ZNSt7__cxx1112basic_stringIcSt11char_traitsIcESaIcEE10_M_disposeEv
_ZNSt7__cxx1112basic_stringIcSt11char_traitsIcESaIcEE13_M_set_lengthEm
_ZSt10__distanceIPcENSt15iterator_traitsIT_E15difference_typeES2_S2_St26random_access_iterator_tag
_ZSt19__iterator_categoryIPcENSt15iterator_traitsIT_E17iterator_categoryERKS2_
_ZNSaIcED2Ev
_ZNSt12__mutex_baseC2Ev
_ZNSt10shared_ptrIN6apache6thrift10TProcessorEEC2Ev
_ZNSt10shared_ptrIN6apache6thrift9transport13TMemoryBufferEEC2Ev
_ZNSt10shared_ptrIN6apache6thrift9transport10TTransportEEC2Ev
_ZNSt10shared_ptrIN6apache6thrift8protocol16TProtocolFactoryEEC2Ev
_ZSt11make_sharedIN6apache6thrift9transport13TMemoryBufferEJEESt10shared_ptrIT_EDpOT0_
_ZNSt10shared_ptrIN6apache6thrift9transport13TMemoryBufferEEaSEOS4_
_ZNSt10shared_ptrIN6apache6thrift9transport13TMemoryBufferEED2Ev
_ZNSt12__shared_ptrIN6apache6thrift9transport10TTransportELN9__gnu_cxx12_Lock_policyE2EE5resetIN10FaasWorker21WorkerOutputTransportEEENSt9enable_ifIXsr21__sp_is_constructibleIS3_T_EE5valueEvE4typeEPSB_
_ZN10FaasWorker21WorkerOutputTransportC2EPS_
_ZNSt12__shared_ptrIN6apache6thrift8protocol16TProtocolFactoryELN9__gnu_cxx12_Lock_policyE2EE5resetINS2_23TBinaryProtocolFactoryTINS1_9transport13TMemoryBufferENS2_17TNetworkBigEndianEEEEENSt9enable_ifIXsr21__sp_is_constructibleIS3_T_EE5valueEvE4typeEPSE_
_ZN6apache6thrift8protocol23TBinaryProtocolFactoryTINS0_9transport13TMemoryBufferENS1_17TNetworkBigEndianEEC2Ev
_ZNSt12__shared_ptrIN6apache6thrift8protocol16TProtocolFactoryELN9__gnu_cxx12_Lock_policyE2EE5resetINS2_23TBinaryProtocolFactoryTIN10FaasWorker21WorkerOutputTransportENS2_17TNetworkBigEndianEEEEENSt9enable_ifIXsr21__sp_is_constructibleIS3_T_EE5valueEvE4typeEPSE_
_ZN6apache6thrift8protocol23TBinaryProtocolFactoryTIN10FaasWorker21WorkerOutputTransportENS1_17TNetworkBigEndianEEC2Ev
_ZNSt12__shared_ptrIN6apache6thrift8protocol16TProtocolFactoryELN9__gnu_cxx12_Lock_policyE2EE5resetINS2_23TBinaryProtocolFactoryTIN10FaasWorker15ClientTransportENS2_17TNetworkBigEndianEEEEENSt9enable_ifIXsr21__sp_is_constructibleIS3_T_EE5valueEvE4typeEPSE_
_ZN6apache6thrift8protocol23TBinaryProtocolFactoryTIN10FaasWorker15ClientTransportENS1_17TNetworkBigEndianEEC2Ev
_ZNSt10shared_ptrIN6apache6thrift8protocol16TProtocolFactoryEED2Ev
_ZNSt10shared_ptrIN6apache6thrift9transport10TTransportEED2Ev
_ZNSt12__shared_ptrIN6apache6thrift10TProcessorELN9__gnu_cxx12_Lock_policyE2EEC2Ev
_ZNSt12__shared_ptrIN6apache6thrift9transport13TMemoryBufferELN9__gnu_cxx12_Lock_policyE2EEC2Ev
_ZNSt12__shared_ptrIN6apache6thrift9transport10TTransportELN9__gnu_cxx12_Lock_policyE2EEC2Ev
_ZNSt12__shared_ptrIN6apache6thrift8protocol16TProtocolFactoryELN9__gnu_cxx12_Lock_policyE2EEC2Ev
_ZSt15allocate_sharedIN6apache6thrift9transport13TMemoryBufferESaIS3_EJEESt10shared_ptrIT_ERKT0_DpOT1_
_ZNSaIN6apache6thrift9transport13TMemoryBufferEEC2Ev
_ZNSaIN6apache6thrift9transport13TMemoryBufferEED2Ev
_ZNSt10shared_ptrIN6apache6thrift9transport13TMemoryBufferEEC2ISaIS3_EJEEESt20_Sp_alloc_shared_tagIT_EDpOT0_
_ZNSt12__shared_ptrIN6apache6thrift9transport13TMemoryBufferELN9__gnu_cxx12_Lock_policyE2EEC2ISaIS3_EJEEESt20_Sp_alloc_shared_tagIT_EDpOT0_
_ZNSt14__shared_countILN9__gnu_cxx12_Lock_policyE2EEC2IN6apache6thrift9transport13TMemoryBufferESaIS7_EJEEERPT_St20_Sp_alloc_shared_tagIT0_EDpOT1_
_ZNSt12__shared_ptrIN6apache6thrift9transport13TMemoryBufferELN9__gnu_cxx12_Lock_policyE2EE31_M_enable_shared_from_this_withIS3_S3_EENSt9enable_ifIXntsr15__has_esft_baseIT0_EE5valueEvE4typeEPT_
_ZNSaISt23_Sp_counted_ptr_inplaceIN6apache6thrift9transport13TMemoryBufferESaIS3_ELN9__gnu_cxx12_Lock_policyE2EEEC2IS3_EERKSaIT_E
_ZSt18__allocate_guardedISaISt23_Sp_counted_ptr_inplaceIN6apache6thrift9transport13TMemoryBufferESaIS4_ELN9__gnu_cxx12_Lock_policyE2EEEESt15__allocated_ptrIT_ERSB_
_ZNSt15__allocated_ptrISaISt23_Sp_counted_ptr_inplaceIN6apache6thrift9transport13TMemoryBufferESaIS4_ELN9__gnu_cxx12_Lock_policyE2EEEE3getEv
_ZNSaIN6apache6thrift9transport13TMemoryBufferEEC2ERKS3_
_ZNSt23_Sp_counted_ptr_inplaceIN6apache6thrift9transport13TMemoryBufferESaIS3_ELN9__gnu_cxx12_Lock_policyE2EEC2IJEEES4_DpOT_
_ZNSt15__allocated_ptrISaISt23_Sp_counted_ptr_inplaceIN6apache6thrift9transport13TMemoryBufferESaIS4_ELN9__gnu_cxx12_Lock_policyE2EEEEaSEDn
_ZNSt23_Sp_counted_ptr_inplaceIN6apache6thrift9transport13TMemoryBufferESaIS3_ELN9__gnu_cxx12_Lock_policyE2EE6_M_ptrEv
_ZNSt15__allocated_ptrISaISt23_Sp_counted_ptr_inplaceIN6apache6thrift9transport13TMemoryBufferESaIS4_ELN9__gnu_cxx12_Lock_policyE2EEEED2Ev
_ZNSaISt23_Sp_counted_ptr_inplaceIN6apache6thrift9transport13TMemoryBufferESaIS3_ELN9__gnu_cxx12_Lock_policyE2EEED2Ev
_ZN9__gnu_cxx13new_allocatorISt23_Sp_counted_ptr_inplaceIN6apache6thrift9transport13TMemoryBufferESaIS5_ELNS_12_Lock_policyE2EEEC2Ev
_ZNSt16allocator_traitsISaISt23_Sp_counted_ptr_inplaceIN6apache6thrift9transport13TMemoryBufferESaIS4_ELN9__gnu_cxx12_Lock_policyE2EEEE8allocateERS9_m
_ZNSt15__allocated_ptrISaISt23_Sp_counted_ptr_inplaceIN6apache6thrift9transport13TMemoryBufferESaIS4_ELN9__gnu_cxx12_Lock_policyE2EEEEC2ERS9_PS8_
_ZN9__gnu_cxx13new_allocatorISt23_Sp_counted_ptr_inplaceIN6apache6thrift9transport13TMemoryBufferESaIS5_ELNS_12_Lock_policyE2EEE8allocateEmPKv
_ZNK9__gnu_cxx13new_allocatorISt23_Sp_counted_ptr_inplaceIN6apache6thrift9transport13TMemoryBufferESaIS5_ELNS_12_Lock_policyE2EEE8max_sizeEv
_ZSt11__addressofISaISt23_Sp_counted_ptr_inplaceIN6apache6thrift9transport13TMemoryBufferESaIS4_ELN9__gnu_cxx12_Lock_policyE2EEEEPT_RSA_
_ZSt12__to_addressISt23_Sp_counted_ptr_inplaceIN6apache6thrift9transport13TMemoryBufferESaIS4_ELN9__gnu_cxx12_Lock_policyE2EEEPT_SA_
_ZN9__gnu_cxx13new_allocatorIN6apache6thrift9transport13TMemoryBufferEEC2ERKS5_
_ZNSt23_Sp_counted_ptr_inplaceIN6apache6thrift9transport13TMemoryBufferESaIS3_ELN9__gnu_cxx12_Lock_policyE2EE5_ImplC2ES4_
_ZNSt16allocator_traitsISaIN6apache6thrift9transport13TMemoryBufferEEE9constructIS3_JEEEvRS4_PT_DpOT0_
_ZNSt23_Sp_counted_ptr_inplaceIN6apache6thrift9transport13TMemoryBufferESaIS3_ELN9__gnu_cxx12_Lock_policyE2EE5_ImplD2Ev
_ZNSt23_Sp_counted_ptr_inplaceIN6apache6thrift9transport13TMemoryBufferESaIS3_ELN9__gnu_cxx12_Lock_policyE2EED2Ev
_ZNSt23_Sp_counted_ptr_inplaceIN6apache6thrift9transport13TMemoryBufferESaIS3_ELN9__gnu_cxx12_Lock_policyE2EED0Ev
_ZNSt23_Sp_counted_ptr_inplaceIN6apache6thrift9transport13TMemoryBufferESaIS3_ELN9__gnu_cxx12_Lock_policyE2EE10_M_disposeEv
_ZNSt23_Sp_counted_ptr_inplaceIN6apache6thrift9transport13TMemoryBufferESaIS3_ELN9__gnu_cxx12_Lock_policyE2EE10_M_destroyEv
_ZNSt23_Sp_counted_ptr_inplaceIN6apache6thrift9transport13TMemoryBufferESaIS3_ELN9__gnu_cxx12_Lock_policyE2EE14_M_get_deleterERKSt9type_info
_ZNSt14_Sp_ebo_helperILi0ESaIN6apache6thrift9transport13TMemoryBufferEELb1EEC2ERKS4_
_ZN9__gnu_cxx13new_allocatorIN6apache6thrift9transport13TMemoryBufferEE9constructIS4_JEEEvPT_DpOT0_
_ZN6apache6thrift9transport13TMemoryBufferC2Ev
_ZN6apache6thrift9transport17TVirtualTransportINS1_13TMemoryBufferENS1_11TBufferBaseEEC2Ev
_ZN6apache6thrift9transport13TMemoryBuffer10initCommonEPhjbj
_ZN6apache6thrift9transport11TBufferBaseC2Ev
_ZN6apache6thrift9transport17TVirtualTransportINS1_13TMemoryBufferENS1_11TBufferBaseEED2Ev
_ZN6apache6thrift9transport17TVirtualTransportINS1_13TMemoryBufferENS1_11TBufferBaseEED0Ev
_ZN6apache6thrift9transport10TTransport6isOpenEv
_ZN6apache6thrift9transport10TTransport4peekEv
_ZN6apache6thrift9transport10TTransport4openEv
_ZN6apache6thrift9transport10TTransport5closeEv
_ZN6apache6thrift9transport17TVirtualTransportINS1_13TMemoryBufferENS1_11TBufferBaseEE9read_virtEPhj
_ZN6apache6thrift9transport17TVirtualTransportINS1_13TMemoryBufferENS1_11TBufferBaseEE12readAll_virtEPhj
_ZN6apache6thrift9transport10TTransport7readEndEv
_ZN6apache6thrift9transport17TVirtualTransportINS1_13TMemoryBufferENS1_11TBufferBaseEE10write_virtEPKhj
_ZN6apache6thrift9transport10TTransport8writeEndEv
_ZN6apache6thrift9transport10TTransport5flushEv
_ZN6apache6thrift9transport17TVirtualTransportINS1_13TMemoryBufferENS1_11TBufferBaseEE11borrow_virtEPhPj
_ZN6apache6thrift9transport17TVirtualTransportINS1_13TMemoryBufferENS1_11TBufferBaseEE12consume_virtEj
_ZN6apache6thrift9transport10TTransport9getOriginB5cxx11Ev
_ZN6apache6thrift9transport17TVirtualTransportINS1_11TBufferBaseENS1_18TTransportDefaultsEEC2Ev
_ZN6apache6thrift9transport11TBufferBaseD2Ev
_ZN6apache6thrift9transport11TBufferBaseD0Ev
_ZN6apache6thrift9transport17TVirtualTransportINS1_11TBufferBaseENS1_18TTransportDefaultsEE9read_virtEPhj
_ZN6apache6thrift9transport17TVirtualTransportINS1_11TBufferBaseENS1_18TTransportDefaultsEE12readAll_virtEPhj
_ZN6apache6thrift9transport17TVirtualTransportINS1_11TBufferBaseENS1_18TTransportDefaultsEE10write_virtEPKhj
_ZN6apache6thrift9transport17TVirtualTransportINS1_11TBufferBaseENS1_18TTransportDefaultsEE11borrow_virtEPhPj
_ZN6apache6thrift9transport17TVirtualTransportINS1_11TBufferBaseENS1_18TTransportDefaultsEE12consume_virtEj
_ZN6apache6thrift9transport18TTransportDefaultsC2Ev
_ZN6apache6thrift9transport17TVirtualTransportINS1_11TBufferBaseENS1_18TTransportDefaultsEED2Ev
_ZN6apache6thrift9transport17TVirtualTransportINS1_11TBufferBaseENS1_18TTransportDefaultsEED0Ev
_ZN6apache6thrift9transport10TTransportC2Ev
_ZN6apache6thrift9transport18TTransportDefaultsD2Ev
_ZN6apache6thrift9transport18TTransportDefaultsD0Ev
_ZN6apache6thrift9transport10TTransport9read_virtEPhj
_ZN6apache6thrift9transport10TTransport12readAll_virtEPhj
_ZN6apache6thrift9transport10TTransport10write_virtEPKhj
_ZN6apache6thrift9transport10TTransport11borrow_virtEPhPj
_ZN6apache6thrift9transport10TTransport12consume_virtEj
_ZN6apache6thrift9transport10TTransportD2Ev
_ZN6apache6thrift9transport10TTransportD0Ev
_ZN6apache6thrift9transport19TTransportExceptionC2ENS2_23TTransportExceptionTypeERKNSt7__cxx1112basic_stringIcSt11char_traitsIcESaIcEEE
_ZN6apache6thrift9transport19TTransportExceptionD2Ev
_ZN6apache6thrift10TExceptionC2ERKNSt7__cxx1112basic_stringIcSt11char_traitsIcESaIcEEE
_ZN6apache6thrift9transport7readAllINS1_10TTransportEEEjRT_Phj
_ZN6apache6thrift9transport10TTransport4readEPhj
_ZN6apache6thrift9transport11TBufferBase4readEPhj
_ZN6apache6thrift9transport11TBufferBase7readAllEPhj
_ZN6apache6thrift9transport7readAllINS1_11TBufferBaseEEEjRT_Phj
_ZN6apache6thrift9transport11TBufferBase5writeEPKhj
_ZN6apache6thrift9transport11TBufferBase6borrowEPhPj
_ZN6apache6thrift9transport11TBufferBase7consumeEj
_ZN6apache6thrift9transport13TMemoryBuffer7readAllEPhj
malloc
_ZNSt9bad_allocC2Ev
_ZNSt9bad_allocD1Ev
_ZNSt14_Sp_ebo_helperILi0ESaIN6apache6thrift9transport13TMemoryBufferEELb1EED2Ev
_ZN9__gnu_cxx13new_allocatorIN6apache6thrift9transport13TMemoryBufferEED2Ev
_ZNSt16allocator_traitsISaIN6apache6thrift9transport13TMemoryBufferEEE7destroyIS3_EEvRS4_PT_
_ZNSt23_Sp_counted_ptr_inplaceIN6apache6thrift9transport13TMemoryBufferESaIS3_ELN9__gnu_cxx12_Lock_policyE2EE5_Impl8_M_allocEv
_ZN9__gnu_cxx13new_allocatorIN6apache6thrift9transport13TMemoryBufferEE7destroyIS4_EEvPT_
_ZNSt14_Sp_ebo_helperILi0ESaIN6apache6thrift9transport13TMemoryBufferEELb1EE6_S_getERS5_
_ZN9__gnu_cxx16__aligned_bufferIN6apache6thrift9transport13TMemoryBufferEE6_M_ptrEv
_ZN9__gnu_cxx16__aligned_bufferIN6apache6thrift9transport13TMemoryBufferEE7_M_addrEv
_ZNSt16allocator_traitsISaISt23_Sp_counted_ptr_inplaceIN6apache6thrift9transport13TMemoryBufferESaIS4_ELN9__gnu_cxx12_Lock_policyE2EEEE10deallocateERS9_PS8_m
_ZN9__gnu_cxx13new_allocatorISt23_Sp_counted_ptr_inplaceIN6apache6thrift9transport13TMemoryBufferESaIS5_ELNS_12_Lock_policyE2EEE10deallocateEPS8_m
_ZN9__gnu_cxx13new_allocatorISt23_Sp_counted_ptr_inplaceIN6apache6thrift9transport13TMemoryBufferESaIS5_ELNS_12_Lock_policyE2EEED2Ev
_ZN9__gnu_cxx13new_allocatorIN6apache6thrift9transport13TMemoryBufferEEC2Ev
_ZNSt12__shared_ptrIN6apache6thrift9transport13TMemoryBufferELN9__gnu_cxx12_Lock_policyE2EEaSEOS6_
_ZSt4moveIRSt10shared_ptrIN6apache6thrift9transport13TMemoryBufferEEEONSt16remove_referenceIT_E4typeEOS8_
_ZSt4moveIRSt12__shared_ptrIN6apache6thrift9transport13TMemoryBufferELN9__gnu_cxx12_Lock_policyE2EEEONSt16remove_referenceIT_E4typeEOSA_
_ZNSt12__shared_ptrIN6apache6thrift9transport13TMemoryBufferELN9__gnu_cxx12_Lock_policyE2EEC2EOS6_
_ZNSt12__shared_ptrIN6apache6thrift9transport13TMemoryBufferELN9__gnu_cxx12_Lock_policyE2EE4swapERS6_
_ZNSt12__shared_ptrIN6apache6thrift9transport13TMemoryBufferELN9__gnu_cxx12_Lock_policyE2EED2Ev
_ZSt4swapIPN6apache6thrift9transport13TMemoryBufferEENSt9enable_ifIXsr6__and_ISt6__not_ISt15__is_tuple_likeIT_EESt21is_move_constructibleIS8_ESt18is_move_assignableIS8_EEE5valueEvE4typeERS8_SH_
_ZSt4moveIRPN6apache6thrift9transport13TMemoryBufferEEONSt16remove_referenceIT_E4typeEOS7_
_ZNSt12__shared_ptrIN6apache6thrift9transport10TTransportELN9__gnu_cxx12_Lock_policyE2EEC2IN10FaasWorker21WorkerOutputTransportEvEEPT_
_ZNSt12__shared_ptrIN6apache6thrift9transport10TTransportELN9__gnu_cxx12_Lock_policyE2EE4swapERS6_
_ZNSt12__shared_ptrIN6apache6thrift9transport10TTransportELN9__gnu_cxx12_Lock_policyE2EED2Ev
_ZNSt14__shared_countILN9__gnu_cxx12_Lock_policyE2EEC2IPN10FaasWorker21WorkerOutputTransportEEET_St17integral_constantIbLb0EE
_ZNSt12__shared_ptrIN6apache6thrift9transport10TTransportELN9__gnu_cxx12_Lock_policyE2EE31_M_enable_shared_from_this_withIN10FaasWorker21WorkerOutputTransportES9_EENSt9enable_ifIXntsr15__has_esft_baseIT0_EE5valueEvE4typeEPT_
_ZNSt14__shared_countILN9__gnu_cxx12_Lock_policyE2EEC2IPN10FaasWorker21WorkerOutputTransportEEET_
_ZNSt15_Sp_counted_ptrIPN10FaasWorker21WorkerOutputTransportELN9__gnu_cxx12_Lock_policyE2EEC2ES2_
_ZNSt15_Sp_counted_ptrIPN10FaasWorker21WorkerOutputTransportELN9__gnu_cxx12_Lock_policyE2EED2Ev
_ZNSt15_Sp_counted_ptrIPN10FaasWorker21WorkerOutputTransportELN9__gnu_cxx12_Lock_policyE2EED0Ev
_ZNSt15_Sp_counted_ptrIPN10FaasWorker21WorkerOutputTransportELN9__gnu_cxx12_Lock_policyE2EE10_M_disposeEv
_ZNSt15_Sp_counted_ptrIPN10FaasWorker21WorkerOutputTransportELN9__gnu_cxx12_Lock_policyE2EE10_M_destroyEv
_ZNSt15_Sp_counted_ptrIPN10FaasWorker21WorkerOutputTransportELN9__gnu_cxx12_Lock_policyE2EE14_M_get_deleterERKSt9type_info
_ZSt4swapIPN6apache6thrift9transport10TTransportEENSt9enable_ifIXsr6__and_ISt6__not_ISt15__is_tuple_likeIT_EESt21is_move_constructibleIS8_ESt18is_move_assignableIS8_EEE5valueEvE4typeERS8_SH_
_ZSt4moveIRPN6apache6thrift9transport10TTransportEEONSt16remove_referenceIT_E4typeEOS7_
_ZN6apache6thrift9transport17TVirtualTransportIN10FaasWorker21WorkerOutputTransportENS1_18TTransportDefaultsEEC2Ev
_ZN10FaasWorker21WorkerOutputTransportD2Ev
_ZN10FaasWorker21WorkerOutputTransportD0Ev
_ZN6apache6thrift9transport17TVirtualTransportIN10FaasWorker21WorkerOutputTransportENS1_18TTransportDefaultsEE9read_virtEPhj
_ZN6apache6thrift9transport17TVirtualTransportIN10FaasWorker21WorkerOutputTransportENS1_18TTransportDefaultsEE12readAll_virtEPhj
_ZN6apache6thrift9transport17TVirtualTransportIN10FaasWorker21WorkerOutputTransportENS1_18TTransportDefaultsEE10write_virtEPKhj
_ZN6apache6thrift9transport17TVirtualTransportIN10FaasWorker21WorkerOutputTransportENS1_18TTransportDefaultsEE11borrow_virtEPhPj
_ZN6apache6thrift9transport17TVirtualTransportIN10FaasWorker21WorkerOutputTransportENS1_18TTransportDefaultsEE12consume_virtEj
_ZN6apache6thrift9transport17TVirtualTransportIN10FaasWorker21WorkerOutputTransportENS1_18TTransportDefaultsEED2Ev
_ZN6apache6thrift9transport17TVirtualTransportIN10FaasWorker21WorkerOutputTransportENS1_18TTransportDefaultsEED0Ev
_ZN6apache6thrift9transport18TTransportDefaults4readEPhj
_ZN6apache6thrift9transport17TVirtualTransportIN10FaasWorker21WorkerOutputTransportENS1_18TTransportDefaultsEE7readAllEPhj
_ZN6apache6thrift9transport7readAllIN10FaasWorker21WorkerOutputTransportEEEjRT_Phj
_ZN10FaasWorker21WorkerOutputTransport5writeEPKhj
_ZN6apache6thrift9transport18TTransportDefaults6borrowEPhPj
_ZN6apache6thrift9transport18TTransportDefaults7consumeEj
_ZNSt12__shared_ptrIN6apache6thrift8protocol16TProtocolFactoryELN9__gnu_cxx12_Lock_policyE2EEC2INS2_23TBinaryProtocolFactoryTINS1_9transport13TMemoryBufferENS2_17TNetworkBigEndianEEEvEEPT_
_ZNSt12__shared_ptrIN6apache6thrift8protocol16TProtocolFactoryELN9__gnu_cxx12_Lock_policyE2EE4swapERS6_
_ZNSt12__shared_ptrIN6apache6thrift8protocol16TProtocolFactoryELN9__gnu_cxx12_Lock_policyE2EED2Ev
_ZNSt14__shared_countILN9__gnu_cxx12_Lock_policyE2EEC2IPN6apache6thrift8protocol23TBinaryProtocolFactoryTINS5_9transport13TMemoryBufferENS6_17TNetworkBigEndianEEEEET_St17integral_constantIbLb0EE
_ZNSt12__shared_ptrIN6apache6thrift8protocol16TProtocolFactoryELN9__gnu_cxx12_Lock_policyE2EE31_M_enable_shared_from_this_withINS2_23TBinaryProtocolFactoryTINS1_9transport13TMemoryBufferENS2_17TNetworkBigEndianEEESC_EENSt9enable_ifIXntsr15__has_esft_baseIT0_EE5valueEvE4typeEPT_
_ZNSt14__shared_countILN9__gnu_cxx12_Lock_policyE2EEC2IPN6apache6thrift8protocol23TBinaryProtocolFactoryTINS5_9transport13TMemoryBufferENS6_17TNetworkBigEndianEEEEET_
_ZNSt15_Sp_counted_ptrIPN6apache6thrift8protocol23TBinaryProtocolFactoryTINS1_9transport13TMemoryBufferENS2_17TNetworkBigEndianEEELN9__gnu_cxx12_Lock_policyE2EEC2ES8_
_ZNSt15_Sp_counted_ptrIPN6apache6thrift8protocol23TBinaryProtocolFactoryTINS1_9transport13TMemoryBufferENS2_17TNetworkBigEndianEEELN9__gnu_cxx12_Lock_policyE2EED2Ev
_ZNSt15_Sp_counted_ptrIPN6apache6thrift8protocol23TBinaryProtocolFactoryTINS1_9transport13TMemoryBufferENS2_17TNetworkBigEndianEEELN9__gnu_cxx12_Lock_policyE2EED0Ev
_ZNSt15_Sp_counted_ptrIPN6apache6thrift8protocol23TBinaryProtocolFactoryTINS1_9transport13TMemoryBufferENS2_17TNetworkBigEndianEEELN9__gnu_cxx12_Lock_policyE2EE10_M_disposeEv
_ZNSt15_Sp_counted_ptrIPN6apache6thrift8protocol23TBinaryProtocolFactoryTINS1_9transport13TMemoryBufferENS2_17TNetworkBigEndianEEELN9__gnu_cxx12_Lock_policyE2EE10_M_destroyEv
_ZNSt15_Sp_counted_ptrIPN6apache6thrift8protocol23TBinaryProtocolFactoryTINS1_9transport13TMemoryBufferENS2_17TNetworkBigEndianEEELN9__gnu_cxx12_Lock_policyE2EE14_M_get_deleterERKSt9type_info
_ZSt4swapIPN6apache6thrift8protocol16TProtocolFactoryEENSt9enable_ifIXsr6__and_ISt6__not_ISt15__is_tuple_likeIT_EESt21is_move_constructibleIS8_ESt18is_move_assignableIS8_EEE5valueEvE4typeERS8_SH_
_ZSt4moveIRPN6apache6thrift8protocol16TProtocolFactoryEEONSt16remove_referenceIT_E4typeEOS7_
_ZN6apache6thrift8protocol16TProtocolFactoryC2Ev
_ZN6apache6thrift8protocol23TBinaryProtocolFactoryTINS0_9transport13TMemoryBufferENS1_17TNetworkBigEndianEED2Ev
_ZN6apache6thrift8protocol23TBinaryProtocolFactoryTINS0_9transport13TMemoryBufferENS1_17TNetworkBigEndianEED0Ev
_ZN6apache6thrift8protocol23TBinaryProtocolFactoryTINS0_9transport13TMemoryBufferENS1_17TNetworkBigEndianEE11getProtocolESt10shared_ptrINS3_10TTransportEE
_ZN6apache6thrift8protocol16TProtocolFactory11getProtocolESt10shared_ptrINS0_9transport10TTransportEES6_
_ZN6apache6thrift8protocol16TProtocolFactoryD2Ev
_ZSt20dynamic_pointer_castIN6apache6thrift9transport13TMemoryBufferENS2_10TTransportEESt10shared_ptrIT_ERKS5_IT0_E
_ZNKSt12__shared_ptrIN6apache6thrift9transport13TMemoryBufferELN9__gnu_cxx12_Lock_policyE2EEcvbEv
_ZNSt10shared_ptrIN6apache6thrift9transport13TMemoryBufferEEC2ERKS4_
_ZN6apache6thrift8protocol16TBinaryProtocolTINS0_9transport13TMemoryBufferENS1_17TNetworkBigEndianEEC2ESt10shared_ptrIS4_Eiibb
_ZNSt10shared_ptrIN6apache6thrift9transport10TTransportEEC2ERKS4_
_ZN6apache6thrift8protocol16TBinaryProtocolTINS0_9transport10TTransportENS1_17TNetworkBigEndianEEC2ESt10shared_ptrIS4_Eiibb
_ZNSt10shared_ptrIN6apache6thrift8protocol9TProtocolEEC2IS3_vEEPT_
_ZNKSt12__shared_ptrIN6apache6thrift9transport10TTransportELN9__gnu_cxx12_Lock_policyE2EE3getEv
_ZNSt10shared_ptrIN6apache6thrift9transport13TMemoryBufferEEC2INS2_10TTransportEEERKS_IT_EPS3_
_ZNSt12__shared_ptrIN6apache6thrift9transport13TMemoryBufferELN9__gnu_cxx12_Lock_policyE2EEC2INS2_10TTransportEEERKS_IT_LS5_2EEPS3_
_ZNSt12__shared_ptrIN6apache6thrift9transport13TMemoryBufferELN9__gnu_cxx12_Lock_policyE2EEC2ERKS6_
_ZNSt10shared_ptrIN6apache6thrift9transport10TTransportEEC2INS2_13TMemoryBufferEvEERKS_IT_E
_ZN6apache6thrift8protocol16TVirtualProtocolINS1_16TBinaryProtocolTINS0_9transport13TMemoryBufferENS1_17TNetworkBigEndianEEENS1_17TProtocolDefaultsEEC2ESt10shared_ptrINS4_10TTransportEE
_ZNKSt12__shared_ptrIN6apache6thrift9transport13TMemoryBufferELN9__gnu_cxx12_Lock_policyE2EE3getEv
_ZN6apache6thrift8protocol16TBinaryProtocolTINS0_9transport13TMemoryBufferENS1_17TNetworkBigEndianEED2Ev
_ZN6apache6thrift8protocol16TBinaryProtocolTINS0_9transport13TMemoryBufferENS1_17TNetworkBigEndianEED0Ev
_ZN6apache6thrift8protocol16TVirtualProtocolINS1_16TBinaryProtocolTINS0_9transport13TMemoryBufferENS1_17TNetworkBigEndianEEENS1_17TProtocolDefaultsEE22writeMessageBegin_virtERKNSt7__cxx1112basic_stringIcSt11char_traitsIcESaIcEEENS1_12TMessageTypeEi
_ZN6apache6thrift8protocol16TVirtualProtocolINS1_16TBinaryProtocolTINS0_9transport13TMemoryBufferENS1_17TNetworkBigEndianEEENS1_17TProtocolDefaultsEE20writeMessageEnd_virtEv
_ZN6apache6thrift8protocol16TVirtualProtocolINS1_16TBinaryProtocolTINS0_9transport13TMemoryBufferENS1_17TNetworkBigEndianEEENS1_17TProtocolDefaultsEE21writeStructBegin_virtEPKc
_ZN6apache6thrift8protocol16TVirtualProtocolINS1_16TBinaryProtocolTINS0_9transport13TMemoryBufferENS1_17TNetworkBigEndianEEENS1_17TProtocolDefaultsEE19writeStructEnd_virtEv
_ZN6apache6thrift8protocol16TVirtualProtocolINS1_16TBinaryProtocolTINS0_9transport13TMemoryBufferENS1_17TNetworkBigEndianEEENS1_17TProtocolDefaultsEE20writeFieldBegin_virtEPKcNS1_5TTypeEs
_ZN6apache6thrift8protocol16TVirtualProtocolINS1_16TBinaryProtocolTINS0_9transport13TMemoryBufferENS1_17TNetworkBigEndianEEENS1_17TProtocolDefaultsEE18writeFieldEnd_virtEv
_ZN6apache6thrift8protocol16TVirtualProtocolINS1_16TBinaryProtocolTINS0_9transport13TMemoryBufferENS1_17TNetworkBigEndianEEENS1_17TProtocolDefaultsEE19writeFieldStop_virtEv
_ZN6apache6thrift8protocol16TVirtualProtocolINS1_16TBinaryProtocolTINS0_9transport13TMemoryBufferENS1_17TNetworkBigEndianEEENS1_17TProtocolDefaultsEE18writeMapBegin_virtENS1_5TTypeESA_j
_ZN6apache6thrift8protocol16TVirtualProtocolINS1_16TBinaryProtocolTINS0_9transport13TMemoryBufferENS1_17TNetworkBigEndianEEENS1_17TProtocolDefaultsEE16writeMapEnd_virtEv
_ZN6apache6thrift8protocol16TVirtualProtocolINS1_16TBinaryProtocolTINS0_9transport13TMemoryBufferENS1_17TNetworkBigEndianEEENS1_17TProtocolDefaultsEE19writeListBegin_virtENS1_5TTypeEj
_ZN6apache6thrift8protocol16TVirtualProtocolINS1_16TBinaryProtocolTINS0_9transport13TMemoryBufferENS1_17TNetworkBigEndianEEENS1_17TProtocolDefaultsEE17writeListEnd_virtEv
_ZN6apache6thrift8protocol16TVirtualProtocolINS1_16TBinaryProtocolTINS0_9transport13TMemoryBufferENS1_17TNetworkBigEndianEEENS1_17TProtocolDefaultsEE18writeSetBegin_virtENS1_5TTypeEj
_ZN6apache6thrift8protocol16TVirtualProtocolINS1_16TBinaryProtocolTINS0_9transport13TMemoryBufferENS1_17TNetworkBigEndianEEENS1_17TProtocolDefaultsEE16writeSetEnd_virtEv
_ZN6apache6thrift8protocol16TVirtualProtocolINS1_16TBinaryProtocolTINS0_9transport13TMemoryBufferENS1_17TNetworkBigEndianEEENS1_17TProtocolDefaultsEE14writeBool_virtEb
_ZN6apache6thrift8protocol16TVirtualProtocolINS1_16TBinaryProtocolTINS0_9transport13TMemoryBufferENS1_17TNetworkBigEndianEEENS1_17TProtocolDefaultsEE14writeByte_virtEa
_ZN6apache6thrift8protocol16TVirtualProtocolINS1_16TBinaryProtocolTINS0_9transport13TMemoryBufferENS1_17TNetworkBigEndianEEENS1_17TProtocolDefaultsEE13writeI16_virtEs
_ZN6apache6thrift8protocol16TVirtualProtocolINS1_16TBinaryProtocolTINS0_9transport13TMemoryBufferENS1_17TNetworkBigEndianEEENS1_17TProtocolDefaultsEE13writeI32_virtEi
_ZN6apache6thrift8protocol16TVirtualProtocolINS1_16TBinaryProtocolTINS0_9transport13TMemoryBufferENS1_17TNetworkBigEndianEEENS1_17TProtocolDefaultsEE13writeI64_virtEl
_ZN6apache6thrift8protocol16TVirtualProtocolINS1_16TBinaryProtocolTINS0_9transport13TMemoryBufferENS1_17TNetworkBigEndianEEENS1_17TProtocolDefaultsEE16writeDouble_virtEd
_ZN6apache6thrift8protocol16TVirtualProtocolINS1_16TBinaryProtocolTINS0_9transport13TMemoryBufferENS1_17TNetworkBigEndianEEENS1_17TProtocolDefaultsEE16writeString_virtERKNSt7__cxx1112basic_stringIcSt11char_traitsIcESaIcEEE
_ZN6apache6thrift8protocol16TVirtualProtocolINS1_16TBinaryProtocolTINS0_9transport13TMemoryBufferENS1_17TNetworkBigEndianEEENS1_17TProtocolDefaultsEE16writeBinary_virtERKNSt7__cxx1112basic_stringIcSt11char_traitsIcESaIcEEE
_ZN6apache6thrift8protocol16TVirtualProtocolINS1_16TBinaryProtocolTINS0_9transport13TMemoryBufferENS1_17TNetworkBigEndianEEENS1_17TProtocolDefaultsEE21readMessageBegin_virtERNSt7__cxx1112basic_stringIcSt11char_traitsIcESaIcEEERNS1_12TMessageTypeERi
_ZN6apache6thrift8protocol16TVirtualProtocolINS1_16TBinaryProtocolTINS0_9transport13TMemoryBufferENS1_17TNetworkBigEndianEEENS1_17TProtocolDefaultsEE19readMessageEnd_virtEv
_ZN6apache6thrift8protocol16TVirtualProtocolINS1_16TBinaryProtocolTINS0_9transport13TMemoryBufferENS1_17TNetworkBigEndianEEENS1_17TProtocolDefaultsEE20readStructBegin_virtERNSt7__cxx1112basic_stringIcSt11char_traitsIcESaIcEEE
_ZN6apache6thrift8protocol16TVirtualProtocolINS1_16TBinaryProtocolTINS0_9transport13TMemoryBufferENS1_17TNetworkBigEndianEEENS1_17TProtocolDefaultsEE18readStructEnd_virtEv
_ZN6apache6thrift8protocol16TVirtualProtocolINS1_16TBinaryProtocolTINS0_9transport13TMemoryBufferENS1_17TNetworkBigEndianEEENS1_17TProtocolDefaultsEE19readFieldBegin_virtERNSt7__cxx1112basic_stringIcSt11char_traitsIcESaIcEEERNS1_5TTypeERs
_ZN6apache6thrift8protocol16TVirtualProtocolINS1_16TBinaryProtocolTINS0_9transport13TMemoryBufferENS1_17TNetworkBigEndianEEENS1_17TProtocolDefaultsEE17readFieldEnd_virtEv
_ZN6apache6thrift8protocol16TVirtualProtocolINS1_16TBinaryProtocolTINS0_9transport13TMemoryBufferENS1_17TNetworkBigEndianEEENS1_17TProtocolDefaultsEE17readMapBegin_virtERNS1_5TTypeESB_Rj
_ZN6apache6thrift8protocol16TVirtualProtocolINS1_16TBinaryProtocolTINS0_9transport13TMemoryBufferENS1_17TNetworkBigEndianEEENS1_17TProtocolDefaultsEE15readMapEnd_virtEv
_ZN6apache6thrift8protocol16TVirtualProtocolINS1_16TBinaryProtocolTINS0_9transport13TMemoryBufferENS1_17TNetworkBigEndianEEENS1_17TProtocolDefaultsEE18readListBegin_virtERNS1_5TTypeERj
_ZN6apache6thrift8protocol16TVirtualProtocolINS1_16TBinaryProtocolTINS0_9transport13TMemoryBufferENS1_17TNetworkBigEndianEEENS1_17TProtocolDefaultsEE16readListEnd_virtEv
_ZN6apache6thrift8protocol16TVirtualProtocolINS1_16TBinaryProtocolTINS0_9transport13TMemoryBufferENS1_17TNetworkBigEndianEEENS1_17TProtocolDefaultsEE17readSetBegin_virtERNS1_5TTypeERj
_ZN6apache6thrift8protocol16TVirtualProtocolINS1_16TBinaryProtocolTINS0_9transport13TMemoryBufferENS1_17TNetworkBigEndianEEENS1_17TProtocolDefaultsEE15readSetEnd_virtEv
_ZN6apache6thrift8protocol16TVirtualProtocolINS1_16TBinaryProtocolTINS0_9transport13TMemoryBufferENS1_17TNetworkBigEndianEEENS1_17TProtocolDefaultsEE13readBool_virtERb
_ZN6apache6thrift8protocol16TVirtualProtocolINS1_16TBinaryProtocolTINS0_9transport13TMemoryBufferENS1_17TNetworkBigEndianEEENS1_17TProtocolDefaultsEE13readBool_virtESt14_Bit_reference
_ZN6apache6thrift8protocol16TVirtualProtocolINS1_16TBinaryProtocolTINS0_9transport13TMemoryBufferENS1_17TNetworkBigEndianEEENS1_17TProtocolDefaultsEE13readByte_virtERa
_ZN6apache6thrift8protocol16TVirtualProtocolINS1_16TBinaryProtocolTINS0_9transport13TMemoryBufferENS1_17TNetworkBigEndianEEENS1_17TProtocolDefaultsEE12readI16_virtERs
_ZN6apache6thrift8protocol16TVirtualProtocolINS1_16TBinaryProtocolTINS0_9transport13TMemoryBufferENS1_17TNetworkBigEndianEEENS1_17TProtocolDefaultsEE12readI32_virtERi
_ZN6apache6thrift8protocol16TVirtualProtocolINS1_16TBinaryProtocolTINS0_9transport13TMemoryBufferENS1_17TNetworkBigEndianEEENS1_17TProtocolDefaultsEE12readI64_virtERl
_ZN6apache6thrift8protocol16TVirtualProtocolINS1_16TBinaryProtocolTINS0_9transport13TMemoryBufferENS1_17TNetworkBigEndianEEENS1_17TProtocolDefaultsEE15readDouble_virtERd
_ZN6apache6thrift8protocol16TVirtualProtocolINS1_16TBinaryProtocolTINS0_9transport13TMemoryBufferENS1_17TNetworkBigEndianEEENS1_17TProtocolDefaultsEE15readString_virtERNSt7__cxx1112basic_stringIcSt11char_traitsIcESaIcEEE
_ZN6apache6thrift8protocol16TVirtualProtocolINS1_16TBinaryProtocolTINS0_9transport13TMemoryBufferENS1_17TNetworkBigEndianEEENS1_17TProtocolDefaultsEE15readBinary_virtERNSt7__cxx1112basic_stringIcSt11char_traitsIcESaIcEEE
_ZN6apache6thrift8protocol16TVirtualProtocolINS1_16TBinaryProtocolTINS0_9transport13TMemoryBufferENS1_17TNetworkBigEndianEEENS1_17TProtocolDefaultsEE9skip_virtENS1_5TTypeE
_ZNSt12__shared_ptrIN6apache6thrift9transport10TTransportELN9__gnu_cxx12_Lock_policyE2EEC2INS2_13TMemoryBufferEvEERKS_IT_LS5_2EE
_ZN6apache6thrift8protocol17TProtocolDefaultsC2ESt10shared_ptrINS0_9transport10TTransportEE
_ZN6apache6thrift8protocol16TVirtualProtocolINS1_16TBinaryProtocolTINS0_9transport13TMemoryBufferENS1_17TNetworkBigEndianEEENS1_17TProtocolDefaultsEED2Ev
_ZN6apache6thrift8protocol16TVirtualProtocolINS1_16TBinaryProtocolTINS0_9transport13TMemoryBufferENS1_17TNetworkBigEndianEEENS1_17TProtocolDefaultsEED0Ev
_ZN6apache6thrift8protocol9TProtocolC2ESt10shared_ptrINS0_9transport10TTransportEE
_ZN6apache6thrift8protocol17TProtocolDefaultsD2Ev
_ZN6apache6thrift8protocol17TProtocolDefaultsD0Ev
_ZN6apache6thrift8protocol9TProtocol9skip_virtENS1_5TTypeE
_ZN6apache6thrift8protocol9TProtocolD2Ev
_ZN6apache6thrift8protocol16TBinaryProtocolTINS0_9transport13TMemoryBufferENS1_17TNetworkBigEndianEE17writeMessageBeginERKNSt7__cxx1112basic_stringIcSt11char_traitsIcESaIcEEENS1_12TMessageTypeEi
_ZN6apache6thrift8protocol16TBinaryProtocolTINS0_9transport13TMemoryBufferENS1_17TNetworkBigEndianEE8writeI32Ei
_ZN6apache6thrift8protocol16TBinaryProtocolTINS0_9transport13TMemoryBufferENS1_17TNetworkBigEndianEE11writeStringINSt7__cxx1112basic_stringIcSt11char_traitsIcESaIcEEEEEjRKT_
_ZN6apache6thrift8protocol16TBinaryProtocolTINS0_9transport13TMemoryBufferENS1_17TNetworkBigEndianEE9writeByteEa
_ZN6apache6thrift8protocol17TNetworkBigEndian8toWire32Ej
htonl
_ZNSt14numeric_limitsIiE3maxEv
_ZN6apache6thrift8protocol18TProtocolExceptionC2ENS2_22TProtocolExceptionTypeE
_ZN6apache6thrift8protocol18TProtocolExceptionD2Ev
_ZN6apache6thrift8protocol18TProtocolExceptionD0Ev
_ZNK6apache6thrift8protocol18TProtocolException4whatEv
_ZN6apache6thrift8protocol16TBinaryProtocolTINS0_9transport13TMemoryBufferENS1_17TNetworkBigEndianEE15writeMessageEndEv
_ZN6apache6thrift8protocol16TBinaryProtocolTINS0_9transport13TMemoryBufferENS1_17TNetworkBigEndianEE16writeStructBeginEPKc
_ZN6apache6thrift8protocol16TBinaryProtocolTINS0_9transport13TMemoryBufferENS1_17TNetworkBigEndianEE14writeStructEndEv
_ZN6apache6thrift8protocol16TBinaryProtocolTINS0_9transport13TMemoryBufferENS1_17TNetworkBigEndianEE15writeFieldBeginEPKcNS1_5TTypeEs
_ZN6apache6thrift8protocol16TBinaryProtocolTINS0_9transport13TMemoryBufferENS1_17TNetworkBigEndianEE8writeI16Es
_ZN6apache6thrift8protocol17TNetworkBigEndian8toWire16Et
htons
_ZN6apache6thrift8protocol16TBinaryProtocolTINS0_9transport13TMemoryBufferENS1_17TNetworkBigEndianEE13writeFieldEndEv
_ZN6apache6thrift8protocol16TBinaryProtocolTINS0_9transport13TMemoryBufferENS1_17TNetworkBigEndianEE14writeFieldStopEv
_ZN6apache6thrift8protocol16TBinaryProtocolTINS0_9transport13TMemoryBufferENS1_17TNetworkBigEndianEE13writeMapBeginENS1_5TTypeES7_j
_ZN6apache6thrift8protocol16TBinaryProtocolTINS0_9transport13TMemoryBufferENS1_17TNetworkBigEndianEE11writeMapEndEv
_ZN6apache6thrift8protocol16TBinaryProtocolTINS0_9transport13TMemoryBufferENS1_17TNetworkBigEndianEE14writeListBeginENS1_5TTypeEj
_ZN6apache6thrift8protocol16TBinaryProtocolTINS0_9transport13TMemoryBufferENS1_17TNetworkBigEndianEE12writeListEndEv
_ZN6apache6thrift8protocol16TBinaryProtocolTINS0_9transport13TMemoryBufferENS1_17TNetworkBigEndianEE13writeSetBeginENS1_5TTypeEj
_ZN6apache6thrift8protocol16TBinaryProtocolTINS0_9transport13TMemoryBufferENS1_17TNetworkBigEndianEE11writeSetEndEv
_ZN6apache6thrift8protocol16TBinaryProtocolTINS0_9transport13TMemoryBufferENS1_17TNetworkBigEndianEE9writeBoolEb
_ZN6apache6thrift8protocol16TBinaryProtocolTINS0_9transport13TMemoryBufferENS1_17TNetworkBigEndianEE8writeI64El
_ZN6apache6thrift8protocol17TNetworkBigEndian8toWire64Em
_ZN6apache6thrift8protocol16TBinaryProtocolTINS0_9transport13TMemoryBufferENS1_17TNetworkBigEndianEE11writeDoubleEd
_ZL12bitwise_castImdET_T0_
_ZN6apache6thrift8protocol16TBinaryProtocolTINS0_9transport13TMemoryBufferENS1_17TNetworkBigEndianEE11writeBinaryERKNSt7__cxx1112basic_stringIcSt11char_traitsIcESaIcEEE
_ZN6apache6thrift8protocol16TBinaryProtocolTINS0_9transport13TMemoryBufferENS1_17TNetworkBigEndianEE16readMessageBeginERNSt7__cxx1112basic_stringIcSt11char_traitsIcESaIcEEERNS1_12TMessageTypeERi
_ZN6apache6thrift8protocol16TBinaryProtocolTINS0_9transport13TMemoryBufferENS1_17TNetworkBigEndianEE7readI32ERi
_ZN6apache6thrift8protocol18TProtocolExceptionC2ENS2_22TProtocolExceptionTypeERKNSt7__cxx1112basic_stringIcSt11char_traitsIcESaIcEEE
_ZN6apache6thrift8protocol16TBinaryProtocolTINS0_9transport13TMemoryBufferENS1_17TNetworkBigEndianEE10readStringINSt7__cxx1112basic_stringIcSt11char_traitsIcESaIcEEEEEjRT_
_ZN6apache6thrift8protocol16TBinaryProtocolTINS0_9transport13TMemoryBufferENS1_17TNetworkBigEndianEE14readStringBodyINSt7__cxx1112basic_stringIcSt11char_traitsIcESaIcEEEEEjRT_i
_ZN6apache6thrift8protocol16TBinaryProtocolTINS0_9transport13TMemoryBufferENS1_17TNetworkBigEndianEE8readByteERa
_ZN6apache6thrift8protocol17TNetworkBigEndian10fromWire32Ej
ntohl
_ZNSt7__cxx1112basic_stringIcSt11char_traitsIcESaIcEE5clearEv
_ZNSt7__cxx1112basic_stringIcSt11char_traitsIcESaIcEE6assignEPKcm
_ZNSt7__cxx1112basic_stringIcSt11char_traitsIcESaIcEE6resizeEm
_ZN6apache6thrift8protocol16TBinaryProtocolTINS0_9transport13TMemoryBufferENS1_17TNetworkBigEndianEE14readMessageEndEv
_ZN6apache6thrift8protocol16TBinaryProtocolTINS0_9transport13TMemoryBufferENS1_17TNetworkBigEndianEE15readStructBeginERNSt7__cxx1112basic_stringIcSt11char_traitsIcESaIcEEE
_ZN6apache6thrift8protocol16TBinaryProtocolTINS0_9transport13TMemoryBufferENS1_17TNetworkBigEndianEE13readStructEndEv
_ZN6apache6thrift8protocol16TBinaryProtocolTINS0_9transport13TMemoryBufferENS1_17TNetworkBigEndianEE14readFieldBeginERNSt7__cxx1112basic_stringIcSt11char_traitsIcESaIcEEERNS1_5TTypeERs
_ZN6apache6thrift8protocol16TBinaryProtocolTINS0_9transport13TMemoryBufferENS1_17TNetworkBigEndianEE7readI16ERs
_ZN6apache6thrift8protocol17TNetworkBigEndian10fromWire16Et
ntohs
_ZN6apache6thrift8protocol16TBinaryProtocolTINS0_9transport13TMemoryBufferENS1_17TNetworkBigEndianEE12readFieldEndEv
_ZN6apache6thrift8protocol16TBinaryProtocolTINS0_9transport13TMemoryBufferENS1_17TNetworkBigEndianEE12readMapBeginERNS1_5TTypeES8_Rj
_ZN6apache6thrift8protocol16TBinaryProtocolTINS0_9transport13TMemoryBufferENS1_17TNetworkBigEndianEE10readMapEndEv
_ZN6apache6thrift8protocol16TBinaryProtocolTINS0_9transport13TMemoryBufferENS1_17TNetworkBigEndianEE13readListBeginERNS1_5TTypeERj
_ZN6apache6thrift8protocol16TBinaryProtocolTINS0_9transport13TMemoryBufferENS1_17TNetworkBigEndianEE11readListEndEv
_ZN6apache6thrift8protocol16TBinaryProtocolTINS0_9transport13TMemoryBufferENS1_17TNetworkBigEndianEE12readSetBeginERNS1_5TTypeERj
_ZN6apache6thrift8protocol16TBinaryProtocolTINS0_9transport13TMemoryBufferENS1_17TNetworkBigEndianEE10readSetEndEv
_ZN6apache6thrift8protocol16TBinaryProtocolTINS0_9transport13TMemoryBufferENS1_17TNetworkBigEndianEE8readBoolERb
_ZN6apache6thrift8protocol16TVirtualProtocolINS1_16TBinaryProtocolTINS0_9transport13TMemoryBufferENS1_17TNetworkBigEndianEEENS1_17TProtocolDefaultsEE8readBoolESt14_Bit_reference
_ZNSt14_Bit_referenceaSEb
_ZN6apache6thrift8protocol16TBinaryProtocolTINS0_9transport13TMemoryBufferENS1_17TNetworkBigEndianEE7readI64ERl
_ZN6apache6thrift8protocol17TNetworkBigEndian10fromWire64Em
_ZN6apache6thrift8protocol16TBinaryProtocolTINS0_9transport13TMemoryBufferENS1_17TNetworkBigEndianEE10readDoubleERd
_ZL12bitwise_castIdmET_T0_
_ZN6apache6thrift8protocol16TBinaryProtocolTINS0_9transport13TMemoryBufferENS1_17TNetworkBigEndianEE10readBinaryERNSt7__cxx1112basic_stringIcSt11char_traitsIcESaIcEEE
_ZN6apache6thrift8protocol16TVirtualProtocolINS1_16TBinaryProtocolTINS0_9transport13TMemoryBufferENS1_17TNetworkBigEndianEEENS1_17TProtocolDefaultsEE4skipENS1_5TTypeE
_ZN6apache6thrift8protocol4skipINS1_16TBinaryProtocolTINS0_9transport13TMemoryBufferENS1_17TNetworkBigEndianEEEEEjRT_NS1_5TTypeE
_ZN6apache6thrift8protocol22TInputRecursionTrackerC2ERNS1_9TProtocolE
_ZN6apache6thrift8protocol22TInputRecursionTrackerD2Ev
_ZN6apache6thrift8protocol9TProtocol28incrementInputRecursionDepthEv
_ZN6apache6thrift8protocol9TProtocol28decrementInputRecursionDepthEv
_ZNSt12__shared_ptrIN6apache6thrift9transport10TTransportELN9__gnu_cxx12_Lock_policyE2EEC2ERKS6_
_ZN6apache6thrift8protocol16TVirtualProtocolINS1_16TBinaryProtocolTINS0_9transport10TTransportENS1_17TNetworkBigEndianEEENS1_17TProtocolDefaultsEEC2ESt10shared_ptrIS5_E
_ZN6apache6thrift8protocol16TBinaryProtocolTINS0_9transport10TTransportENS1_17TNetworkBigEndianEED2Ev
_ZN6apache6thrift8protocol16TBinaryProtocolTINS0_9transport10TTransportENS1_17TNetworkBigEndianEED0Ev
_ZN6apache6thrift8protocol16TVirtualProtocolINS1_16TBinaryProtocolTINS0_9transport10TTransportENS1_17TNetworkBigEndianEEENS1_17TProtocolDefaultsEE22writeMessageBegin_virtERKNSt7__cxx1112basic_stringIcSt11char_traitsIcESaIcEEENS1_12TMessageTypeEi
_ZN6apache6thrift8protocol16TVirtualProtocolINS1_16TBinaryProtocolTINS0_9transport10TTransportENS1_17TNetworkBigEndianEEENS1_17TProtocolDefaultsEE20writeMessageEnd_virtEv
_ZN6apache6thrift8protocol16TVirtualProtocolINS1_16TBinaryProtocolTINS0_9transport10TTransportENS1_17TNetworkBigEndianEEENS1_17TProtocolDefaultsEE21writeStructBegin_virtEPKc
_ZN6apache6thrift8protocol16TVirtualProtocolINS1_16TBinaryProtocolTINS0_9transport10TTransportENS1_17TNetworkBigEndianEEENS1_17TProtocolDefaultsEE19writeStructEnd_virtEv
_ZN6apache6thrift8protocol16TVirtualProtocolINS1_16TBinaryProtocolTINS0_9transport10TTransportENS1_17TNetworkBigEndianEEENS1_17TProtocolDefaultsEE20writeFieldBegin_virtEPKcNS1_5TTypeEs
_ZN6apache6thrift8protocol16TVirtualProtocolINS1_16TBinaryProtocolTINS0_9transport10TTransportENS1_17TNetworkBigEndianEEENS1_17TProtocolDefaultsEE18writeFieldEnd_virtEv
_ZN6apache6thrift8protocol16TVirtualProtocolINS1_16TBinaryProtocolTINS0_9transport10TTransportENS1_17TNetworkBigEndianEEENS1_17TProtocolDefaultsEE19writeFieldStop_virtEv
_ZN6apache6thrift8protocol16TVirtualProtocolINS1_16TBinaryProtocolTINS0_9transport10TTransportENS1_17TNetworkBigEndianEEENS1_17TProtocolDefaultsEE18writeMapBegin_virtENS1_5TTypeESA_j
_ZN6apache6thrift8protocol16TVirtualProtocolINS1_16TBinaryProtocolTINS0_9transport10TTransportENS1_17TNetworkBigEndianEEENS1_17TProtocolDefaultsEE16writeMapEnd_virtEv
_ZN6apache6thrift8protocol16TVirtualProtocolINS1_16TBinaryProtocolTINS0_9transport10TTransportENS1_17TNetworkBigEndianEEENS1_17TProtocolDefaultsEE19writeListBegin_virtENS1_5TTypeEj
_ZN6apache6thrift8protocol16TVirtualProtocolINS1_16TBinaryProtocolTINS0_9transport10TTransportENS1_17TNetworkBigEndianEEENS1_17TProtocolDefaultsEE17writeListEnd_virtEv
_ZN6apache6thrift8protocol16TVirtualProtocolINS1_16TBinaryProtocolTINS0_9transport10TTransportENS1_17TNetworkBigEndianEEENS1_17TProtocolDefaultsEE18writeSetBegin_virtENS1_5TTypeEj
_ZN6apache6thrift8protocol16TVirtualProtocolINS1_16TBinaryProtocolTINS0_9transport10TTransportENS1_17TNetworkBigEndianEEENS1_17TProtocolDefaultsEE16writeSetEnd_virtEv
_ZN6apache6thrift8protocol16TVirtualProtocolINS1_16TBinaryProtocolTINS0_9transport10TTransportENS1_17TNetworkBigEndianEEENS1_17TProtocolDefaultsEE14writeBool_virtEb
_ZN6apache6thrift8protocol16TVirtualProtocolINS1_16TBinaryProtocolTINS0_9transport10TTransportENS1_17TNetworkBigEndianEEENS1_17TProtocolDefaultsEE14writeByte_virtEa
_ZN6apache6thrift8protocol16TVirtualProtocolINS1_16TBinaryProtocolTINS0_9transport10TTransportENS1_17TNetworkBigEndianEEENS1_17TProtocolDefaultsEE13writeI16_virtEs
_ZN6apache6thrift8protocol16TVirtualProtocolINS1_16TBinaryProtocolTINS0_9transport10TTransportENS1_17TNetworkBigEndianEEENS1_17TProtocolDefaultsEE13writeI32_virtEi
_ZN6apache6thrift8protocol16TVirtualProtocolINS1_16TBinaryProtocolTINS0_9transport10TTransportENS1_17TNetworkBigEndianEEENS1_17TProtocolDefaultsEE13writeI64_virtEl
_ZN6apache6thrift8protocol16TVirtualProtocolINS1_16TBinaryProtocolTINS0_9transport10TTransportENS1_17TNetworkBigEndianEEENS1_17TProtocolDefaultsEE16writeDouble_virtEd
_ZN6apache6thrift8protocol16TVirtualProtocolINS1_16TBinaryProtocolTINS0_9transport10TTransportENS1_17TNetworkBigEndianEEENS1_17TProtocolDefaultsEE16writeString_virtERKNSt7__cxx1112basic_stringIcSt11char_traitsIcESaIcEEE
_ZN6apache6thrift8protocol16TVirtualProtocolINS1_16TBinaryProtocolTINS0_9transport10TTransportENS1_17TNetworkBigEndianEEENS1_17TProtocolDefaultsEE16writeBinary_virtERKNSt7__cxx1112basic_stringIcSt11char_traitsIcESaIcEEE
_ZN6apache6thrift8protocol16TVirtualProtocolINS1_16TBinaryProtocolTINS0_9transport10TTransportENS1_17TNetworkBigEndianEEENS1_17TProtocolDefaultsEE21readMessageBegin_virtERNSt7__cxx1112basic_stringIcSt11char_traitsIcESaIcEEERNS1_12TMessageTypeERi
_ZN6apache6thrift8protocol16TVirtualProtocolINS1_16TBinaryProtocolTINS0_9transport10TTransportENS1_17TNetworkBigEndianEEENS1_17TProtocolDefaultsEE19readMessageEnd_virtEv
_ZN6apache6thrift8protocol16TVirtualProtocolINS1_16TBinaryProtocolTINS0_9transport10TTransportENS1_17TNetworkBigEndianEEENS1_17TProtocolDefaultsEE20readStructBegin_virtERNSt7__cxx1112basic_stringIcSt11char_traitsIcESaIcEEE
_ZN6apache6thrift8protocol16TVirtualProtocolINS1_16TBinaryProtocolTINS0_9transport10TTransportENS1_17TNetworkBigEndianEEENS1_17TProtocolDefaultsEE18readStructEnd_virtEv
_ZN6apache6thrift8protocol16TVirtualProtocolINS1_16TBinaryProtocolTINS0_9transport10TTransportENS1_17TNetworkBigEndianEEENS1_17TProtocolDefaultsEE19readFieldBegin_virtERNSt7__cxx1112basic_stringIcSt11char_traitsIcESaIcEEERNS1_5TTypeERs
_ZN6apache6thrift8protocol16TVirtualProtocolINS1_16TBinaryProtocolTINS0_9transport10TTransportENS1_17TNetworkBigEndianEEENS1_17TProtocolDefaultsEE17readFieldEnd_virtEv
_ZN6apache6thrift8protocol16TVirtualProtocolINS1_16TBinaryProtocolTINS0_9transport10TTransportENS1_17TNetworkBigEndianEEENS1_17TProtocolDefaultsEE17readMapBegin_virtERNS1_5TTypeESB_Rj
_ZN6apache6thrift8protocol16TVirtualProtocolINS1_16TBinaryProtocolTINS0_9transport10TTransportENS1_17TNetworkBigEndianEEENS1_17TProtocolDefaultsEE15readMapEnd_virtEv
_ZN6apache6thrift8protocol16TVirtualProtocolINS1_16TBinaryProtocolTINS0_9transport10TTransportENS1_17TNetworkBigEndianEEENS1_17TProtocolDefaultsEE18readListBegin_virtERNS1_5TTypeERj
_ZN6apache6thrift8protocol16TVirtualProtocolINS1_16TBinaryProtocolTINS0_9transport10TTransportENS1_17TNetworkBigEndianEEENS1_17TProtocolDefaultsEE16readListEnd_virtEv
_ZN6apache6thrift8protocol16TVirtualProtocolINS1_16TBinaryProtocolTINS0_9transport10TTransportENS1_17TNetworkBigEndianEEENS1_17TProtocolDefaultsEE17readSetBegin_virtERNS1_5TTypeERj
_ZN6apache6thrift8protocol16TVirtualProtocolINS1_16TBinaryProtocolTINS0_9transport10TTransportENS1_17TNetworkBigEndianEEENS1_17TProtocolDefaultsEE15readSetEnd_virtEv
_ZN6apache6thrift8protocol16TVirtualProtocolINS1_16TBinaryProtocolTINS0_9transport10TTransportENS1_17TNetworkBigEndianEEENS1_17TProtocolDefaultsEE13readBool_virtERb
_ZN6apache6thrift8protocol16TVirtualProtocolINS1_16TBinaryProtocolTINS0_9transport10TTransportENS1_17TNetworkBigEndianEEENS1_17TProtocolDefaultsEE13readBool_virtESt14_Bit_reference
_ZN6apache6thrift8protocol16TVirtualProtocolINS1_16TBinaryProtocolTINS0_9transport10TTransportENS1_17TNetworkBigEndianEEENS1_17TProtocolDefaultsEE13readByte_virtERa
_ZN6apache6thrift8protocol16TVirtualProtocolINS1_16TBinaryProtocolTINS0_9transport10TTransportENS1_17TNetworkBigEndianEEENS1_17TProtocolDefaultsEE12readI16_virtERs
_ZN6apache6thrift8protocol16TVirtualProtocolINS1_16TBinaryProtocolTINS0_9transport10TTransportENS1_17TNetworkBigEndianEEENS1_17TProtocolDefaultsEE12readI32_virtERi
_ZN6apache6thrift8protocol16TVirtualProtocolINS1_16TBinaryProtocolTINS0_9transport10TTransportENS1_17TNetworkBigEndianEEENS1_17TProtocolDefaultsEE12readI64_virtERl
_ZN6apache6thrift8protocol16TVirtualProtocolINS1_16TBinaryProtocolTINS0_9transport10TTransportENS1_17TNetworkBigEndianEEENS1_17TProtocolDefaultsEE15readDouble_virtERd
_ZN6apache6thrift8protocol16TVirtualProtocolINS1_16TBinaryProtocolTINS0_9transport10TTransportENS1_17TNetworkBigEndianEEENS1_17TProtocolDefaultsEE15readString_virtERNSt7__cxx1112basic_stringIcSt11char_traitsIcESaIcEEE
_ZN6apache6thrift8protocol16TVirtualProtocolINS1_16TBinaryProtocolTINS0_9transport10TTransportENS1_17TNetworkBigEndianEEENS1_17TProtocolDefaultsEE15readBinary_virtERNSt7__cxx1112basic_stringIcSt11char_traitsIcESaIcEEE
_ZN6apache6thrift8protocol16TVirtualProtocolINS1_16TBinaryProtocolTINS0_9transport10TTransportENS1_17TNetworkBigEndianEEENS1_17TProtocolDefaultsEE9skip_virtENS1_5TTypeE
_ZN6apache6thrift8protocol16TVirtualProtocolINS1_16TBinaryProtocolTINS0_9transport10TTransportENS1_17TNetworkBigEndianEEENS1_17TProtocolDefaultsEED2Ev
_ZN6apache6thrift8protocol16TVirtualProtocolINS1_16TBinaryProtocolTINS0_9transport10TTransportENS1_17TNetworkBigEndianEEENS1_17TProtocolDefaultsEED0Ev
_ZN6apache6thrift8protocol16TBinaryProtocolTINS0_9transport10TTransportENS1_17TNetworkBigEndianEE17writeMessageBeginERKNSt7__cxx1112basic_stringIcSt11char_traitsIcESaIcEEENS1_12TMessageTypeEi
_ZN6apache6thrift8protocol16TBinaryProtocolTINS0_9transport10TTransportENS1_17TNetworkBigEndianEE8writeI32Ei
_ZN6apache6thrift8protocol16TBinaryProtocolTINS0_9transport10TTransportENS1_17TNetworkBigEndianEE11writeStringINSt7__cxx1112basic_stringIcSt11char_traitsIcESaIcEEEEEjRKT_
_ZN6apache6thrift8protocol16TBinaryProtocolTINS0_9transport10TTransportENS1_17TNetworkBigEndianEE9writeByteEa
_ZN6apache6thrift9transport10TTransport5writeEPKhj
_ZN6apache6thrift8protocol16TBinaryProtocolTINS0_9transport10TTransportENS1_17TNetworkBigEndianEE15writeMessageEndEv
_ZN6apache6thrift8protocol16TBinaryProtocolTINS0_9transport10TTransportENS1_17TNetworkBigEndianEE16writeStructBeginEPKc
_ZN6apache6thrift8protocol16TBinaryProtocolTINS0_9transport10TTransportENS1_17TNetworkBigEndianEE14writeStructEndEv
_ZN6apache6thrift8protocol16TBinaryProtocolTINS0_9transport10TTransportENS1_17TNetworkBigEndianEE15writeFieldBeginEPKcNS1_5TTypeEs
_ZN6apache6thrift8protocol16TBinaryProtocolTINS0_9transport10TTransportENS1_17TNetworkBigEndianEE8writeI16Es
_ZN6apache6thrift8protocol16TBinaryProtocolTINS0_9transport10TTransportENS1_17TNetworkBigEndianEE13writeFieldEndEv
_ZN6apache6thrift8protocol16TBinaryProtocolTINS0_9transport10TTransportENS1_17TNetworkBigEndianEE14writeFieldStopEv
_ZN6apache6thrift8protocol16TBinaryProtocolTINS0_9transport10TTransportENS1_17TNetworkBigEndianEE13writeMapBeginENS1_5TTypeES7_j
_ZN6apache6thrift8protocol16TBinaryProtocolTINS0_9transport10TTransportENS1_17TNetworkBigEndianEE11writeMapEndEv
_ZN6apache6thrift8protocol16TBinaryProtocolTINS0_9transport10TTransportENS1_17TNetworkBigEndianEE14writeListBeginENS1_5TTypeEj
_ZN6apache6thrift8protocol16TBinaryProtocolTINS0_9transport10TTransportENS1_17TNetworkBigEndianEE12writeListEndEv
_ZN6apache6thrift8protocol16TBinaryProtocolTINS0_9transport10TTransportENS1_17TNetworkBigEndianEE13writeSetBeginENS1_5TTypeEj
_ZN6apache6thrift8protocol16TBinaryProtocolTINS0_9transport10TTransportENS1_17TNetworkBigEndianEE11writeSetEndEv
_ZN6apache6thrift8protocol16TBinaryProtocolTINS0_9transport10TTransportENS1_17TNetworkBigEndianEE9writeBoolEb
_ZN6apache6thrift8protocol16TBinaryProtocolTINS0_9transport10TTransportENS1_17TNetworkBigEndianEE8writeI64El
_ZN6apache6thrift8protocol16TBinaryProtocolTINS0_9transport10TTransportENS1_17TNetworkBigEndianEE11writeDoubleEd
_ZN6apache6thrift8protocol16TBinaryProtocolTINS0_9transport10TTransportENS1_17TNetworkBigEndianEE11writeBinaryERKNSt7__cxx1112basic_stringIcSt11char_traitsIcESaIcEEE
_ZN6apache6thrift8protocol16TBinaryProtocolTINS0_9transport10TTransportENS1_17TNetworkBigEndianEE16readMessageBeginERNSt7__cxx1112basic_stringIcSt11char_traitsIcESaIcEEERNS1_12TMessageTypeERi
_ZN6apache6thrift8protocol16TBinaryProtocolTINS0_9transport10TTransportENS1_17TNetworkBigEndianEE7readI32ERi
_ZN6apache6thrift8protocol16TBinaryProtocolTINS0_9transport10TTransportENS1_17TNetworkBigEndianEE10readStringINSt7__cxx1112basic_stringIcSt11char_traitsIcESaIcEEEEEjRT_
_ZN6apache6thrift8protocol16TBinaryProtocolTINS0_9transport10TTransportENS1_17TNetworkBigEndianEE14readStringBodyINSt7__cxx1112basic_stringIcSt11char_traitsIcESaIcEEEEEjRT_i
_ZN6apache6thrift8protocol16TBinaryProtocolTINS0_9transport10TTransportENS1_17TNetworkBigEndianEE8readByteERa
_ZN6apache6thrift9transport10TTransport7readAllEPhj
_ZN6apache6thrift9transport10TTransport6borrowEPhPj
_ZN6apache6thrift9transport10TTransport7consumeEj
_ZN6apache6thrift8protocol16TBinaryProtocolTINS0_9transport10TTransportENS1_17TNetworkBigEndianEE14readMessageEndEv
_ZN6apache6thrift8protocol16TBinaryProtocolTINS0_9transport10TTransportENS1_17TNetworkBigEndianEE15readStructBeginERNSt7__cxx1112basic_stringIcSt11char_traitsIcESaIcEEE
_ZN6apache6thrift8protocol16TBinaryProtocolTINS0_9transport10TTransportENS1_17TNetworkBigEndianEE13readStructEndEv
_ZN6apache6thrift8protocol16TBinaryProtocolTINS0_9transport10TTransportENS1_17TNetworkBigEndianEE14readFieldBeginERNSt7__cxx1112basic_stringIcSt11char_traitsIcESaIcEEERNS1_5TTypeERs
_ZN6apache6thrift8protocol16TBinaryProtocolTINS0_9transport10TTransportENS1_17TNetworkBigEndianEE7readI16ERs
_ZN6apache6thrift8protocol16TBinaryProtocolTINS0_9transport10TTransportENS1_17TNetworkBigEndianEE12readFieldEndEv
_ZN6apache6thrift8protocol16TBinaryProtocolTINS0_9transport10TTransportENS1_17TNetworkBigEndianEE12readMapBeginERNS1_5TTypeES8_Rj
_ZN6apache6thrift8protocol16TBinaryProtocolTINS0_9transport10TTransportENS1_17TNetworkBigEndianEE10readMapEndEv
_ZN6apache6thrift8protocol16TBinaryProtocolTINS0_9transport10TTransportENS1_17TNetworkBigEndianEE13readListBeginERNS1_5TTypeERj
_ZN6apache6thrift8protocol16TBinaryProtocolTINS0_9transport10TTransportENS1_17TNetworkBigEndianEE11readListEndEv
_ZN6apache6thrift8protocol16TBinaryProtocolTINS0_9transport10TTransportENS1_17TNetworkBigEndianEE12readSetBeginERNS1_5TTypeERj
_ZN6apache6thrift8protocol16TBinaryProtocolTINS0_9transport10TTransportENS1_17TNetworkBigEndianEE10readSetEndEv
_ZN6apache6thrift8protocol16TBinaryProtocolTINS0_9transport10TTransportENS1_17TNetworkBigEndianEE8readBoolERb
_ZN6apache6thrift8protocol16TVirtualProtocolINS1_16TBinaryProtocolTINS0_9transport10TTransportENS1_17TNetworkBigEndianEEENS1_17TProtocolDefaultsEE8readBoolESt14_Bit_reference
_ZN6apache6thrift8protocol16TBinaryProtocolTINS0_9transport10TTransportENS1_17TNetworkBigEndianEE7readI64ERl
_ZN6apache6thrift8protocol16TBinaryProtocolTINS0_9transport10TTransportENS1_17TNetworkBigEndianEE10readDoubleERd
_ZN6apache6thrift8protocol16TBinaryProtocolTINS0_9transport10TTransportENS1_17TNetworkBigEndianEE10readBinaryERNSt7__cxx1112basic_stringIcSt11char_traitsIcESaIcEEE
_ZN6apache6thrift8protocol16TVirtualProtocolINS1_16TBinaryProtocolTINS0_9transport10TTransportENS1_17TNetworkBigEndianEEENS1_17TProtocolDefaultsEE4skipENS1_5TTypeE
_ZN6apache6thrift8protocol4skipINS1_16TBinaryProtocolTINS0_9transport10TTransportENS1_17TNetworkBigEndianEEEEEjRT_NS1_5TTypeE
_ZNSt12__shared_ptrIN6apache6thrift8protocol9TProtocolELN9__gnu_cxx12_Lock_policyE2EEC2IS3_vEEPT_
_ZNSt14__shared_countILN9__gnu_cxx12_Lock_policyE2EEC2IPN6apache6thrift8protocol9TProtocolEEET_St17integral_constantIbLb0EE
_ZNSt12__shared_ptrIN6apache6thrift8protocol9TProtocolELN9__gnu_cxx12_Lock_policyE2EE31_M_enable_shared_from_this_withIS3_S3_EENSt9enable_ifIXntsr15__has_esft_baseIT0_EE5valueEvE4typeEPT_
_ZNSt14__shared_countILN9__gnu_cxx12_Lock_policyE2EEC2IPN6apache6thrift8protocol9TProtocolEEET_
_ZNSt15_Sp_counted_ptrIPN6apache6thrift8protocol9TProtocolELN9__gnu_cxx12_Lock_policyE2EEC2ES4_
_ZNSt15_Sp_counted_ptrIPN6apache6thrift8protocol9TProtocolELN9__gnu_cxx12_Lock_policyE2EED2Ev
_ZNSt15_Sp_counted_ptrIPN6apache6thrift8protocol9TProtocolELN9__gnu_cxx12_Lock_policyE2EED0Ev
_ZNSt15_Sp_counted_ptrIPN6apache6thrift8protocol9TProtocolELN9__gnu_cxx12_Lock_policyE2EE10_M_disposeEv
_ZNSt15_Sp_counted_ptrIPN6apache6thrift8protocol9TProtocolELN9__gnu_cxx12_Lock_policyE2EE10_M_destroyEv
_ZNSt15_Sp_counted_ptrIPN6apache6thrift8protocol9TProtocolELN9__gnu_cxx12_Lock_policyE2EE14_M_get_deleterERKSt9type_info
_ZNSt12__shared_ptrIN6apache6thrift8protocol16TProtocolFactoryELN9__gnu_cxx12_Lock_policyE2EEC2INS2_23TBinaryProtocolFactoryTIN10FaasWorker21WorkerOutputTransportENS2_17TNetworkBigEndianEEEvEEPT_
_ZNSt14__shared_countILN9__gnu_cxx12_Lock_policyE2EEC2IPN6apache6thrift8protocol23TBinaryProtocolFactoryTIN10FaasWorker21WorkerOutputTransportENS6_17TNetworkBigEndianEEEEET_St17integral_constantIbLb0EE
_ZNSt12__shared_ptrIN6apache6thrift8protocol16TProtocolFactoryELN9__gnu_cxx12_Lock_policyE2EE31_M_enable_shared_from_this_withINS2_23TBinaryProtocolFactoryTIN10FaasWorker21WorkerOutputTransportENS2_17TNetworkBigEndianEEESC_EENSt9enable_ifIXntsr15__has_esft_baseIT0_EE5valueEvE4typeEPT_
_ZNSt14__shared_countILN9__gnu_cxx12_Lock_policyE2EEC2IPN6apache6thrift8protocol23TBinaryProtocolFactoryTIN10FaasWorker21WorkerOutputTransportENS6_17TNetworkBigEndianEEEEET_
_ZNSt15_Sp_counted_ptrIPN6apache6thrift8protocol23TBinaryProtocolFactoryTIN10FaasWorker21WorkerOutputTransportENS2_17TNetworkBigEndianEEELN9__gnu_cxx12_Lock_policyE2EEC2ES8_
_ZNSt15_Sp_counted_ptrIPN6apache6thrift8protocol23TBinaryProtocolFactoryTIN10FaasWorker21WorkerOutputTransportENS2_17TNetworkBigEndianEEELN9__gnu_cxx12_Lock_policyE2EED2Ev
_ZNSt15_Sp_counted_ptrIPN6apache6thrift8protocol23TBinaryProtocolFactoryTIN10FaasWorker21WorkerOutputTransportENS2_17TNetworkBigEndianEEELN9__gnu_cxx12_Lock_policyE2EED0Ev
_ZNSt15_Sp_counted_ptrIPN6apache6thrift8protocol23TBinaryProtocolFactoryTIN10FaasWorker21WorkerOutputTransportENS2_17TNetworkBigEndianEEELN9__gnu_cxx12_Lock_policyE2EE10_M_disposeEv
_ZNSt15_Sp_counted_ptrIPN6apache6thrift8protocol23TBinaryProtocolFactoryTIN10FaasWorker21WorkerOutputTransportENS2_17TNetworkBigEndianEEELN9__gnu_cxx12_Lock_policyE2EE10_M_destroyEv
_ZNSt15_Sp_counted_ptrIPN6apache6thrift8protocol23TBinaryProtocolFactoryTIN10FaasWorker21WorkerOutputTransportENS2_17TNetworkBigEndianEEELN9__gnu_cxx12_Lock_policyE2EE14_M_get_deleterERKSt9type_info
_ZN6apache6thrift8protocol23TBinaryProtocolFactoryTIN10FaasWorker21WorkerOutputTransportENS1_17TNetworkBigEndianEED2Ev
_ZN6apache6thrift8protocol23TBinaryProtocolFactoryTIN10FaasWorker21WorkerOutputTransportENS1_17TNetworkBigEndianEED0Ev
_ZN6apache6thrift8protocol23TBinaryProtocolFactoryTIN10FaasWorker21WorkerOutputTransportENS1_17TNetworkBigEndianEE11getProtocolESt10shared_ptrINS0_9transport10TTransportEE
_ZSt20dynamic_pointer_castIN10FaasWorker21WorkerOutputTransportEN6apache6thrift9transport10TTransportEESt10shared_ptrIT_ERKS6_IT0_E
_ZNKSt12__shared_ptrIN10FaasWorker21WorkerOutputTransportELN9__gnu_cxx12_Lock_policyE2EEcvbEv
_ZNSt10shared_ptrIN10FaasWorker21WorkerOutputTransportEEC2ERKS2_
_ZN6apache6thrift8protocol16TBinaryProtocolTIN10FaasWorker21WorkerOutputTransportENS1_17TNetworkBigEndianEEC2ESt10shared_ptrIS4_Eiibb
_ZNSt10shared_ptrIN10FaasWorker21WorkerOutputTransportEED2Ev
_ZNSt10shared_ptrIN10FaasWorker21WorkerOutputTransportEEC2IN6apache6thrift9transport10TTransportEEERKS_IT_EPS1_
_ZNSt10shared_ptrIN10FaasWorker21WorkerOutputTransportEEC2Ev
_ZNSt12__shared_ptrIN10FaasWorker21WorkerOutputTransportELN9__gnu_cxx12_Lock_policyE2EEC2IN6apache6thrift9transport10TTransportEEERKS_IT_LS3_2EEPS1_
_ZNSt12__shared_ptrIN10FaasWorker21WorkerOutputTransportELN9__gnu_cxx12_Lock_policyE2EEC2Ev
_ZNSt12__shared_ptrIN10FaasWorker21WorkerOutputTransportELN9__gnu_cxx12_Lock_policyE2EEC2ERKS4_
_ZNSt10shared_ptrIN6apache6thrift9transport10TTransportEEC2IN10FaasWorker21WorkerOutputTransportEvEERKS_IT_E
_ZN6apache6thrift8protocol16TVirtualProtocolINS1_16TBinaryProtocolTIN10FaasWorker21WorkerOutputTransportENS1_17TNetworkBigEndianEEENS1_17TProtocolDefaultsEEC2ESt10shared_ptrINS0_9transport10TTransportEE
_ZNKSt12__shared_ptrIN10FaasWorker21WorkerOutputTransportELN9__gnu_cxx12_Lock_policyE2EE3getEv
_ZN6apache6thrift8protocol16TBinaryProtocolTIN10FaasWorker21WorkerOutputTransportENS1_17TNetworkBigEndianEED2Ev
_ZN6apache6thrift8protocol16TBinaryProtocolTIN10FaasWorker21WorkerOutputTransportENS1_17TNetworkBigEndianEED0Ev
_ZN6apache6thrift8protocol16TVirtualProtocolINS1_16TBinaryProtocolTIN10FaasWorker21WorkerOutputTransportENS1_17TNetworkBigEndianEEENS1_17TProtocolDefaultsEE22writeMessageBegin_virtERKNSt7__cxx1112basic_stringIcSt11char_traitsIcESaIcEEENS1_12TMessageTypeEi
_ZN6apache6thrift8protocol16TVirtualProtocolINS1_16TBinaryProtocolTIN10FaasWorker21WorkerOutputTransportENS1_17TNetworkBigEndianEEENS1_17TProtocolDefaultsEE20writeMessageEnd_virtEv
_ZN6apache6thrift8protocol16TVirtualProtocolINS1_16TBinaryProtocolTIN10FaasWorker21WorkerOutputTransportENS1_17TNetworkBigEndianEEENS1_17TProtocolDefaultsEE21writeStructBegin_virtEPKc
_ZN6apache6thrift8protocol16TVirtualProtocolINS1_16TBinaryProtocolTIN10FaasWorker21WorkerOutputTransportENS1_17TNetworkBigEndianEEENS1_17TProtocolDefaultsEE19writeStructEnd_virtEv
_ZN6apache6thrift8protocol16TVirtualProtocolINS1_16TBinaryProtocolTIN10FaasWorker21WorkerOutputTransportENS1_17TNetworkBigEndianEEENS1_17TProtocolDefaultsEE20writeFieldBegin_virtEPKcNS1_5TTypeEs
_ZN6apache6thrift8protocol16TVirtualProtocolINS1_16TBinaryProtocolTIN10FaasWorker21WorkerOutputTransportENS1_17TNetworkBigEndianEEENS1_17TProtocolDefaultsEE18writeFieldEnd_virtEv
_ZN6apache6thrift8protocol16TVirtualProtocolINS1_16TBinaryProtocolTIN10FaasWorker21WorkerOutputTransportENS1_17TNetworkBigEndianEEENS1_17TProtocolDefaultsEE19writeFieldStop_virtEv
_ZN6apache6thrift8protocol16TVirtualProtocolINS1_16TBinaryProtocolTIN10FaasWorker21WorkerOutputTransportENS1_17TNetworkBigEndianEEENS1_17TProtocolDefaultsEE18writeMapBegin_virtENS1_5TTypeESA_j
_ZN6apache6thrift8protocol16TVirtualProtocolINS1_16TBinaryProtocolTIN10FaasWorker21WorkerOutputTransportENS1_17TNetworkBigEndianEEENS1_17TProtocolDefaultsEE16writeMapEnd_virtEv
_ZN6apache6thrift8protocol16TVirtualProtocolINS1_16TBinaryProtocolTIN10FaasWorker21WorkerOutputTransportENS1_17TNetworkBigEndianEEENS1_17TProtocolDefaultsEE19writeListBegin_virtENS1_5TTypeEj
_ZN6apache6thrift8protocol16TVirtualProtocolINS1_16TBinaryProtocolTIN10FaasWorker21WorkerOutputTransportENS1_17TNetworkBigEndianEEENS1_17TProtocolDefaultsEE17writeListEnd_virtEv
_ZN6apache6thrift8protocol16TVirtualProtocolINS1_16TBinaryProtocolTIN10FaasWorker21WorkerOutputTransportENS1_17TNetworkBigEndianEEENS1_17TProtocolDefaultsEE18writeSetBegin_virtENS1_5TTypeEj
_ZN6apache6thrift8protocol16TVirtualProtocolINS1_16TBinaryProtocolTIN10FaasWorker21WorkerOutputTransportENS1_17TNetworkBigEndianEEENS1_17TProtocolDefaultsEE16writeSetEnd_virtEv
_ZN6apache6thrift8protocol16TVirtualProtocolINS1_16TBinaryProtocolTIN10FaasWorker21WorkerOutputTransportENS1_17TNetworkBigEndianEEENS1_17TProtocolDefaultsEE14writeBool_virtEb
_ZN6apache6thrift8protocol16TVirtualProtocolINS1_16TBinaryProtocolTIN10FaasWorker21WorkerOutputTransportENS1_17TNetworkBigEndianEEENS1_17TProtocolDefaultsEE14writeByte_virtEa
_ZN6apache6thrift8protocol16TVirtualProtocolINS1_16TBinaryProtocolTIN10FaasWorker21WorkerOutputTransportENS1_17TNetworkBigEndianEEENS1_17TProtocolDefaultsEE13writeI16_virtEs
_ZN6apache6thrift8protocol16TVirtualProtocolINS1_16TBinaryProtocolTIN10FaasWorker21WorkerOutputTransportENS1_17TNetworkBigEndianEEENS1_17TProtocolDefaultsEE13writeI32_virtEi
_ZN6apache6thrift8protocol16TVirtualProtocolINS1_16TBinaryProtocolTIN10FaasWorker21WorkerOutputTransportENS1_17TNetworkBigEndianEEENS1_17TProtocolDefaultsEE13writeI64_virtEl
_ZN6apache6thrift8protocol16TVirtualProtocolINS1_16TBinaryProtocolTIN10FaasWorker21WorkerOutputTransportENS1_17TNetworkBigEndianEEENS1_17TProtocolDefaultsEE16writeDouble_virtEd
_ZN6apache6thrift8protocol16TVirtualProtocolINS1_16TBinaryProtocolTIN10FaasWorker21WorkerOutputTransportENS1_17TNetworkBigEndianEEENS1_17TProtocolDefaultsEE16writeString_virtERKNSt7__cxx1112basic_stringIcSt11char_traitsIcESaIcEEE
_ZN6apache6thrift8protocol16TVirtualProtocolINS1_16TBinaryProtocolTIN10FaasWorker21WorkerOutputTransportENS1_17TNetworkBigEndianEEENS1_17TProtocolDefaultsEE16writeBinary_virtERKNSt7__cxx1112basic_stringIcSt11char_traitsIcESaIcEEE
_ZN6apache6thrift8protocol16TVirtualProtocolINS1_16TBinaryProtocolTIN10FaasWorker21WorkerOutputTransportENS1_17TNetworkBigEndianEEENS1_17TProtocolDefaultsEE21readMessageBegin_virtERNSt7__cxx1112basic_stringIcSt11char_traitsIcESaIcEEERNS1_12TMessageTypeERi
_ZN6apache6thrift8protocol16TVirtualProtocolINS1_16TBinaryProtocolTIN10FaasWorker21WorkerOutputTransportENS1_17TNetworkBigEndianEEENS1_17TProtocolDefaultsEE19readMessageEnd_virtEv
_ZN6apache6thrift8protocol16TVirtualProtocolINS1_16TBinaryProtocolTIN10FaasWorker21WorkerOutputTransportENS1_17TNetworkBigEndianEEENS1_17TProtocolDefaultsEE20readStructBegin_virtERNSt7__cxx1112basic_stringIcSt11char_traitsIcESaIcEEE
_ZN6apache6thrift8protocol16TVirtualProtocolINS1_16TBinaryProtocolTIN10FaasWorker21WorkerOutputTransportENS1_17TNetworkBigEndianEEENS1_17TProtocolDefaultsEE18readStructEnd_virtEv
_ZN6apache6thrift8protocol16TVirtualProtocolINS1_16TBinaryProtocolTIN10FaasWorker21WorkerOutputTransportENS1_17TNetworkBigEndianEEENS1_17TProtocolDefaultsEE19readFieldBegin_virtERNSt7__cxx1112basic_stringIcSt11char_traitsIcESaIcEEERNS1_5TTypeERs
_ZN6apache6thrift8protocol16TVirtualProtocolINS1_16TBinaryProtocolTIN10FaasWorker21WorkerOutputTransportENS1_17TNetworkBigEndianEEENS1_17TProtocolDefaultsEE17readFieldEnd_virtEv
_ZN6apache6thrift8protocol16TVirtualProtocolINS1_16TBinaryProtocolTIN10FaasWorker21WorkerOutputTransportENS1_17TNetworkBigEndianEEENS1_17TProtocolDefaultsEE17readMapBegin_virtERNS1_5TTypeESB_Rj
_ZN6apache6thrift8protocol16TVirtualProtocolINS1_16TBinaryProtocolTIN10FaasWorker21WorkerOutputTransportENS1_17TNetworkBigEndianEEENS1_17TProtocolDefaultsEE15readMapEnd_virtEv
_ZN6apache6thrift8protocol16TVirtualProtocolINS1_16TBinaryProtocolTIN10FaasWorker21WorkerOutputTransportENS1_17TNetworkBigEndianEEENS1_17TProtocolDefaultsEE18readListBegin_virtERNS1_5TTypeERj
_ZN6apache6thrift8protocol16TVirtualProtocolINS1_16TBinaryProtocolTIN10FaasWorker21WorkerOutputTransportENS1_17TNetworkBigEndianEEENS1_17TProtocolDefaultsEE16readListEnd_virtEv
_ZN6apache6thrift8protocol16TVirtualProtocolINS1_16TBinaryProtocolTIN10FaasWorker21WorkerOutputTransportENS1_17TNetworkBigEndianEEENS1_17TProtocolDefaultsEE17readSetBegin_virtERNS1_5TTypeERj
_ZN6apache6thrift8protocol16TVirtualProtocolINS1_16TBinaryProtocolTIN10FaasWorker21WorkerOutputTransportENS1_17TNetworkBigEndianEEENS1_17TProtocolDefaultsEE15readSetEnd_virtEv
_ZN6apache6thrift8protocol16TVirtualProtocolINS1_16TBinaryProtocolTIN10FaasWorker21WorkerOutputTransportENS1_17TNetworkBigEndianEEENS1_17TProtocolDefaultsEE13readBool_virtERb
_ZN6apache6thrift8protocol16TVirtualProtocolINS1_16TBinaryProtocolTIN10FaasWorker21WorkerOutputTransportENS1_17TNetworkBigEndianEEENS1_17TProtocolDefaultsEE13readBool_virtESt14_Bit_reference
_ZN6apache6thrift8protocol16TVirtualProtocolINS1_16TBinaryProtocolTIN10FaasWorker21WorkerOutputTransportENS1_17TNetworkBigEndianEEENS1_17TProtocolDefaultsEE13readByte_virtERa
_ZN6apache6thrift8protocol16TVirtualProtocolINS1_16TBinaryProtocolTIN10FaasWorker21WorkerOutputTransportENS1_17TNetworkBigEndianEEENS1_17TProtocolDefaultsEE12readI16_virtERs
_ZN6apache6thrift8protocol16TVirtualProtocolINS1_16TBinaryProtocolTIN10FaasWorker21WorkerOutputTransportENS1_17TNetworkBigEndianEEENS1_17TProtocolDefaultsEE12readI32_virtERi
_ZN6apache6thrift8protocol16TVirtualProtocolINS1_16TBinaryProtocolTIN10FaasWorker21WorkerOutputTransportENS1_17TNetworkBigEndianEEENS1_17TProtocolDefaultsEE12readI64_virtERl
_ZN6apache6thrift8protocol16TVirtualProtocolINS1_16TBinaryProtocolTIN10FaasWorker21WorkerOutputTransportENS1_17TNetworkBigEndianEEENS1_17TProtocolDefaultsEE15readDouble_virtERd
_ZN6apache6thrift8protocol16TVirtualProtocolINS1_16TBinaryProtocolTIN10FaasWorker21WorkerOutputTransportENS1_17TNetworkBigEndianEEENS1_17TProtocolDefaultsEE15readString_virtERNSt7__cxx1112basic_stringIcSt11char_traitsIcESaIcEEE
_ZN6apache6thrift8protocol16TVirtualProtocolINS1_16TBinaryProtocolTIN10FaasWorker21WorkerOutputTransportENS1_17TNetworkBigEndianEEENS1_17TProtocolDefaultsEE15readBinary_virtERNSt7__cxx1112basic_stringIcSt11char_traitsIcESaIcEEE
_ZN6apache6thrift8protocol16TVirtualProtocolINS1_16TBinaryProtocolTIN10FaasWorker21WorkerOutputTransportENS1_17TNetworkBigEndianEEENS1_17TProtocolDefaultsEE9skip_virtENS1_5TTypeE
_ZNSt12__shared_ptrIN6apache6thrift9transport10TTransportELN9__gnu_cxx12_Lock_policyE2EEC2IN10FaasWorker21WorkerOutputTransportEvEERKS_IT_LS5_2EE
_ZN6apache6thrift8protocol16TVirtualProtocolINS1_16TBinaryProtocolTIN10FaasWorker21WorkerOutputTransportENS1_17TNetworkBigEndianEEENS1_17TProtocolDefaultsEED2Ev
_ZN6apache6thrift8protocol16TVirtualProtocolINS1_16TBinaryProtocolTIN10FaasWorker21WorkerOutputTransportENS1_17TNetworkBigEndianEEENS1_17TProtocolDefaultsEED0Ev
_ZN6apache6thrift8protocol16TBinaryProtocolTIN10FaasWorker21WorkerOutputTransportENS1_17TNetworkBigEndianEE17writeMessageBeginERKNSt7__cxx1112basic_stringIcSt11char_traitsIcESaIcEEENS1_12TMessageTypeEi
_ZN6apache6thrift8protocol16TBinaryProtocolTIN10FaasWorker21WorkerOutputTransportENS1_17TNetworkBigEndianEE8writeI32Ei
_ZN6apache6thrift8protocol16TBinaryProtocolTIN10FaasWorker21WorkerOutputTransportENS1_17TNetworkBigEndianEE11writeStringINSt7__cxx1112basic_stringIcSt11char_traitsIcESaIcEEEEEjRKT_
_ZN6apache6thrift8protocol16TBinaryProtocolTIN10FaasWorker21WorkerOutputTransportENS1_17TNetworkBigEndianEE9writeByteEa
_ZN6apache6thrift8protocol16TBinaryProtocolTIN10FaasWorker21WorkerOutputTransportENS1_17TNetworkBigEndianEE15writeMessageEndEv
_ZN6apache6thrift8protocol16TBinaryProtocolTIN10FaasWorker21WorkerOutputTransportENS1_17TNetworkBigEndianEE16writeStructBeginEPKc
_ZN6apache6thrift8protocol16TBinaryProtocolTIN10FaasWorker21WorkerOutputTransportENS1_17TNetworkBigEndianEE14writeStructEndEv
_ZN6apache6thrift8protocol16TBinaryProtocolTIN10FaasWorker21WorkerOutputTransportENS1_17TNetworkBigEndianEE15writeFieldBeginEPKcNS1_5TTypeEs
_ZN6apache6thrift8protocol16TBinaryProtocolTIN10FaasWorker21WorkerOutputTransportENS1_17TNetworkBigEndianEE8writeI16Es
_ZN6apache6thrift8protocol16TBinaryProtocolTIN10FaasWorker21WorkerOutputTransportENS1_17TNetworkBigEndianEE13writeFieldEndEv
_ZN6apache6thrift8protocol16TBinaryProtocolTIN10FaasWorker21WorkerOutputTransportENS1_17TNetworkBigEndianEE14writeFieldStopEv
_ZN6apache6thrift8protocol16TBinaryProtocolTIN10FaasWorker21WorkerOutputTransportENS1_17TNetworkBigEndianEE13writeMapBeginENS1_5TTypeES7_j
_ZN6apache6thrift8protocol16TBinaryProtocolTIN10FaasWorker21WorkerOutputTransportENS1_17TNetworkBigEndianEE11writeMapEndEv
_ZN6apache6thrift8protocol16TBinaryProtocolTIN10FaasWorker21WorkerOutputTransportENS1_17TNetworkBigEndianEE14writeListBeginENS1_5TTypeEj
_ZN6apache6thrift8protocol16TBinaryProtocolTIN10FaasWorker21WorkerOutputTransportENS1_17TNetworkBigEndianEE12writeListEndEv
_ZN6apache6thrift8protocol16TBinaryProtocolTIN10FaasWorker21WorkerOutputTransportENS1_17TNetworkBigEndianEE13writeSetBeginENS1_5TTypeEj
_ZN6apache6thrift8protocol16TBinaryProtocolTIN10FaasWorker21WorkerOutputTransportENS1_17TNetworkBigEndianEE11writeSetEndEv
_ZN6apache6thrift8protocol16TBinaryProtocolTIN10FaasWorker21WorkerOutputTransportENS1_17TNetworkBigEndianEE9writeBoolEb
_ZN6apache6thrift8protocol16TBinaryProtocolTIN10FaasWorker21WorkerOutputTransportENS1_17TNetworkBigEndianEE8writeI64El
_ZN6apache6thrift8protocol16TBinaryProtocolTIN10FaasWorker21WorkerOutputTransportENS1_17TNetworkBigEndianEE11writeDoubleEd
_ZN6apache6thrift8protocol16TBinaryProtocolTIN10FaasWorker21WorkerOutputTransportENS1_17TNetworkBigEndianEE11writeBinaryERKNSt7__cxx1112basic_stringIcSt11char_traitsIcESaIcEEE
_ZN6apache6thrift8protocol16TBinaryProtocolTIN10FaasWorker21WorkerOutputTransportENS1_17TNetworkBigEndianEE16readMessageBeginERNSt7__cxx1112basic_stringIcSt11char_traitsIcESaIcEEERNS1_12TMessageTypeERi
_ZN6apache6thrift8protocol16TBinaryProtocolTIN10FaasWorker21WorkerOutputTransportENS1_17TNetworkBigEndianEE7readI32ERi
_ZN6apache6thrift8protocol16TBinaryProtocolTIN10FaasWorker21WorkerOutputTransportENS1_17TNetworkBigEndianEE10readStringINSt7__cxx1112basic_stringIcSt11char_traitsIcESaIcEEEEEjRT_
_ZN6apache6thrift8protocol16TBinaryProtocolTIN10FaasWorker21WorkerOutputTransportENS1_17TNetworkBigEndianEE14readStringBodyINSt7__cxx1112basic_stringIcSt11char_traitsIcESaIcEEEEEjRT_i
_ZN6apache6thrift8protocol16TBinaryProtocolTIN10FaasWorker21WorkerOutputTransportENS1_17TNetworkBigEndianEE8readByteERa
_ZN6apache6thrift8protocol16TBinaryProtocolTIN10FaasWorker21WorkerOutputTransportENS1_17TNetworkBigEndianEE14readMessageEndEv
_ZN6apache6thrift8protocol16TBinaryProtocolTIN10FaasWorker21WorkerOutputTransportENS1_17TNetworkBigEndianEE15readStructBeginERNSt7__cxx1112basic_stringIcSt11char_traitsIcESaIcEEE
_ZN6apache6thrift8protocol16TBinaryProtocolTIN10FaasWorker21WorkerOutputTransportENS1_17TNetworkBigEndianEE13readStructEndEv
_ZN6apache6thrift8protocol16TBinaryProtocolTIN10FaasWorker21WorkerOutputTransportENS1_17TNetworkBigEndianEE14readFieldBeginERNSt7__cxx1112basic_stringIcSt11char_traitsIcESaIcEEERNS1_5TTypeERs
_ZN6apache6thrift8protocol16TBinaryProtocolTIN10FaasWorker21WorkerOutputTransportENS1_17TNetworkBigEndianEE7readI16ERs
_ZN6apache6thrift8protocol16TBinaryProtocolTIN10FaasWorker21WorkerOutputTransportENS1_17TNetworkBigEndianEE12readFieldEndEv
_ZN6apache6thrift8protocol16TBinaryProtocolTIN10FaasWorker21WorkerOutputTransportENS1_17TNetworkBigEndianEE12readMapBeginERNS1_5TTypeES8_Rj
_ZN6apache6thrift8protocol16TBinaryProtocolTIN10FaasWorker21WorkerOutputTransportENS1_17TNetworkBigEndianEE10readMapEndEv
_ZN6apache6thrift8protocol16TBinaryProtocolTIN10FaasWorker21WorkerOutputTransportENS1_17TNetworkBigEndianEE13readListBeginERNS1_5TTypeERj
_ZN6apache6thrift8protocol16TBinaryProtocolTIN10FaasWorker21WorkerOutputTransportENS1_17TNetworkBigEndianEE11readListEndEv
_ZN6apache6thrift8protocol16TBinaryProtocolTIN10FaasWorker21WorkerOutputTransportENS1_17TNetworkBigEndianEE12readSetBeginERNS1_5TTypeERj
_ZN6apache6thrift8protocol16TBinaryProtocolTIN10FaasWorker21WorkerOutputTransportENS1_17TNetworkBigEndianEE10readSetEndEv
_ZN6apache6thrift8protocol16TBinaryProtocolTIN10FaasWorker21WorkerOutputTransportENS1_17TNetworkBigEndianEE8readBoolERb
_ZN6apache6thrift8protocol16TVirtualProtocolINS1_16TBinaryProtocolTIN10FaasWorker21WorkerOutputTransportENS1_17TNetworkBigEndianEEENS1_17TProtocolDefaultsEE8readBoolESt14_Bit_reference
_ZN6apache6thrift8protocol16TBinaryProtocolTIN10FaasWorker21WorkerOutputTransportENS1_17TNetworkBigEndianEE7readI64ERl
_ZN6apache6thrift8protocol16TBinaryProtocolTIN10FaasWorker21WorkerOutputTransportENS1_17TNetworkBigEndianEE10readDoubleERd
_ZN6apache6thrift8protocol16TBinaryProtocolTIN10FaasWorker21WorkerOutputTransportENS1_17TNetworkBigEndianEE10readBinaryERNSt7__cxx1112basic_stringIcSt11char_traitsIcESaIcEEE
_ZN6apache6thrift8protocol16TVirtualProtocolINS1_16TBinaryProtocolTIN10FaasWorker21WorkerOutputTransportENS1_17TNetworkBigEndianEEENS1_17TProtocolDefaultsEE4skipENS1_5TTypeE
_ZN6apache6thrift8protocol4skipINS1_16TBinaryProtocolTIN10FaasWorker21WorkerOutputTransportENS1_17TNetworkBigEndianEEEEEjRT_NS1_5TTypeE
_ZNSt12__shared_ptrIN10FaasWorker21WorkerOutputTransportELN9__gnu_cxx12_Lock_policyE2EED2Ev
_ZNSt12__shared_ptrIN6apache6thrift8protocol16TProtocolFactoryELN9__gnu_cxx12_Lock_policyE2EEC2INS2_23TBinaryProtocolFactoryTIN10FaasWorker15ClientTransportENS2_17TNetworkBigEndianEEEvEEPT_
_ZNSt14__shared_countILN9__gnu_cxx12_Lock_policyE2EEC2IPN6apache6thrift8protocol23TBinaryProtocolFactoryTIN10FaasWorker15ClientTransportENS6_17TNetworkBigEndianEEEEET_St17integral_constantIbLb0EE
_ZNSt12__shared_ptrIN6apache6thrift8protocol16TProtocolFactoryELN9__gnu_cxx12_Lock_policyE2EE31_M_enable_shared_from_this_withINS2_23TBinaryProtocolFactoryTIN10FaasWorker15ClientTransportENS2_17TNetworkBigEndianEEESC_EENSt9enable_ifIXntsr15__has_esft_baseIT0_EE5valueEvE4typeEPT_
_ZNSt14__shared_countILN9__gnu_cxx12_Lock_policyE2EEC2IPN6apache6thrift8protocol23TBinaryProtocolFactoryTIN10FaasWorker15ClientTransportENS6_17TNetworkBigEndianEEEEET_
_ZNSt15_Sp_counted_ptrIPN6apache6thrift8protocol23TBinaryProtocolFactoryTIN10FaasWorker15ClientTransportENS2_17TNetworkBigEndianEEELN9__gnu_cxx12_Lock_policyE2EEC2ES8_
_ZNSt15_Sp_counted_ptrIPN6apache6thrift8protocol23TBinaryProtocolFactoryTIN10FaasWorker15ClientTransportENS2_17TNetworkBigEndianEEELN9__gnu_cxx12_Lock_policyE2EED2Ev
_ZNSt15_Sp_counted_ptrIPN6apache6thrift8protocol23TBinaryProtocolFactoryTIN10FaasWorker15ClientTransportENS2_17TNetworkBigEndianEEELN9__gnu_cxx12_Lock_policyE2EED0Ev
_ZNSt15_Sp_counted_ptrIPN6apache6thrift8protocol23TBinaryProtocolFactoryTIN10FaasWorker15ClientTransportENS2_17TNetworkBigEndianEEELN9__gnu_cxx12_Lock_policyE2EE10_M_disposeEv
_ZNSt15_Sp_counted_ptrIPN6apache6thrift8protocol23TBinaryProtocolFactoryTIN10FaasWorker15ClientTransportENS2_17TNetworkBigEndianEEELN9__gnu_cxx12_Lock_policyE2EE10_M_destroyEv
_ZNSt15_Sp_counted_ptrIPN6apache6thrift8protocol23TBinaryProtocolFactoryTIN10FaasWorker15ClientTransportENS2_17TNetworkBigEndianEEELN9__gnu_cxx12_Lock_policyE2EE14_M_get_deleterERKSt9type_info
_ZN6apache6thrift8protocol23TBinaryProtocolFactoryTIN10FaasWorker15ClientTransportENS1_17TNetworkBigEndianEED2Ev
_ZN6apache6thrift8protocol23TBinaryProtocolFactoryTIN10FaasWorker15ClientTransportENS1_17TNetworkBigEndianEED0Ev
_ZN6apache6thrift8protocol23TBinaryProtocolFactoryTIN10FaasWorker15ClientTransportENS1_17TNetworkBigEndianEE11getProtocolESt10shared_ptrINS0_9transport10TTransportEE
_ZSt20dynamic_pointer_castIN10FaasWorker15ClientTransportEN6apache6thrift9transport10TTransportEESt10shared_ptrIT_ERKS6_IT0_E
_ZNKSt12__shared_ptrIN10FaasWorker15ClientTransportELN9__gnu_cxx12_Lock_policyE2EEcvbEv
_ZNSt10shared_ptrIN10FaasWorker15ClientTransportEEC2ERKS2_
_ZN6apache6thrift8protocol16TBinaryProtocolTIN10FaasWorker15ClientTransportENS1_17TNetworkBigEndianEEC2ESt10shared_ptrIS4_Eiibb
_ZNSt10shared_ptrIN10FaasWorker15ClientTransportEED2Ev
_ZNSt10shared_ptrIN10FaasWorker15ClientTransportEEC2IN6apache6thrift9transport10TTransportEEERKS_IT_EPS1_
_ZNSt10shared_ptrIN10FaasWorker15ClientTransportEEC2Ev
_ZNSt12__shared_ptrIN10FaasWorker15ClientTransportELN9__gnu_cxx12_Lock_policyE2EEC2IN6apache6thrift9transport10TTransportEEERKS_IT_LS3_2EEPS1_
_ZNSt12__shared_ptrIN10FaasWorker15ClientTransportELN9__gnu_cxx12_Lock_policyE2EEC2Ev
_ZNSt12__shared_ptrIN10FaasWorker15ClientTransportELN9__gnu_cxx12_Lock_policyE2EEC2ERKS4_
_ZNSt10shared_ptrIN6apache6thrift9transport10TTransportEEC2IN10FaasWorker15ClientTransportEvEERKS_IT_E
_ZN6apache6thrift8protocol16TVirtualProtocolINS1_16TBinaryProtocolTIN10FaasWorker15ClientTransportENS1_17TNetworkBigEndianEEENS1_17TProtocolDefaultsEEC2ESt10shared_ptrINS0_9transport10TTransportEE
_ZNKSt12__shared_ptrIN10FaasWorker15ClientTransportELN9__gnu_cxx12_Lock_policyE2EE3getEv
_ZN6apache6thrift8protocol16TBinaryProtocolTIN10FaasWorker15ClientTransportENS1_17TNetworkBigEndianEED2Ev
_ZN6apache6thrift8protocol16TBinaryProtocolTIN10FaasWorker15ClientTransportENS1_17TNetworkBigEndianEED0Ev
_ZN6apache6thrift8protocol16TVirtualProtocolINS1_16TBinaryProtocolTIN10FaasWorker15ClientTransportENS1_17TNetworkBigEndianEEENS1_17TProtocolDefaultsEE22writeMessageBegin_virtERKNSt7__cxx1112basic_stringIcSt11char_traitsIcESaIcEEENS1_12TMessageTypeEi
_ZN6apache6thrift8protocol16TVirtualProtocolINS1_16TBinaryProtocolTIN10FaasWorker15ClientTransportENS1_17TNetworkBigEndianEEENS1_17TProtocolDefaultsEE20writeMessageEnd_virtEv
_ZN6apache6thrift8protocol16TVirtualProtocolINS1_16TBinaryProtocolTIN10FaasWorker15ClientTransportENS1_17TNetworkBigEndianEEENS1_17TProtocolDefaultsEE21writeStructBegin_virtEPKc
_ZN6apache6thrift8protocol16TVirtualProtocolINS1_16TBinaryProtocolTIN10FaasWorker15ClientTransportENS1_17TNetworkBigEndianEEENS1_17TProtocolDefaultsEE19writeStructEnd_virtEv
_ZN6apache6thrift8protocol16TVirtualProtocolINS1_16TBinaryProtocolTIN10FaasWorker15ClientTransportENS1_17TNetworkBigEndianEEENS1_17TProtocolDefaultsEE20writeFieldBegin_virtEPKcNS1_5TTypeEs
_ZN6apache6thrift8protocol16TVirtualProtocolINS1_16TBinaryProtocolTIN10FaasWorker15ClientTransportENS1_17TNetworkBigEndianEEENS1_17TProtocolDefaultsEE18writeFieldEnd_virtEv
_ZN6apache6thrift8protocol16TVirtualProtocolINS1_16TBinaryProtocolTIN10FaasWorker15ClientTransportENS1_17TNetworkBigEndianEEENS1_17TProtocolDefaultsEE19writeFieldStop_virtEv
_ZN6apache6thrift8protocol16TVirtualProtocolINS1_16TBinaryProtocolTIN10FaasWorker15ClientTransportENS1_17TNetworkBigEndianEEENS1_17TProtocolDefaultsEE18writeMapBegin_virtENS1_5TTypeESA_j
_ZN6apache6thrift8protocol16TVirtualProtocolINS1_16TBinaryProtocolTIN10FaasWorker15ClientTransportENS1_17TNetworkBigEndianEEENS1_17TProtocolDefaultsEE16writeMapEnd_virtEv
_ZN6apache6thrift8protocol16TVirtualProtocolINS1_16TBinaryProtocolTIN10FaasWorker15ClientTransportENS1_17TNetworkBigEndianEEENS1_17TProtocolDefaultsEE19writeListBegin_virtENS1_5TTypeEj
_ZN6apache6thrift8protocol16TVirtualProtocolINS1_16TBinaryProtocolTIN10FaasWorker15ClientTransportENS1_17TNetworkBigEndianEEENS1_17TProtocolDefaultsEE17writeListEnd_virtEv
_ZN6apache6thrift8protocol16TVirtualProtocolINS1_16TBinaryProtocolTIN10FaasWorker15ClientTransportENS1_17TNetworkBigEndianEEENS1_17TProtocolDefaultsEE18writeSetBegin_virtENS1_5TTypeEj
_ZN6apache6thrift8protocol16TVirtualProtocolINS1_16TBinaryProtocolTIN10FaasWorker15ClientTransportENS1_17TNetworkBigEndianEEENS1_17TProtocolDefaultsEE16writeSetEnd_virtEv
_ZN6apache6thrift8protocol16TVirtualProtocolINS1_16TBinaryProtocolTIN10FaasWorker15ClientTransportENS1_17TNetworkBigEndianEEENS1_17TProtocolDefaultsEE14writeBool_virtEb
_ZN6apache6thrift8protocol16TVirtualProtocolINS1_16TBinaryProtocolTIN10FaasWorker15ClientTransportENS1_17TNetworkBigEndianEEENS1_17TProtocolDefaultsEE14writeByte_virtEa
_ZN6apache6thrift8protocol16TVirtualProtocolINS1_16TBinaryProtocolTIN10FaasWorker15ClientTransportENS1_17TNetworkBigEndianEEENS1_17TProtocolDefaultsEE13writeI16_virtEs
_ZN6apache6thrift8protocol16TVirtualProtocolINS1_16TBinaryProtocolTIN10FaasWorker15ClientTransportENS1_17TNetworkBigEndianEEENS1_17TProtocolDefaultsEE13writeI32_virtEi
_ZN6apache6thrift8protocol16TVirtualProtocolINS1_16TBinaryProtocolTIN10FaasWorker15ClientTransportENS1_17TNetworkBigEndianEEENS1_17TProtocolDefaultsEE13writeI64_virtEl
_ZN6apache6thrift8protocol16TVirtualProtocolINS1_16TBinaryProtocolTIN10FaasWorker15ClientTransportENS1_17TNetworkBigEndianEEENS1_17TProtocolDefaultsEE16writeDouble_virtEd
_ZN6apache6thrift8protocol16TVirtualProtocolINS1_16TBinaryProtocolTIN10FaasWorker15ClientTransportENS1_17TNetworkBigEndianEEENS1_17TProtocolDefaultsEE16writeString_virtERKNSt7__cxx1112basic_stringIcSt11char_traitsIcESaIcEEE
_ZN6apache6thrift8protocol16TVirtualProtocolINS1_16TBinaryProtocolTIN10FaasWorker15ClientTransportENS1_17TNetworkBigEndianEEENS1_17TProtocolDefaultsEE16writeBinary_virtERKNSt7__cxx1112basic_stringIcSt11char_traitsIcESaIcEEE
_ZN6apache6thrift8protocol16TVirtualProtocolINS1_16TBinaryProtocolTIN10FaasWorker15ClientTransportENS1_17TNetworkBigEndianEEENS1_17TProtocolDefaultsEE21readMessageBegin_virtERNSt7__cxx1112basic_stringIcSt11char_traitsIcESaIcEEERNS1_12TMessageTypeERi
_ZN6apache6thrift8protocol16TVirtualProtocolINS1_16TBinaryProtocolTIN10FaasWorker15ClientTransportENS1_17TNetworkBigEndianEEENS1_17TProtocolDefaultsEE19readMessageEnd_virtEv
_ZN6apache6thrift8protocol16TVirtualProtocolINS1_16TBinaryProtocolTIN10FaasWorker15ClientTransportENS1_17TNetworkBigEndianEEENS1_17TProtocolDefaultsEE20readStructBegin_virtERNSt7__cxx1112basic_stringIcSt11char_traitsIcESaIcEEE
_ZN6apache6thrift8protocol16TVirtualProtocolINS1_16TBinaryProtocolTIN10FaasWorker15ClientTransportENS1_17TNetworkBigEndianEEENS1_17TProtocolDefaultsEE18readStructEnd_virtEv
_ZN6apache6thrift8protocol16TVirtualProtocolINS1_16TBinaryProtocolTIN10FaasWorker15ClientTransportENS1_17TNetworkBigEndianEEENS1_17TProtocolDefaultsEE19readFieldBegin_virtERNSt7__cxx1112basic_stringIcSt11char_traitsIcESaIcEEERNS1_5TTypeERs
_ZN6apache6thrift8protocol16TVirtualProtocolINS1_16TBinaryProtocolTIN10FaasWorker15ClientTransportENS1_17TNetworkBigEndianEEENS1_17TProtocolDefaultsEE17readFieldEnd_virtEv
_ZN6apache6thrift8protocol16TVirtualProtocolINS1_16TBinaryProtocolTIN10FaasWorker15ClientTransportENS1_17TNetworkBigEndianEEENS1_17TProtocolDefaultsEE17readMapBegin_virtERNS1_5TTypeESB_Rj
_ZN6apache6thrift8protocol16TVirtualProtocolINS1_16TBinaryProtocolTIN10FaasWorker15ClientTransportENS1_17TNetworkBigEndianEEENS1_17TProtocolDefaultsEE15readMapEnd_virtEv
_ZN6apache6thrift8protocol16TVirtualProtocolINS1_16TBinaryProtocolTIN10FaasWorker15ClientTransportENS1_17TNetworkBigEndianEEENS1_17TProtocolDefaultsEE18readListBegin_virtERNS1_5TTypeERj
_ZN6apache6thrift8protocol16TVirtualProtocolINS1_16TBinaryProtocolTIN10FaasWorker15ClientTransportENS1_17TNetworkBigEndianEEENS1_17TProtocolDefaultsEE16readListEnd_virtEv
_ZN6apache6thrift8protocol16TVirtualProtocolINS1_16TBinaryProtocolTIN10FaasWorker15ClientTransportENS1_17TNetworkBigEndianEEENS1_17TProtocolDefaultsEE17readSetBegin_virtERNS1_5TTypeERj
_ZN6apache6thrift8protocol16TVirtualProtocolINS1_16TBinaryProtocolTIN10FaasWorker15ClientTransportENS1_17TNetworkBigEndianEEENS1_17TProtocolDefaultsEE15readSetEnd_virtEv
_ZN6apache6thrift8protocol16TVirtualProtocolINS1_16TBinaryProtocolTIN10FaasWorker15ClientTransportENS1_17TNetworkBigEndianEEENS1_17TProtocolDefaultsEE13readBool_virtERb
_ZN6apache6thrift8protocol16TVirtualProtocolINS1_16TBinaryProtocolTIN10FaasWorker15ClientTransportENS1_17TNetworkBigEndianEEENS1_17TProtocolDefaultsEE13readBool_virtESt14_Bit_reference
_ZN6apache6thrift8protocol16TVirtualProtocolINS1_16TBinaryProtocolTIN10FaasWorker15ClientTransportENS1_17TNetworkBigEndianEEENS1_17TProtocolDefaultsEE13readByte_virtERa
_ZN6apache6thrift8protocol16TVirtualProtocolINS1_16TBinaryProtocolTIN10FaasWorker15ClientTransportENS1_17TNetworkBigEndianEEENS1_17TProtocolDefaultsEE12readI16_virtERs
_ZN6apache6thrift8protocol16TVirtualProtocolINS1_16TBinaryProtocolTIN10FaasWorker15ClientTransportENS1_17TNetworkBigEndianEEENS1_17TProtocolDefaultsEE12readI32_virtERi
_ZN6apache6thrift8protocol16TVirtualProtocolINS1_16TBinaryProtocolTIN10FaasWorker15ClientTransportENS1_17TNetworkBigEndianEEENS1_17TProtocolDefaultsEE12readI64_virtERl
_ZN6apache6thrift8protocol16TVirtualProtocolINS1_16TBinaryProtocolTIN10FaasWorker15ClientTransportENS1_17TNetworkBigEndianEEENS1_17TProtocolDefaultsEE15readDouble_virtERd
_ZN6apache6thrift8protocol16TVirtualProtocolINS1_16TBinaryProtocolTIN10FaasWorker15ClientTransportENS1_17TNetworkBigEndianEEENS1_17TProtocolDefaultsEE15readString_virtERNSt7__cxx1112basic_stringIcSt11char_traitsIcESaIcEEE
_ZN6apache6thrift8protocol16TVirtualProtocolINS1_16TBinaryProtocolTIN10FaasWorker15ClientTransportENS1_17TNetworkBigEndianEEENS1_17TProtocolDefaultsEE15readBinary_virtERNSt7__cxx1112basic_stringIcSt11char_traitsIcESaIcEEE
_ZN6apache6thrift8protocol16TVirtualProtocolINS1_16TBinaryProtocolTIN10FaasWorker15ClientTransportENS1_17TNetworkBigEndianEEENS1_17TProtocolDefaultsEE9skip_virtENS1_5TTypeE
_ZNSt12__shared_ptrIN6apache6thrift9transport10TTransportELN9__gnu_cxx12_Lock_policyE2EEC2IN10FaasWorker15ClientTransportEvEERKS_IT_LS5_2EE
_ZN6apache6thrift8protocol16TVirtualProtocolINS1_16TBinaryProtocolTIN10FaasWorker15ClientTransportENS1_17TNetworkBigEndianEEENS1_17TProtocolDefaultsEED2Ev
_ZN6apache6thrift8protocol16TVirtualProtocolINS1_16TBinaryProtocolTIN10FaasWorker15ClientTransportENS1_17TNetworkBigEndianEEENS1_17TProtocolDefaultsEED0Ev
_ZN6apache6thrift8protocol16TBinaryProtocolTIN10FaasWorker15ClientTransportENS1_17TNetworkBigEndianEE17writeMessageBeginERKNSt7__cxx1112basic_stringIcSt11char_traitsIcESaIcEEENS1_12TMessageTypeEi
_ZN6apache6thrift8protocol16TBinaryProtocolTIN10FaasWorker15ClientTransportENS1_17TNetworkBigEndianEE8writeI32Ei
_ZN6apache6thrift8protocol16TBinaryProtocolTIN10FaasWorker15ClientTransportENS1_17TNetworkBigEndianEE11writeStringINSt7__cxx1112basic_stringIcSt11char_traitsIcESaIcEEEEEjRKT_
_ZN6apache6thrift8protocol16TBinaryProtocolTIN10FaasWorker15ClientTransportENS1_17TNetworkBigEndianEE9writeByteEa
_ZN10FaasWorker15ClientTransport5writeEPKhj
_ZN6apache6thrift8protocol16TBinaryProtocolTIN10FaasWorker15ClientTransportENS1_17TNetworkBigEndianEE15writeMessageEndEv
_ZN6apache6thrift8protocol16TBinaryProtocolTIN10FaasWorker15ClientTransportENS1_17TNetworkBigEndianEE16writeStructBeginEPKc
_ZN6apache6thrift8protocol16TBinaryProtocolTIN10FaasWorker15ClientTransportENS1_17TNetworkBigEndianEE14writeStructEndEv
_ZN6apache6thrift8protocol16TBinaryProtocolTIN10FaasWorker15ClientTransportENS1_17TNetworkBigEndianEE15writeFieldBeginEPKcNS1_5TTypeEs
_ZN6apache6thrift8protocol16TBinaryProtocolTIN10FaasWorker15ClientTransportENS1_17TNetworkBigEndianEE8writeI16Es
_ZN6apache6thrift8protocol16TBinaryProtocolTIN10FaasWorker15ClientTransportENS1_17TNetworkBigEndianEE13writeFieldEndEv
_ZN6apache6thrift8protocol16TBinaryProtocolTIN10FaasWorker15ClientTransportENS1_17TNetworkBigEndianEE14writeFieldStopEv
_ZN6apache6thrift8protocol16TBinaryProtocolTIN10FaasWorker15ClientTransportENS1_17TNetworkBigEndianEE13writeMapBeginENS1_5TTypeES7_j
_ZN6apache6thrift8protocol16TBinaryProtocolTIN10FaasWorker15ClientTransportENS1_17TNetworkBigEndianEE11writeMapEndEv
_ZN6apache6thrift8protocol16TBinaryProtocolTIN10FaasWorker15ClientTransportENS1_17TNetworkBigEndianEE14writeListBeginENS1_5TTypeEj
_ZN6apache6thrift8protocol16TBinaryProtocolTIN10FaasWorker15ClientTransportENS1_17TNetworkBigEndianEE12writeListEndEv
_ZN6apache6thrift8protocol16TBinaryProtocolTIN10FaasWorker15ClientTransportENS1_17TNetworkBigEndianEE13writeSetBeginENS1_5TTypeEj
_ZN6apache6thrift8protocol16TBinaryProtocolTIN10FaasWorker15ClientTransportENS1_17TNetworkBigEndianEE11writeSetEndEv
_ZN6apache6thrift8protocol16TBinaryProtocolTIN10FaasWorker15ClientTransportENS1_17TNetworkBigEndianEE9writeBoolEb
_ZN6apache6thrift8protocol16TBinaryProtocolTIN10FaasWorker15ClientTransportENS1_17TNetworkBigEndianEE8writeI64El
_ZN6apache6thrift8protocol16TBinaryProtocolTIN10FaasWorker15ClientTransportENS1_17TNetworkBigEndianEE11writeDoubleEd
_ZN6apache6thrift8protocol16TBinaryProtocolTIN10FaasWorker15ClientTransportENS1_17TNetworkBigEndianEE11writeBinaryERKNSt7__cxx1112basic_stringIcSt11char_traitsIcESaIcEEE
_ZN6apache6thrift8protocol16TBinaryProtocolTIN10FaasWorker15ClientTransportENS1_17TNetworkBigEndianEE16readMessageBeginERNSt7__cxx1112basic_stringIcSt11char_traitsIcESaIcEEERNS1_12TMessageTypeERi
_ZN6apache6thrift8protocol16TBinaryProtocolTIN10FaasWorker15ClientTransportENS1_17TNetworkBigEndianEE7readI32ERi
_ZN6apache6thrift8protocol16TBinaryProtocolTIN10FaasWorker15ClientTransportENS1_17TNetworkBigEndianEE10readStringINSt7__cxx1112basic_stringIcSt11char_traitsIcESaIcEEEEEjRT_
_ZN6apache6thrift8protocol16TBinaryProtocolTIN10FaasWorker15ClientTransportENS1_17TNetworkBigEndianEE14readStringBodyINSt7__cxx1112basic_stringIcSt11char_traitsIcESaIcEEEEEjRT_i
_ZN6apache6thrift8protocol16TBinaryProtocolTIN10FaasWorker15ClientTransportENS1_17TNetworkBigEndianEE8readByteERa
_ZN10FaasWorker15ClientTransport7readAllEPhj
_ZN6apache6thrift8protocol16TBinaryProtocolTIN10FaasWorker15ClientTransportENS1_17TNetworkBigEndianEE14readMessageEndEv
_ZN6apache6thrift8protocol16TBinaryProtocolTIN10FaasWorker15ClientTransportENS1_17TNetworkBigEndianEE15readStructBeginERNSt7__cxx1112basic_stringIcSt11char_traitsIcESaIcEEE
_ZN6apache6thrift8protocol16TBinaryProtocolTIN10FaasWorker15ClientTransportENS1_17TNetworkBigEndianEE13readStructEndEv
_ZN6apache6thrift8protocol16TBinaryProtocolTIN10FaasWorker15ClientTransportENS1_17TNetworkBigEndianEE14readFieldBeginERNSt7__cxx1112basic_stringIcSt11char_traitsIcESaIcEEERNS1_5TTypeERs
_ZN6apache6thrift8protocol16TBinaryProtocolTIN10FaasWorker15ClientTransportENS1_17TNetworkBigEndianEE7readI16ERs
_ZN6apache6thrift8protocol16TBinaryProtocolTIN10FaasWorker15ClientTransportENS1_17TNetworkBigEndianEE12readFieldEndEv
_ZN6apache6thrift8protocol16TBinaryProtocolTIN10FaasWorker15ClientTransportENS1_17TNetworkBigEndianEE12readMapBeginERNS1_5TTypeES8_Rj
_ZN6apache6thrift8protocol16TBinaryProtocolTIN10FaasWorker15ClientTransportENS1_17TNetworkBigEndianEE10readMapEndEv
_ZN6apache6thrift8protocol16TBinaryProtocolTIN10FaasWorker15ClientTransportENS1_17TNetworkBigEndianEE13readListBeginERNS1_5TTypeERj
_ZN6apache6thrift8protocol16TBinaryProtocolTIN10FaasWorker15ClientTransportENS1_17TNetworkBigEndianEE11readListEndEv
_ZN6apache6thrift8protocol16TBinaryProtocolTIN10FaasWorker15ClientTransportENS1_17TNetworkBigEndianEE12readSetBeginERNS1_5TTypeERj
_ZN6apache6thrift8protocol16TBinaryProtocolTIN10FaasWorker15ClientTransportENS1_17TNetworkBigEndianEE10readSetEndEv
_ZN6apache6thrift8protocol16TBinaryProtocolTIN10FaasWorker15ClientTransportENS1_17TNetworkBigEndianEE8readBoolERb
_ZN6apache6thrift8protocol16TVirtualProtocolINS1_16TBinaryProtocolTIN10FaasWorker15ClientTransportENS1_17TNetworkBigEndianEEENS1_17TProtocolDefaultsEE8readBoolESt14_Bit_reference
_ZN6apache6thrift8protocol16TBinaryProtocolTIN10FaasWorker15ClientTransportENS1_17TNetworkBigEndianEE7readI64ERl
_ZN6apache6thrift8protocol16TBinaryProtocolTIN10FaasWorker15ClientTransportENS1_17TNetworkBigEndianEE10readDoubleERd
_ZN6apache6thrift8protocol16TBinaryProtocolTIN10FaasWorker15ClientTransportENS1_17TNetworkBigEndianEE10readBinaryERNSt7__cxx1112basic_stringIcSt11char_traitsIcESaIcEEE
_ZN6apache6thrift8protocol16TVirtualProtocolINS1_16TBinaryProtocolTIN10FaasWorker15ClientTransportENS1_17TNetworkBigEndianEEENS1_17TProtocolDefaultsEE4skipENS1_5TTypeE
_ZN6apache6thrift8protocol4skipINS1_16TBinaryProtocolTIN10FaasWorker15ClientTransportENS1_17TNetworkBigEndianEEEEEjRT_NS1_5TTypeE
_ZNSt12__shared_ptrIN10FaasWorker15ClientTransportELN9__gnu_cxx12_Lock_policyE2EED2Ev
_ZNSt10shared_ptrIN6apache6thrift10TProcessorEEaSERKS3_
_ZNSt12__shared_ptrIN6apache6thrift10TProcessorELN9__gnu_cxx12_Lock_policyE2EEaSERKS5_
_ZNSt12__shared_ptrIN6apache6thrift10TProcessorELN9__gnu_cxx12_Lock_policyE2EED2Ev
_ZNSt12__shared_ptrIN14social_network24UniqueIdServiceProcessorELN9__gnu_cxx12_Lock_policyE2EED2Ev
_ZNSt12__shared_ptrIN14social_network15UniqueIdHandlerELN9__gnu_cxx12_Lock_policyE2EED2Ev
_ZSteqIN6apache6thrift10TProcessorEEbRKSt10shared_ptrIT_EDn
fprintf
_ZNKSt19__shared_ptr_accessIN6apache6thrift9transport13TMemoryBufferELN9__gnu_cxx12_Lock_policyE2ELb0ELb0EEptEv
_ZN6apache6thrift9transport13TMemoryBuffer11resetBufferEPhjNS2_12MemoryPolicyE
_ZNKSt19__shared_ptr_accessIN6apache6thrift10TProcessorELN9__gnu_cxx12_Lock_policyE2ELb0ELb0EEptEv
_ZNKSt19__shared_ptr_accessIN6apache6thrift8protocol16TProtocolFactoryELN9__gnu_cxx12_Lock_policyE2ELb0ELb0EEptEv
_ZNSt10shared_ptrIN6apache6thrift8protocol9TProtocolEED2Ev
_ZNKSt12__shared_ptrIN6apache6thrift10TProcessorELN9__gnu_cxx12_Lock_policyE2EEcvbEv
_ZNKSt19__shared_ptr_accessIN6apache6thrift9transport13TMemoryBufferELN9__gnu_cxx12_Lock_policyE2ELb0ELb0EE6_M_getEv
_ZN6apache6thrift9transport13TMemoryBufferC2EPhjNS2_12MemoryPolicyE
_ZN6apache6thrift9transport13TMemoryBuffer4swapERS2_
_ZN6apache6thrift9transport13TMemoryBufferD2Ev
_ZSt4swapIPhENSt9enable_ifIXsr6__and_ISt6__not_ISt15__is_tuple_likeIT_EESt21is_move_constructibleIS4_ESt18is_move_assignableIS4_EEE5valueEvE4typeERS4_SD_
_ZSt4swapIjENSt9enable_ifIXsr6__and_ISt6__not_ISt15__is_tuple_likeIT_EESt21is_move_constructibleIS3_ESt18is_move_assignableIS3_EEE5valueEvE4typeERS3_SC_
_ZSt4swapIbENSt9enable_ifIXsr6__and_ISt6__not_ISt15__is_tuple_likeIT_EESt21is_move_constructibleIS3_ESt18is_move_assignableIS3_EEE5valueEvE4typeERS3_SC_
_ZSt4moveIRPhEONSt16remove_referenceIT_E4typeEOS3_
_ZSt4moveIRjEONSt16remove_referenceIT_E4typeEOS2_
free
_ZNKSt19__shared_ptr_accessIN6apache6thrift10TProcessorELN9__gnu_cxx12_Lock_policyE2ELb0ELb0EE6_M_getEv
_ZNKSt12__shared_ptrIN6apache6thrift10TProcessorELN9__gnu_cxx12_Lock_policyE2EE3getEv
_ZNKSt19__shared_ptr_accessIN6apache6thrift8protocol16TProtocolFactoryELN9__gnu_cxx12_Lock_policyE2ELb0ELb0EE6_M_getEv
_ZNKSt12__shared_ptrIN6apache6thrift8protocol16TProtocolFactoryELN9__gnu_cxx12_Lock_policyE2EE3getEv
_ZN5boost6systemeqERKNS0_15error_conditionES3_
_ZNK5boost6system10error_code8categoryEv
strncpy
_ZNSt3_V214error_categoryD2Ev
_ZNK5boost6system15error_conditioncvSt15error_conditionEv
_ZNK5boost6system15error_condition5valueEv
_ZNK5boost6system15error_condition8categoryEv
_ZNSt15error_conditionC2EiRKNSt3_V214error_categoryE
_ZN5boost6system10error_codeC2EiRKNS0_14error_categoryE
_ZNSt7__cxx1112basic_stringIcSt11char_traitsIcESaIcEE6appendERKS4_
_ZNK8nlohmann10basic_jsonISt3mapSt6vectorNSt7__cxx1112basic_stringIcSt11char_traitsIcESaIcEEEblmdSaNS_14adl_serializerEE16assert_invariantEv
_ZN8nlohmann10basic_jsonISt3mapSt6vectorNSt7__cxx1112basic_stringIcSt11char_traitsIcESaIcEEEblmdSaNS_14adl_serializerEE10json_value7destroyENS_6detail7value_tE
_ZNSaISt3mapINSt7__cxx1112basic_stringIcSt11char_traitsIcESaIcEEEN8nlohmann10basic_jsonIS_St6vectorS5_blmdSaNS6_14adl_serializerEEESt4lessIvESaISt4pairIKS5_SA_EEEEC2Ev
_ZNSt16allocator_traitsISaISt3mapINSt7__cxx1112basic_stringIcSt11char_traitsIcESaIcEEEN8nlohmann10basic_jsonIS0_St6vectorS6_blmdSaNS7_14adl_serializerEEESt4lessIvESaISt4pairIKS6_SB_EEEEE7destroyISI_EEvRSJ_PT_
_ZNSt16allocator_traitsISaISt3mapINSt7__cxx1112basic_stringIcSt11char_traitsIcESaIcEEEN8nlohmann10basic_jsonIS0_St6vectorS6_blmdSaNS7_14adl_serializerEEESt4lessIvESaISt4pairIKS6_SB_EEEEE10deallocateERSJ_PSI_m
_ZNSaISt3mapINSt7__cxx1112basic_stringIcSt11char_traitsIcESaIcEEEN8nlohmann10basic_jsonIS_St6vectorS5_blmdSaNS6_14adl_serializerEEESt4lessIvESaISt4pairIKS5_SA_EEEED2Ev
_ZNSaISt6vectorIN8nlohmann10basic_jsonISt3mapS_NSt7__cxx1112basic_stringIcSt11char_traitsIcESaIcEEEblmdSaNS0_14adl_serializerEEESaISA_EEEC2Ev
_ZNSt16allocator_traitsISaISt6vectorIN8nlohmann10basic_jsonISt3mapS0_NSt7__cxx1112basic_stringIcSt11char_traitsIcESaIcEEEblmdSaNS1_14adl_serializerEEESaISB_EEEE7destroyISD_EEvRSE_PT_
_ZNSt16allocator_traitsISaISt6vectorIN8nlohmann10basic_jsonISt3mapS0_NSt7__cxx1112basic_stringIcSt11char_traitsIcESaIcEEEblmdSaNS1_14adl_serializerEEESaISB_EEEE10deallocateERSE_PSD_m
_ZNSaISt6vectorIN8nlohmann10basic_jsonISt3mapS_NSt7__cxx1112basic_stringIcSt11char_traitsIcESaIcEEEblmdSaNS0_14adl_serializerEEESaISA_EEED2Ev
_ZNSaINSt7__cxx1112basic_stringIcSt11char_traitsIcESaIcEEEEC2Ev
_ZNSt16allocator_traitsISaINSt7__cxx1112basic_stringIcSt11char_traitsIcESaIcEEEEE7destroyIS5_EEvRS6_PT_
_ZNSt16allocator_traitsISaINSt7__cxx1112basic_stringIcSt11char_traitsIcESaIcEEEEE10deallocateERS6_PS5_m
_ZNSaINSt7__cxx1112basic_stringIcSt11char_traitsIcESaIcEEEED2Ev
_ZN9__gnu_cxx13new_allocatorISt3mapINSt7__cxx1112basic_stringIcSt11char_traitsIcESaIcEEEN8nlohmann10basic_jsonIS1_St6vectorS7_blmdSaNS8_14adl_serializerEEESt4lessIvESaISt4pairIKS7_SC_EEEEC2Ev
_ZN9__gnu_cxx13new_allocatorISt3mapINSt7__cxx1112basic_stringIcSt11char_traitsIcESaIcEEEN8nlohmann10basic_jsonIS1_St6vectorS7_blmdSaNS8_14adl_serializerEEESt4lessIvESaISt4pairIKS7_SC_EEEE7destroyISJ_EEvPT_
_ZNSt3mapINSt7__cxx1112basic_stringIcSt11char_traitsIcESaIcEEEN8nlohmann10basic_jsonIS_St6vectorS5_blmdSaNS6_14adl_serializerEEESt4lessIvESaISt4pairIKS5_SA_EEED2Ev
_ZNSt8_Rb_treeINSt7__cxx1112basic_stringIcSt11char_traitsIcESaIcEEESt4pairIKS5_N8nlohmann10basic_jsonISt3mapSt6vectorS5_blmdSaNS8_14adl_serializerEEEESt10_Select1stISE_ESt4lessIvESaISE_EED2Ev
_ZNSt8_Rb_treeINSt7__cxx1112basic_stringIcSt11char_traitsIcESaIcEEESt4pairIKS5_N8nlohmann10basic_jsonISt3mapSt6vectorS5_blmdSaNS8_14adl_serializerEEEESt10_Select1stISE_ESt4lessIvESaISE_EE8_M_eraseEPSt13_Rb_tree_nodeISE_E
_ZNSt8_Rb_treeINSt7__cxx1112basic_stringIcSt11char_traitsIcESaIcEEESt4pairIKS5_N8nlohmann10basic_jsonISt3mapSt6vectorS5_blmdSaNS8_14adl_serializerEEEESt10_Select1stISE_ESt4lessIvESaISE_EE8_M_beginEv
_ZNSt8_Rb_treeINSt7__cxx1112basic_stringIcSt11char_traitsIcESaIcEEESt4pairIKS5_N8nlohmann10basic_jsonISt3mapSt6vectorS5_blmdSaNS8_14adl_serializerEEEESt10_Select1stISE_ESt4lessIvESaISE_EE13_Rb_tree_implISI_Lb1EED2Ev
_ZNSt8_Rb_treeINSt7__cxx1112basic_stringIcSt11char_traitsIcESaIcEEESt4pairIKS5_N8nlohmann10basic_jsonISt3mapSt6vectorS5_blmdSaNS8_14adl_serializerEEEESt10_Select1stISE_ESt4lessIvESaISE_EE8_S_rightEPSt18_Rb_tree_node_base
_ZNSt8_Rb_treeINSt7__cxx1112basic_stringIcSt11char_traitsIcESaIcEEESt4pairIKS5_N8nlohmann10basic_jsonISt3mapSt6vectorS5_blmdSaNS8_14adl_serializerEEEESt10_Select1stISE_ESt4lessIvESaISE_EE7_S_leftEPSt18_Rb_tree_node_base
_ZNSt8_Rb_treeINSt7__cxx1112basic_stringIcSt11char_traitsIcESaIcEEESt4pairIKS5_N8nlohmann10basic_jsonISt3mapSt6vectorS5_blmdSaNS8_14adl_serializerEEEESt10_Select1stISE_ESt4lessIvESaISE_EE12_M_drop_nodeEPSt13_Rb_tree_nodeISE_E
_ZNSt8_Rb_treeINSt7__cxx1112basic_stringIcSt11char_traitsIcESaIcEEESt4pairIKS5_N8nlohmann10basic_jsonISt3mapSt6vectorS5_blmdSaNS8_14adl_serializerEEEESt10_Select1stISE_ESt4lessIvESaISE_EE15_M_destroy_nodeEPSt13_Rb_tree_nodeISE_E
_ZNSt8_Rb_treeINSt7__cxx1112basic_stringIcSt11char_traitsIcESaIcEEESt4pairIKS5_N8nlohmann10basic_jsonISt3mapSt6vectorS5_blmdSaNS8_14adl_serializerEEEESt10_Select1stISE_ESt4lessIvESaISE_EE11_M_put_nodeEPSt13_Rb_tree_nodeISE_E
_ZNSt16allocator_traitsISaISt13_Rb_tree_nodeISt4pairIKNSt7__cxx1112basic_stringIcSt11char_traitsIcESaIcEEEN8nlohmann10basic_jsonISt3mapSt6vectorS7_blmdSaNS9_14adl_serializerEEEEEEE7destroyISF_EEvRSH_PT_
_ZNSt8_Rb_treeINSt7__cxx1112basic_stringIcSt11char_traitsIcESaIcEEESt4pairIKS5_N8nlohmann10basic_jsonISt3mapSt6vectorS5_blmdSaNS8_14adl_serializerEEEESt10_Select1stISE_ESt4lessIvESaISE_EE21_M_get_Node_allocatorEv
_ZNSt13_Rb_tree_nodeISt4pairIKNSt7__cxx1112basic_stringIcSt11char_traitsIcESaIcEEEN8nlohmann10basic_jsonISt3mapSt6vectorS6_blmdSaNS8_14adl_serializerEEEEE9_M_valptrEv
_ZN9__gnu_cxx13new_allocatorISt13_Rb_tree_nodeISt4pairIKNSt7__cxx1112basic_stringIcSt11char_traitsIcESaIcEEEN8nlohmann10basic_jsonISt3mapSt6vectorS8_blmdSaNSA_14adl_serializerEEEEEE7destroyISG_EEvPT_
_ZNSt4pairIKNSt7__cxx1112basic_stringIcSt11char_traitsIcESaIcEEEN8nlohmann10basic_jsonISt3mapSt6vectorS5_blmdSaNS7_14adl_serializerEEEED2Ev
_ZN9__gnu_cxx16__aligned_membufISt4pairIKNSt7__cxx1112basic_stringIcSt11char_traitsIcESaIcEEEN8nlohmann10basic_jsonISt3mapSt6vectorS7_blmdSaNS9_14adl_serializerEEEEE6_M_ptrEv
_ZN9__gnu_cxx16__aligned_membufISt4pairIKNSt7__cxx1112basic_stringIcSt11char_traitsIcESaIcEEEN8nlohmann10basic_jsonISt3mapSt6vectorS7_blmdSaNS9_14adl_serializerEEEEE7_M_addrEv
_ZNSt16allocator_traitsISaISt13_Rb_tree_nodeISt4pairIKNSt7__cxx1112basic_stringIcSt11char_traitsIcESaIcEEEN8nlohmann10basic_jsonISt3mapSt6vectorS7_blmdSaNS9_14adl_serializerEEEEEEE10deallocateERSH_PSG_m
_ZN9__gnu_cxx13new_allocatorISt13_Rb_tree_nodeISt4pairIKNSt7__cxx1112basic_stringIcSt11char_traitsIcESaIcEEEN8nlohmann10basic_jsonISt3mapSt6vectorS8_blmdSaNSA_14adl_serializerEEEEEE10deallocateEPSH_m
_ZN9__gnu_cxx13new_allocatorISt13_Rb_tree_nodeISt4pairIKNSt7__cxx1112basic_stringIcSt11char_traitsIcESaIcEEEN8nlohmann10basic_jsonISt3mapSt6vectorS8_blmdSaNSA_14adl_serializerEEEEEED2Ev
_ZN9__gnu_cxx13new_allocatorISt3mapINSt7__cxx1112basic_stringIcSt11char_traitsIcESaIcEEEN8nlohmann10basic_jsonIS1_St6vectorS7_blmdSaNS8_14adl_serializerEEESt4lessIvESaISt4pairIKS7_SC_EEEE10deallocateEPSJ_m
_ZN9__gnu_cxx13new_allocatorISt3mapINSt7__cxx1112basic_stringIcSt11char_traitsIcESaIcEEEN8nlohmann10basic_jsonIS1_St6vectorS7_blmdSaNS8_14adl_serializerEEESt4lessIvESaISt4pairIKS7_SC_EEEED2Ev
_ZN9__gnu_cxx13new_allocatorISt6vectorIN8nlohmann10basic_jsonISt3mapS1_NSt7__cxx1112basic_stringIcSt11char_traitsIcESaIcEEEblmdSaNS2_14adl_serializerEEESaISC_EEEC2Ev
_ZN9__gnu_cxx13new_allocatorISt6vectorIN8nlohmann10basic_jsonISt3mapS1_NSt7__cxx1112basic_stringIcSt11char_traitsIcESaIcEEEblmdSaNS2_14adl_serializerEEESaISC_EEE7destroyISE_EEvPT_
_ZNSt6vectorIN8nlohmann10basic_jsonISt3mapS_NSt7__cxx1112basic_stringIcSt11char_traitsIcESaIcEEEblmdSaNS0_14adl_serializerEEESaISA_EED2Ev
_ZSt8_DestroyIPN8nlohmann10basic_jsonISt3mapSt6vectorNSt7__cxx1112basic_stringIcSt11char_traitsIcESaIcEEEblmdSaNS0_14adl_serializerEEESB_EvT_SD_RSaIT0_E
_ZNSt12_Vector_baseIN8nlohmann10basic_jsonISt3mapSt6vectorNSt7__cxx1112basic_stringIcSt11char_traitsIcESaIcEEEblmdSaNS0_14adl_serializerEEESaISB_EE19_M_get_Tp_allocatorEv
_ZNSt12_Vector_baseIN8nlohmann10basic_jsonISt3mapSt6vectorNSt7__cxx1112basic_stringIcSt11char_traitsIcESaIcEEEblmdSaNS0_14adl_serializerEEESaISB_EED2Ev
_ZSt8_DestroyIPN8nlohmann10basic_jsonISt3mapSt6vectorNSt7__cxx1112basic_stringIcSt11char_traitsIcESaIcEEEblmdSaNS0_14adl_serializerEEEEvT_SD_
_ZNSt12_Destroy_auxILb0EE9__destroyIPN8nlohmann10basic_jsonISt3mapSt6vectorNSt7__cxx1112basic_stringIcSt11char_traitsIcESaIcEEEblmdSaNS2_14adl_serializerEEEEEvT_SF_
_ZSt8_DestroyIN8nlohmann10basic_jsonISt3mapSt6vectorNSt7__cxx1112basic_stringIcSt11char_traitsIcESaIcEEEblmdSaNS0_14adl_serializerEEEEvPT_
_ZSt11__addressofIN8nlohmann10basic_jsonISt3mapSt6vectorNSt7__cxx1112basic_stringIcSt11char_traitsIcESaIcEEEblmdSaNS0_14adl_serializerEEEEPT_RSC_
_ZNSt12_Vector_baseIN8nlohmann10basic_jsonISt3mapSt6vectorNSt7__cxx1112basic_stringIcSt11char_traitsIcESaIcEEEblmdSaNS0_14adl_serializerEEESaISB_EE13_M_deallocateEPSB_m
_ZNSt12_Vector_baseIN8nlohmann10basic_jsonISt3mapSt6vectorNSt7__cxx1112basic_stringIcSt11char_traitsIcESaIcEEEblmdSaNS0_14adl_serializerEEESaISB_EE12_Vector_implD2Ev
_ZNSt16allocator_traitsISaIN8nlohmann10basic_jsonISt3mapSt6vectorNSt7__cxx1112basic_stringIcSt11char_traitsIcESaIcEEEblmdSaNS0_14adl_serializerEEEEE10deallocateERSC_PSB_m
_ZN9__gnu_cxx13new_allocatorIN8nlohmann10basic_jsonISt3mapSt6vectorNSt7__cxx1112basic_stringIcSt11char_traitsIcESaIcEEEblmdSaNS1_14adl_serializerEEEE10deallocateEPSC_m
_ZN9__gnu_cxx13new_allocatorIN8nlohmann10basic_jsonISt3mapSt6vectorNSt7__cxx1112basic_stringIcSt11char_traitsIcESaIcEEEblmdSaNS1_14adl_serializerEEEED2Ev
_ZN9__gnu_cxx13new_allocatorISt6vectorIN8nlohmann10basic_jsonISt3mapS1_NSt7__cxx1112basic_stringIcSt11char_traitsIcESaIcEEEblmdSaNS2_14adl_serializerEEESaISC_EEE10deallocateEPSE_m
_ZN9__gnu_cxx13new_allocatorISt6vectorIN8nlohmann10basic_jsonISt3mapS1_NSt7__cxx1112basic_stringIcSt11char_traitsIcESaIcEEEblmdSaNS2_14adl_serializerEEESaISC_EEED2Ev
_ZN9__gnu_cxx13new_allocatorINSt7__cxx1112basic_stringIcSt11char_traitsIcESaIcEEEEC2Ev
_ZN9__gnu_cxx13new_allocatorINSt7__cxx1112basic_stringIcSt11char_traitsIcESaIcEEEE7destroyIS6_EEvPT_
_ZN9__gnu_cxx13new_allocatorINSt7__cxx1112basic_stringIcSt11char_traitsIcESaIcEEEE10deallocateEPS6_m
_ZN9__gnu_cxx13new_allocatorINSt7__cxx1112basic_stringIcSt11char_traitsIcESaIcEEEED2Ev
_ZN5boost11make_sharedINS_3log12v2s_mt_posix23basic_formatter_factoryIcNS2_7trivial14severity_levelEEEJEEENS_6detail15sp_if_not_arrayIT_E4typeEDpOT0_
_ZN5boost10shared_ptrINS_3log12v2s_mt_posix17formatter_factoryIcEEEC2INS2_23basic_formatter_factoryIcNS2_7trivial14severity_levelEEEEEONS0_IT_EENS_6detail24sp_enable_if_convertibleISB_S4_E4typeE
_ZN5boost10shared_ptrINS_3log12v2s_mt_posix23basic_formatter_factoryIcNS2_7trivial14severity_levelEEEED2Ev
_ZN5boost3log12v2s_mt_posix26register_formatter_factoryIcEEvRKNS1_14attribute_nameERKNS_10shared_ptrINS1_17formatter_factoryIT_EEEE
_ZN5boost10shared_ptrINS_3log12v2s_mt_posix17formatter_factoryIcEEED2Ev
_ZN5boost10shared_ptrINS_3log12v2s_mt_posix23basic_formatter_factoryIcNS2_7trivial14severity_levelEEEEC2IS6_NS_6detail14sp_inplace_tagINS9_13sp_ms_deleterIS6_EEEEEEPT_T0_
_ZNK5boost10shared_ptrINS_3log12v2s_mt_posix23basic_formatter_factoryIcNS2_7trivial14severity_levelEEEE29_internal_get_untyped_deleterEv
_ZN5boost6detail13sp_ms_deleterINS_3log12v2s_mt_posix23basic_formatter_factoryIcNS3_7trivial14severity_levelEEEE7addressEv
_ZN5boost3log12v2s_mt_posix23basic_formatter_factoryIcNS1_7trivial14severity_levelEEC2Ev
_ZN5boost6detail13sp_ms_deleterINS_3log12v2s_mt_posix23basic_formatter_factoryIcNS3_7trivial14severity_levelEEEE15set_initializedEv
_ZN5boost6detail26sp_enable_shared_from_thisEz
_ZN5boost10shared_ptrINS_3log12v2s_mt_posix23basic_formatter_factoryIcNS2_7trivial14severity_levelEEEEC2IS6_EERKNS0_IT_EEPS6_
_ZN5boost6detail12shared_countC2IPNS_3log12v2s_mt_posix23basic_formatter_factoryIcNS4_7trivial14severity_levelEEENS0_13sp_ms_deleterIS8_EEEET_NS0_14sp_inplace_tagIT0_EE
_ZN5boost6detail20sp_deleter_constructINS_3log12v2s_mt_posix23basic_formatter_factoryIcNS3_7trivial14severity_levelEEES7_EEvPNS_10shared_ptrIT_EEPT0_
_ZN5boost6detail18sp_counted_impl_pdIPNS_3log12v2s_mt_posix23basic_formatter_factoryIcNS3_7trivial14severity_levelEEENS0_13sp_ms_deleterIS7_EEEC2ES8_
_ZN5boost6detail13sp_ms_deleterINS_3log12v2s_mt_posix23basic_formatter_factoryIcNS3_7trivial14severity_levelEEEE11operator_fnEPS7_
_ZN5boost6detail15sp_counted_baseC2Ev
_ZN5boost6detail13sp_ms_deleterINS_3log12v2s_mt_posix23basic_formatter_factoryIcNS3_7trivial14severity_levelEEEEC2Ev
_ZN5boost6detail18sp_counted_impl_pdIPNS_3log12v2s_mt_posix23basic_formatter_factoryIcNS3_7trivial14severity_levelEEENS0_13sp_ms_deleterIS7_EEED2Ev
_ZN5boost6detail18sp_counted_impl_pdIPNS_3log12v2s_mt_posix23basic_formatter_factoryIcNS3_7trivial14severity_levelEEENS0_13sp_ms_deleterIS7_EEED0Ev
_ZN5boost6detail18sp_counted_impl_pdIPNS_3log12v2s_mt_posix23basic_formatter_factoryIcNS3_7trivial14severity_levelEEENS0_13sp_ms_deleterIS7_EEE7disposeEv
_ZN5boost6detail15sp_counted_base7destroyEv
_ZN5boost6detail18sp_counted_impl_pdIPNS_3log12v2s_mt_posix23basic_formatter_factoryIcNS3_7trivial14severity_levelEEENS0_13sp_ms_deleterIS7_EEE11get_deleterERKSt9type_info
_ZN5boost6detail18sp_counted_impl_pdIPNS_3log12v2s_mt_posix23basic_formatter_factoryIcNS3_7trivial14severity_levelEEENS0_13sp_ms_deleterIS7_EEE17get_local_deleterERKSt9type_info
_ZN5boost6detail18sp_counted_impl_pdIPNS_3log12v2s_mt_posix23basic_formatter_factoryIcNS3_7trivial14severity_levelEEENS0_13sp_ms_deleterIS7_EEE19get_untyped_deleterEv
_ZN5boost6detail15sp_counted_baseD2Ev
_ZN5boost6detail15sp_counted_baseD0Ev
_ZN5boost6detail13sp_ms_deleterINS_3log12v2s_mt_posix23basic_formatter_factoryIcNS3_7trivial14severity_levelEEEED2Ev
_ZN5boost6detail13sp_ms_deleterINS_3log12v2s_mt_posix23basic_formatter_factoryIcNS3_7trivial14severity_levelEEEE7destroyEv
_ZN5boost6detail13sp_ms_deleterINS_3log12v2s_mt_posix23basic_formatter_factoryIcNS3_7trivial14severity_levelEEEEclEPS7_
_ZN5boost6detail17get_local_deleterINS0_13sp_ms_deleterINS_3log12v2s_mt_posix23basic_formatter_factoryIcNS4_7trivial14severity_levelEEEEEEEPT_SB_
_ZN5boost9addressofINS_6detail13sp_ms_deleterINS_3log12v2s_mt_posix23basic_formatter_factoryIcNS4_7trivial14severity_levelEEEEEEEPT_RSA_
_ZNK5boost6detail12shared_count19get_untyped_deleterEv
_ZN5boost3log12v2s_mt_posix17formatter_factoryIcEC2Ev
_ZN5boost3log12v2s_mt_posix23basic_formatter_factoryIcNS1_7trivial14severity_levelEED2Ev
_ZN5boost3log12v2s_mt_posix23basic_formatter_factoryIcNS1_7trivial14severity_levelEED0Ev
_ZN5boost3log12v2s_mt_posix23basic_formatter_factoryIcNS1_7trivial14severity_levelEE16create_formatterERKNS1_14attribute_nameERKSt3mapINSt7__cxx1112basic_stringIcSt11char_traitsIcESaIcEEESF_St4lessISF_ESaISt4pairIKSF_SF_EEE
_ZN5boost3log12v2s_mt_posix17formatter_factoryIcED2Ev
_ZN5boost3log12v2s_mt_posix17formatter_factoryIcED0Ev
_ZN5boost3log12v2s_mt_posix15basic_formatterIcEC2INS_7phoenix5actorINS1_11expressions3aux25attribute_output_terminalINS6_INS_5proto7exprns_10basic_exprINSA_6tagns_3tag8terminalENSA_7argsns_4termINS5_8argumentILi2EEEEELl0EEEEENS1_7trivial14severity_levelENS1_16fallback_to_noneENS1_10to_log_funIvEEEEEEEEOT_
_ZNK5boost3log12v2s_mt_posix11expressions15attribute_actorINS1_7trivial14severity_levelENS1_16fallback_to_noneEvNS_7phoenix5actorEE8get_nameEv
_ZNK5boost3log12v2s_mt_posix11expressions15attribute_actorINS1_7trivial14severity_levelENS1_16fallback_to_noneEvNS_7phoenix5actorEE19get_fallback_policyEv
_ZN5boost3log12v2s_mt_posix11expressions3aux25attribute_output_terminalINS_7phoenix5actorINS_5proto7exprns_10basic_exprINS7_6tagns_3tag8terminalENS7_7argsns_4termINS5_8argumentILi2EEEEELl0EEEEENS1_7trivial14severity_levelENS1_16fallback_to_noneENS1_10to_log_funIvEEEC2ISM_EERKSJ_RKNS1_14attribute_nameERKSO_RKT_
_ZNK5boost3log12v2s_mt_posix11expressions18attribute_terminalINS1_7trivial14severity_levelENS1_16fallback_to_noneEvE8get_nameEv
_ZNK5boost3log12v2s_mt_posix11expressions18attribute_terminalINS1_7trivial14severity_levelENS1_16fallback_to_noneEvE19get_fallback_policyEv
_ZNK5boost3log12v2s_mt_posix15value_extractorINS1_7trivial14severity_levelENS1_16fallback_to_noneEvE19get_fallback_policyEv
_ZN5boost3log12v2s_mt_posix21value_visitor_invokerINS1_7trivial14severity_levelENS1_16fallback_to_noneEEC2IS5_EERKT_
_ZN5boost3log12v2s_mt_posix11expressions18attribute_terminalINS1_7trivial14severity_levelENS1_16fallback_to_noneEvEC2ERKNS1_14attribute_nameE
_ZN5boost3log12v2s_mt_posix11expressions15attribute_actorINS1_7trivial14severity_levelENS1_16fallback_to_noneEvNS_7phoenix5actorEEC2ERKNS8_INS2_18attribute_terminalIS5_S6_vEEEE
_ZN5boost7phoenix5actorINS_3log12v2s_mt_posix11expressions18attribute_terminalINS3_7trivial14severity_levelENS3_16fallback_to_noneEvEEEC2ERKSA_
_ZN5boost5proto7exprns_4exprINS0_6tagns_3tag8terminalENS0_7argsns_4termINS_3log12v2s_mt_posix11expressions18attribute_terminalINS9_7trivial14severity_levelENS9_16fallback_to_noneEvEEEELl0EEC2ERKSH_
_ZN5boost3log12v2s_mt_posix11expressions18attribute_terminalINS1_7trivial14severity_levelENS1_16fallback_to_noneEvEC2ERKS7_
_ZN5boost3log12v2s_mt_posix15value_extractorINS1_7trivial14severity_levelENS1_16fallback_to_noneEvEC2ERKS6_
_ZN5boost7forwardINS_7phoenix5actorINS_3log12v2s_mt_posix11expressions3aux25attribute_output_terminalINS2_INS_5proto7exprns_10basic_exprINS8_6tagns_3tag8terminalENS8_7argsns_4termINS1_8argumentILi2EEEEELl0EEEEENS4_7trivial14severity_levelENS4_16fallback_to_noneENS4_10to_log_funIvEEEEEEEEOT_RNS_11move_detail16remove_referenceISS_E4typeE
_ZN5boost3log12v2s_mt_posix3aux14light_functionIFvRKNS1_11record_viewENS1_11expressions3aux10stream_refINS1_24basic_formatting_ostreamIcSt11char_traitsIcESaIcEEEEEEEC2INS_7phoenix5actorINS8_25attribute_output_terminalINSK_INS_5proto7exprns_10basic_exprINSM_6tagns_3tag8terminalENSM_7argsns_4termINSJ_8argumentILi2EEEEELl0EEEEENS1_7trivial14severity_levelENS1_16fallback_to_noneENS1_10to_log_funIvEEEEEEEEOT_
_ZN5boost3log12v2s_mt_posix3aux14light_functionIFvRKNS1_11record_viewENS1_11expressions3aux10stream_refINS1_24basic_formatting_ostreamIcSt11char_traitsIcESaIcEEEEEEE4implINS_7phoenix5actorINS8_25attribute_output_terminalINSK_INS_5proto7exprns_10basic_exprINSM_6tagns_3tag8terminalENSM_7argsns_4termINSJ_8argumentILi2EEEEELl0EEEEENS1_7trivial14severity_levelENS1_16fallback_to_noneENS1_10to_log_funIvEEEEEEEC2EOS15_
_ZN5boost3log12v2s_mt_posix3aux14light_functionIFvRKNS1_11record_viewENS1_11expressions3aux10stream_refINS1_24basic_formatting_ostreamIcSt11char_traitsIcESaIcEEEEEEE4implINS_7phoenix5actorINS8_25attribute_output_terminalINSK_INS_5proto7exprns_10basic_exprINSM_6tagns_3tag8terminalENSM_7argsns_4termINSJ_8argumentILi2EEEEELl0EEEEENS1_7trivial14severity_levelENS1_16fallback_to_noneENS1_10to_log_funIvEEEEEEE11invoke_implEPvS6_SF_
_ZN5boost3log12v2s_mt_posix3aux14light_functionIFvRKNS1_11record_viewENS1_11expressions3aux10stream_refINS1_24basic_formatting_ostreamIcSt11char_traitsIcESaIcEEEEEEE4implINS_7phoenix5actorINS8_25attribute_output_terminalINSK_INS_5proto7exprns_10basic_exprINSM_6tagns_3tag8terminalENSM_7argsns_4termINSJ_8argumentILi2EEEEELl0EEEEENS1_7trivial14severity_levelENS1_16fallback_to_noneENS1_10to_log_funIvEEEEEEE10clone_implEPKv
_ZN5boost3log12v2s_mt_posix3aux14light_functionIFvRKNS1_11record_viewENS1_11expressions3aux10stream_refINS1_24basic_formatting_ostreamIcSt11char_traitsIcESaIcEEEEEEE4implINS_7phoenix5actorINS8_25attribute_output_terminalINSK_INS_5proto7exprns_10basic_exprINSM_6tagns_3tag8terminalENSM_7argsns_4termINSJ_8argumentILi2EEEEELl0EEEEENS1_7trivial14severity_levelENS1_16fallback_to_noneENS1_10to_log_funIvEEEEEEE12destroy_implEPv
_ZN5boost3log12v2s_mt_posix3aux14light_functionIFvRKNS1_11record_viewENS1_11expressions3aux10stream_refINS1_24basic_formatting_ostreamIcSt11char_traitsIcESaIcEEEEEEE9impl_baseC2EPFvPvS6_SF_EPFPSI_PKvEPFvSJ_E
_ZN5boost4moveIRNS_7phoenix5actorINS_3log12v2s_mt_posix11expressions3aux25attribute_output_terminalINS2_INS_5proto7exprns_10basic_exprINS8_6tagns_3tag8terminalENS8_7argsns_4termINS1_8argumentILi2EEEEELl0EEEEENS4_7trivial14severity_levelENS4_16fallback_to_noneENS4_10to_log_funIvEEEEEEEEONS_11move_detail16remove_referenceIT_E4typeEOSV_
_ZN5boost7phoenix5actorINS_3log12v2s_mt_posix11expressions3aux25attribute_output_terminalINS1_INS_5proto7exprns_10basic_exprINS7_6tagns_3tag8terminalENS7_7argsns_4termINS0_8argumentILi2EEEEELl0EEEEENS3_7trivial14severity_levelENS3_16fallback_to_noneENS3_10to_log_funIvEEEEEC2ERKSQ_
_ZN5boost7phoenix5actorINS_3log12v2s_mt_posix11expressions3aux25attribute_output_terminalINS1_INS_5proto7exprns_10basic_exprINS7_6tagns_3tag8terminalENS7_7argsns_4termINS0_8argumentILi2EEEEELl0EEEEENS3_7trivial14severity_levelENS3_16fallback_to_noneENS3_10to_log_funIvEEEEEclIJRKNS3_11record_viewERNS5_10stream_refINS3_24basic_formatting_ostreamIcSt11char_traitsIcESaIcEEEEEEEENSQ_6resultIFSQ_DpT_EE4typeEDpOS14_
_ZN5boost7phoenix4evalINS0_5actorINS_3log12v2s_mt_posix11expressions3aux25attribute_output_terminalINS2_INS_5proto7exprns_10basic_exprINS8_6tagns_3tag8terminalENS8_7argsns_4termINS0_8argumentILi2EEEEELl0EEEEENS4_7trivial14severity_levelENS4_16fallback_to_noneENS4_10to_log_funIvEEEEEENS0_7vector2IRNS0_7vector3IPKSR_RKNS4_11record_viewERNS6_10stream_refINS4_24basic_formatting_ostreamIcSt11char_traitsIcESaIcEEEEEEERKNS0_15default_actionsEEEEENS8_7switch_INS0_12meta_grammarEFNS8_6tag_ofINS8_1_EEEvEE4implIRT_NS0_9result_of3envIRKT0_E4typeENS1N_7actionsIS1R_E4typeEE11result_typeES1M_S1R_
_ZN5boost7phoenix7contextINS0_7vector3IPKNS0_5actorINS_3log12v2s_mt_posix11expressions3aux25attribute_output_terminalINS3_INS_5proto7exprns_10basic_exprINS9_6tagns_3tag8terminalENS9_7argsns_4termINS0_8argumentILi2EEEEELl0EEEEENS5_7trivial14severity_levelENS5_16fallback_to_noneENS5_10to_log_funIvEEEEEERKNS5_11record_viewERNS7_10stream_refINS5_24basic_formatting_ostreamIcSt11char_traitsIcESaIcEEEEEEENS0_15default_actionsEEEKNS0_9result_of7contextIRT_RKT0_E4typeES1B_S1E_
_ZNK5boost7phoenix9evaluator4implIRNS0_5actorINS_3log12v2s_mt_posix11expressions3aux25attribute_output_terminalINS3_INS_5proto7exprns_10basic_exprINS9_6tagns_3tag8terminalENS9_7argsns_4termINS0_8argumentILi2EEEEELl0EEEEENS5_7trivial14severity_levelENS5_16fallback_to_noneENS5_10to_log_funIvEEEEEERKNS0_7vector2IRNS0_7vector3IPKSS_RKNS5_11record_viewERNS7_10stream_refINS5_24basic_formatting_ostreamIcSt11char_traitsIcESaIcEEEEEEERKNS0_15default_actionsEEENS9_6envns_9empty_envEEclEST_S1G_RKS1I_
_ZN5boost7phoenix3envINS0_7vector2IRNS0_7vector3IPKNS0_5actorINS_3log12v2s_mt_posix11expressions3aux25attribute_output_terminalINS4_INS_5proto7exprns_10basic_exprINSA_6tagns_3tag8terminalENSA_7argsns_4termINS0_8argumentILi2EEEEELl0EEEEENS6_7trivial14severity_levelENS6_16fallback_to_noneENS6_10to_log_funIvEEEEEERKNS6_11record_viewERNS8_10stream_refINS6_24basic_formatting_ostreamIcSt11char_traitsIcESaIcEEEEEEERKNS0_15default_actionsEEEEENS_6fusion9result_of4at_cIKT_Li0EE4typeERS1H_
_ZN5boost7phoenix7actionsINS0_7vector2IRNS0_7vector3IPKNS0_5actorINS_3log12v2s_mt_posix11expressions3aux25attribute_output_terminalINS4_INS_5proto7exprns_10basic_exprINSA_6tagns_3tag8terminalENSA_7argsns_4termINS0_8argumentILi2EEEEELl0EEEEENS6_7trivial14severity_levelENS6_16fallback_to_noneENS6_10to_log_funIvEEEEEERKNS6_11record_viewERNS8_10stream_refINS6_24basic_formatting_ostreamIcSt11char_traitsIcESaIcEEEEEEERKNS0_15default_actionsEEEEENS_6fusion9result_of4at_cIKT_Li1EE4typeERS1H_
_ZNK5boost7phoenix15custom_terminalINS_3log12v2s_mt_posix11expressions3aux25attribute_output_terminalINS0_5actorINS_5proto7exprns_10basic_exprINS8_6tagns_3tag8terminalENS8_7argsns_4termINS0_8argumentILi2EEEEELl0EEEEENS3_7trivial14severity_levelENS3_16fallback_to_noneENS3_10to_log_funIvEEEEvEclIKNS0_7vector2IRNS0_7vector3IPKNS7_ISQ_EERKNS3_11record_viewERNS5_10stream_refINS3_24basic_formatting_ostreamIcSt11char_traitsIcESaIcEEEEEEERKNS0_15default_actionsEEEEENSR_6resultIFKSR_RKSQ_RT_EE4typeES1J_S1L_
_ZNK5boost5proto6_value4implIRNS_7phoenix5actorINS_3log12v2s_mt_posix11expressions3aux25attribute_output_terminalINS4_INS0_7exprns_10basic_exprINS0_6tagns_3tag8terminalENS0_7argsns_4termINS3_8argumentILi2EEEEELl0EEEEENS6_7trivial14severity_levelENS6_16fallback_to_noneENS6_10to_log_funIvEEEEEERNS3_7vector3IPKSS_RKNS6_11record_viewERNS8_10stream_refINS6_24basic_formatting_ostreamIcSt11char_traitsIcESaIcEEEEEEERKNS3_15default_actionsEEclEST_S19_S1C_
_ZNK5boost7phoenix8_context4implIRNS0_5actorINS_3log12v2s_mt_posix11expressions3aux25attribute_output_terminalINS3_INS_5proto7exprns_10basic_exprINS9_6tagns_3tag8terminalENS9_7argsns_4termINS0_8argumentILi2EEEEELl0EEEEENS5_7trivial14severity_levelENS5_16fallback_to_noneENS5_10to_log_funIvEEEEEERNS0_7vector3IPKSS_RKNS5_11record_viewERNS7_10stream_refINS5_24basic_formatting_ostreamIcSt11char_traitsIcESaIcEEEEEEERKNS0_15default_actionsEEclEST_S19_S1C_
_ZNK5boost3log12v2s_mt_posix11expressions3aux25attribute_output_terminalINS_7phoenix5actorINS_5proto7exprns_10basic_exprINS7_6tagns_3tag8terminalENS7_7argsns_4termINS5_8argumentILi2EEEEELl0EEEEENS1_7trivial14severity_levelENS1_16fallback_to_noneENS1_10to_log_funIvEEEclINS5_7vector2IRNS5_7vector3IPKNS6_ISP_EERKNS1_11record_viewERNS3_10stream_refINS1_24basic_formatting_ostreamIcSt11char_traitsIcESaIcEEEEEEERKNS5_15default_actionsEEEEENSP_6resultIFKSP_RKT_EE4typeES1H_
_ZN5boost7phoenix4evalINS0_5actorINS_5proto7exprns_10basic_exprINS3_6tagns_3tag8terminalENS3_7argsns_4termINS0_8argumentILi2EEEEELl0EEEEENS0_7vector2IRNS0_7vector3IPKNS2_INS_3log12v2s_mt_posix11expressions3aux25attribute_output_terminalISF_NSJ_7trivial14severity_levelENSJ_16fallback_to_noneENSJ_10to_log_funIvEEEEEERKNSJ_11record_viewERNSL_10stream_refINSJ_24basic_formatting_ostreamIcSt11char_traitsIcESaIcEEEEEEERKNS0_15default_actionsEEEEENS3_7switch_INS0_12meta_grammarEFNS3_6tag_ofINS3_1_EEEvEE4implIRKT_NS0_9result_of3envIRKT0_E4typeENS1O_7actionsIS1S_E4typeEE11result_typeES1N_S1S_
_ZNK5boost3log12v2s_mt_posix21value_visitor_invokerINS1_7trivial14severity_levelENS1_16fallback_to_noneEEclINS1_9binder1stIRKNS1_10to_log_funIvEERNS1_11expressions3aux10stream_refINS1_24basic_formatting_ostreamIcSt11char_traitsIcESaIcEEEEEEEEENS1_17visitation_resultERKNS1_14attribute_nameERKNS1_11record_viewET_
_ZN5boost6fusion4at_cILi0ENS_7phoenix7vector2IRKNS_3log12v2s_mt_posix11record_viewERNS5_11expressions3aux10stream_refINS5_24basic_formatting_ostreamIcSt11char_traitsIcESaIcEEEEEEEEENS0_9result_of4at_cIKT0_XT_EE4typeERSN_
_ZNK5boost7phoenix7vector3IPKNS0_5actorINS_3log12v2s_mt_posix11expressions3aux25attribute_output_terminalINS2_INS_5proto7exprns_10basic_exprINS8_6tagns_3tag8terminalENS8_7argsns_4termINS0_8argumentILi2EEEEELl0EEEEENS4_7trivial14severity_levelENS4_16fallback_to_noneENS4_10to_log_funIvEEEEEERKNS4_11record_viewERNS6_10stream_refINS4_24basic_formatting_ostreamIcSt11char_traitsIcESaIcEEEEEE4argsEv
_ZN5boost3log12v2s_mt_posix9binder1stIRKNS1_10to_log_funIvEERNS1_11expressions3aux10stream_refINS1_24basic_formatting_ostreamIcSt11char_traitsIcESaIcEEEEEEC2ES6_SG_
_ZNK5boost7phoenix9evaluator4implIRKNS0_5actorINS_5proto7exprns_10basic_exprINS4_6tagns_3tag8terminalENS4_7argsns_4termINS0_8argumentILi2EEEEELl0EEEEERKNS0_7vector2IRNS0_7vector3IPKNS3_INS_3log12v2s_mt_posix11expressions3aux25attribute_output_terminalISG_NSM_7trivial14severity_levelENSM_16fallback_to_noneENSM_10to_log_funIvEEEEEERKNSM_11record_viewERNSO_10stream_refINSM_24basic_formatting_ostreamIcSt11char_traitsIcESaIcEEEEEEERKNS0_15default_actionsEEENS4_6envns_9empty_envEEclESI_S1H_RKS1J_
_ZNK5boost5proto10functional2atclINS_7phoenix7vector3IPKNS4_5actorINS_3log12v2s_mt_posix11expressions3aux25attribute_output_terminalINS6_INS0_7exprns_10basic_exprINS0_6tagns_3tag8terminalENS0_7argsns_4termINS4_8argumentILi2EEEEELl0EEEEENS8_7trivial14severity_levelENS8_16fallback_to_noneENS8_10to_log_funIvEEEEEERKNS8_11record_viewERNSA_10stream_refINS8_24basic_formatting_ostreamIcSt11char_traitsIcESaIcEEEEEEEN4mpl_4int_ILi2EEEEENS_6fusion9result_of2atIT_T0_E4typeERS1F_RKS1G_
_ZNK5boost7phoenix4_env4implIRKNS0_5actorINS_5proto7exprns_10basic_exprINS4_6tagns_3tag8terminalENS4_7argsns_4termINS0_8argumentILi2EEEEELl0EEEEERNS0_7vector3IPKNS3_INS_3log12v2s_mt_posix11expressions3aux25attribute_output_terminalISG_NSL_7trivial14severity_levelENSL_16fallback_to_noneENSL_10to_log_funIvEEEEEERKNSL_11record_viewERNSN_10stream_refINSL_24basic_formatting_ostreamIcSt11char_traitsIcESaIcEEEEEEERKNS0_15default_actionsEEclESI_S1A_S1D_
_ZN5boost6fusion2atIN4mpl_4int_ILi2EEENS_7phoenix7vector3IPKNS5_5actorINS_3log12v2s_mt_posix11expressions3aux25attribute_output_terminalINS7_INS_5proto7exprns_10basic_exprINSD_6tagns_3tag8terminalENSD_7argsns_4termINS5_8argumentILi2EEEEELl0EEEEENS9_7trivial14severity_levelENS9_16fallback_to_noneENS9_10to_log_funIvEEEEEERKNS9_11record_viewERNSB_10stream_refINS9_24basic_formatting_ostreamIcSt11char_traitsIcESaIcEEEEEEEEENS_15lazy_disable_ifINS_8is_constIT0_EENS0_9result_of2atIS1D_T_EEE4typeERS1D_
_ZN5boost6fusion9extension6access13struct_memberINS_7phoenix7vector3IPKNS4_5actorINS_3log12v2s_mt_posix11expressions3aux25attribute_output_terminalINS6_INS_5proto7exprns_10basic_exprINSC_6tagns_3tag8terminalENSC_7argsns_4termINS4_8argumentILi2EEEEELl0EEEEENS8_7trivial14severity_levelENS8_16fallback_to_noneENS8_10to_log_funIvEEEEEERKNS8_11record_viewERNSA_10stream_refINS8_24basic_formatting_ostreamIcSt11char_traitsIcESaIcEEEEEEELi2EE5applyIS19_E4callERS19_
_ZNK5boost3log12v2s_mt_posix21value_visitor_invokerINS1_7trivial14severity_levelENS1_16fallback_to_noneEEclINS1_9binder1stIRKNS1_10to_log_funIvEERNS1_11expressions3aux10stream_refINS1_24basic_formatting_ostreamIcSt11char_traitsIcESaIcEEEEEEEEENS1_17visitation_resultERKNS1_14attribute_nameERKNS1_19attribute_value_setET_
_ZNK5boost3log12v2s_mt_posix11record_view16attribute_valuesEv
_ZNK5boost3log12v2s_mt_posix19attribute_value_set4findENS1_14attribute_nameE
_ZNK5boost3log12v2s_mt_posix19attribute_value_set14const_iteratorneERKS3_
_ZNK5boost3log12v2s_mt_posix19attribute_value_set3endEv
_ZNK5boost3log12v2s_mt_posix21value_visitor_invokerINS1_7trivial14severity_levelENS1_16fallback_to_noneEEclINS1_9binder1stIRKNS1_10to_log_funIvEERNS1_11expressions3aux10stream_refINS1_24basic_formatting_ostreamIcSt11char_traitsIcESaIcEEEEEEEEENS1_17visitation_resultERKNS1_15attribute_valueET_
_ZNK5boost3log12v2s_mt_posix19attribute_value_set14const_iteratorptEv
_ZN5boost3log12v2s_mt_posix15attribute_valueC2Ev
_ZN5boost3log12v2s_mt_posix15attribute_valueD2Ev
_ZN5boost3log12v2s_mt_posix3aux26attach_attribute_name_infoERNS_9exceptionERKNS1_14attribute_nameE
_ZNK5boost3log12v2s_mt_posix15attribute_valuentEv
_ZN5boost3log12v2s_mt_posix22static_type_dispatcherINS1_7trivial14severity_levelEEC2INS1_9binder1stIRKNS1_10to_log_funIvEERNS1_11expressions3aux10stream_refINS1_24basic_formatting_ostreamIcSt11char_traitsIcESaIcEEEEEEEEERT_
_ZNK5boost3log12v2s_mt_posix15attribute_value8dispatchERNS1_15type_dispatcherE
_ZN5boost3log12v2s_mt_posix16fallback_to_none13apply_defaultINS1_9binder1stIRKNS1_10to_log_funIvEERNS1_11expressions3aux10stream_refINS1_24basic_formatting_ostreamIcSt11char_traitsIcESaIcEEEEEEEEEbRT_
_ZN5boost3log12v2s_mt_posix17visitation_resultC2ENS2_10error_codeE
_ZN5boost3log12v2s_mt_posix16fallback_to_none15on_invalid_typeERKNS_9typeindex14stl_type_indexE
_ZNK5boost3log12v2s_mt_posix15attribute_value8get_typeEv
_ZN5boost3log12v2s_mt_posix16fallback_to_none16on_missing_valueEv
_ZNK5boost13intrusive_ptrINS_3log12v2s_mt_posix15attribute_value4implEEntEv
_ZN5boost3log12v2s_mt_posix3aux22single_type_dispatcherINS1_7trivial14severity_levelEEC2INS1_9binder1stIRKNS1_10to_log_funIvEERNS1_11expressions3aux10stream_refINS1_24basic_formatting_ostreamIcSt11char_traitsIcESaIcEEEEEEEEERT_
_ZN5boost9typeindex7type_idINS_3log12v2s_mt_posix7trivial14severity_levelEEENS0_14stl_type_indexEv
_ZN5boost9addressofINS_3log12v2s_mt_posix9binder1stIRKNS2_10to_log_funIvEERNS2_11expressions3aux10stream_refINS2_24basic_formatting_ostreamIcSt11char_traitsIcESaIcEEEEEEEEEPT_RSJ_
_ZN5boost3log12v2s_mt_posix15type_dispatcher13callback_base10trampolineINS1_9binder1stIRKNS1_10to_log_funIvEERNS1_11expressions3aux10stream_refINS1_24basic_formatting_ostreamIcSt11char_traitsIcESaIcEEEEEEENS1_7trivial14severity_levelEEEvPvRKT0_
_ZN5boost3log12v2s_mt_posix15type_dispatcher13callback_baseC2INS1_7trivial14severity_levelEEEPvPFvS7_RKT_E
_ZN5boost3log12v2s_mt_posix3aux27single_type_dispatcher_baseC2ENS_9typeindex14stl_type_indexERKNS1_15type_dispatcher13callback_baseE
_ZN5boost9typeindex14stl_type_index7type_idINS_3log12v2s_mt_posix7trivial14severity_levelEEES1_v
_ZNK5boost3log12v2s_mt_posix9binder1stIRKNS1_10to_log_funIvEERNS1_11expressions3aux10stream_refINS1_24basic_formatting_ostreamIcSt11char_traitsIcESaIcEEEEEEclINS1_7trivial14severity_levelEEEvRKT_
_ZNK5boost3log12v2s_mt_posix10to_log_funIvEclINS1_11expressions3aux10stream_refINS1_24basic_formatting_ostreamIcSt11char_traitsIcESaIcEEEEENS1_7trivial14severity_levelEEEvRT_RKT0_
_ZN5boost3log12v2s_mt_posix6to_logINS1_7trivial14severity_levelEEENS1_12to_log_manipIT_vEERKS6_
_ZN5boost3log12v2s_mt_posixlsINS1_24basic_formatting_ostreamIcSt11char_traitsIcESaIcEEENS1_7trivial14severity_levelEvEENS_11enable_if_cIXsr3log3aux10is_ostreamIT_EE5valueERSB_E4typeESC_NS1_12to_log_manipIT0_T1_EE
_ZN5boost3log12v2s_mt_posix12to_log_manipINS1_7trivial14severity_levelEvEC2ERKS5_
_ZN5boost3log12v2s_mt_posixlsINS1_24basic_formatting_ostreamIcSt11char_traitsIcESaIcEEENS1_7trivial14severity_levelEEENS1_3aux42enable_formatting_ostream_generic_operatorIT_T0_Lb1ERSC_E4typeESE_SD_
_ZNK5boost3log12v2s_mt_posix12to_log_manipINS1_7trivial14severity_levelEvE3getEv
_ZN5boost3log12v2s_mt_posix7triviallsIcSt11char_traitsIcEEERSt13basic_ostreamIT_T0_ESA_NS2_14severity_levelE
_ZN5boost3log12v2s_mt_posix24basic_formatting_ostreamIcSt11char_traitsIcESaIcEE6streamEv
_ZN5boost3log12v2s_mt_posix7trivial9to_stringIcEEPKT_NS2_14severity_levelE
_ZN5boost3log12v2s_mt_posix12to_log_manipINS1_7trivial14severity_levelEvEC2ERKS4_
_ZN5boost3log12v2s_mt_posix3aux27single_type_dispatcher_base12get_callbackEPNS1_15type_dispatcherENS_9typeindex14stl_type_indexE
_ZN5boost3log12v2s_mt_posix15type_dispatcherC2EPFNS2_13callback_baseEPS2_NS_9typeindex14stl_type_indexEE
_ZN5boost9typeindexeqINS0_14stl_type_indexESt9type_infoEEbRKNS0_17type_index_facadeIT_T0_EES9_
_ZN5boost3log12v2s_mt_posix15type_dispatcher13callback_baseC2EPvS4_
_ZNK5boost9typeindex14stl_type_index5equalERKS1_
_ZNK5boost9typeindex14stl_type_index8raw_nameEv
_ZNKSt9type_info4nameEv
_ZNK5boost13intrusive_ptrINS_3log12v2s_mt_posix15attribute_value4implEE3getEv
_ZNK5boost13intrusive_ptrINS_3log12v2s_mt_posix15attribute_value4implEEptEv
_ZNK5boost13intrusive_ptrINS_3log12v2s_mt_posix11record_view11public_dataEEptEv
_ZN5boost6fusion2atIN4mpl_4int_ILi0EEENS_7phoenix7vector2IRKNS_3log12v2s_mt_posix11record_viewERNS8_11expressions3aux10stream_refINS8_24basic_formatting_ostreamIcSt11char_traitsIcESaIcEEEEEEEEENS0_9result_of2atIKT0_T_E4typeERSQ_
_ZN5boost6fusion9extension6access13struct_memberINS_7phoenix7vector2IRKNS_3log12v2s_mt_posix11record_viewERNS7_11expressions3aux10stream_refINS7_24basic_formatting_ostreamIcSt11char_traitsIcESaIcEEEEEEELi0EE5applyIKSL_E4callERSO_
_ZN5boost6fusion4at_cILi0ENS_7phoenix7vector2IRNS2_7vector3IPKNS2_5actorINS_3log12v2s_mt_posix11expressions3aux25attribute_output_terminalINS5_INS_5proto7exprns_10basic_exprINSB_6tagns_3tag8terminalENSB_7argsns_4termINS2_8argumentILi2EEEEELl0EEEEENS7_7trivial14severity_levelENS7_16fallback_to_noneENS7_10to_log_funIvEEEEEERKNS7_11record_viewERNS9_10stream_refINS7_24basic_formatting_ostreamIcSt11char_traitsIcESaIcEEEEEEERKNS2_15default_actionsEEEEENS0_9result_of4at_cIKT0_XT_EE4typeERS1H_
_ZN5boost6fusion2atIN4mpl_4int_ILi0EEENS_7phoenix7vector2IRNS5_7vector3IPKNS5_5actorINS_3log12v2s_mt_posix11expressions3aux25attribute_output_terminalINS8_INS_5proto7exprns_10basic_exprINSE_6tagns_3tag8terminalENSE_7argsns_4termINS5_8argumentILi2EEEEELl0EEEEENSA_7trivial14severity_levelENSA_16fallback_to_noneENSA_10to_log_funIvEEEEEERKNSA_11record_viewERNSC_10stream_refINSA_24basic_formatting_ostreamIcSt11char_traitsIcESaIcEEEEEEERKNS5_15default_actionsEEEEENS0_9result_of2atIKT0_T_E4typeERS1K_
_ZN5boost6fusion9extension6access13struct_memberINS_7phoenix7vector2IRNS4_7vector3IPKNS4_5actorINS_3log12v2s_mt_posix11expressions3aux25attribute_output_terminalINS7_INS_5proto7exprns_10basic_exprINSD_6tagns_3tag8terminalENSD_7argsns_4termINS4_8argumentILi2EEEEELl0EEEEENS9_7trivial14severity_levelENS9_16fallback_to_noneENS9_10to_log_funIvEEEEEERKNS9_11record_viewERNSB_10stream_refINS9_24basic_formatting_ostreamIcSt11char_traitsIcESaIcEEEEEEERKNS4_15default_actionsEEELi0EE5applyIKS1F_E4callERS1I_
_ZN5boost6fusion4at_cILi1ENS_7phoenix7vector2IRNS2_7vector3IPKNS2_5actorINS_3log12v2s_mt_posix11expressions3aux25attribute_output_terminalINS5_INS_5proto7exprns_10basic_exprINSB_6tagns_3tag8terminalENSB_7argsns_4termINS2_8argumentILi2EEEEELl0EEEEENS7_7trivial14severity_levelENS7_16fallback_to_noneENS7_10to_log_funIvEEEEEERKNS7_11record_viewERNS9_10stream_refINS7_24basic_formatting_ostreamIcSt11char_traitsIcESaIcEEEEEEERKNS2_15default_actionsEEEEENS0_9result_of4at_cIKT0_XT_EE4typeERS1H_
_ZN5boost6fusion2atIN4mpl_4int_ILi1EEENS_7phoenix7vector2IRNS5_7vector3IPKNS5_5actorINS_3log12v2s_mt_posix11expressions3aux25attribute_output_terminalINS8_INS_5proto7exprns_10basic_exprINSE_6tagns_3tag8terminalENSE_7argsns_4termINS5_8argumentILi2EEEEELl0EEEEENSA_7trivial14severity_levelENSA_16fallback_to_noneENSA_10to_log_funIvEEEEEERKNSA_11record_viewERNSC_10stream_refINSA_24basic_formatting_ostreamIcSt11char_traitsIcESaIcEEEEEEERKNS5_15default_actionsEEEEENS0_9result_of2atIKT0_T_E4typeERS1K_
_ZN5boost6fusion9extension6access13struct_memberINS_7phoenix7vector2IRNS4_7vector3IPKNS4_5actorINS_3log12v2s_mt_posix11expressions3aux25attribute_output_terminalINS7_INS_5proto7exprns_10basic_exprINSD_6tagns_3tag8terminalENSD_7argsns_4termINS4_8argumentILi2EEEEELl0EEEEENS9_7trivial14severity_levelENS9_16fallback_to_noneENS9_10to_log_funIvEEEEEERKNS9_11record_viewERNSB_10stream_refINS9_24basic_formatting_ostreamIcSt11char_traitsIcESaIcEEEEEEERKNS4_15default_actionsEEELi1EE5applyIKS1F_E4callERS1I_
_ZN5boost3log12v2s_mt_posix3aux14light_functionIFvRKNS1_11record_viewENS1_11expressions3aux10stream_refINS1_24basic_formatting_ostreamIcSt11char_traitsIcESaIcEEEEEEE4implINS_7phoenix5actorINS8_25attribute_output_terminalINSK_INS_5proto7exprns_10basic_exprINSM_6tagns_3tag8terminalENSM_7argsns_4termINSJ_8argumentILi2EEEEELl0EEEEENS1_7trivial14severity_levelENS1_16fallback_to_noneENS1_10to_log_funIvEEEEEEEC2ERKS15_
_ZN5boost5proto7exprns_4exprINS0_6tagns_3tag8terminalENS0_7argsns_4termINS_3log12v2s_mt_posix11expressions3aux25attribute_output_terminalINS_7phoenix5actorINS1_10basic_exprIS5_NS7_INSD_8argumentILi2EEEEELl0EEEEENS9_7trivial14severity_levelENS9_16fallback_to_noneENS9_10to_log_funIvEEEEEELl0EEC2ERKSS_
_ZN5boost3log12v2s_mt_posix11expressions3aux25attribute_output_terminalINS_7phoenix5actorINS_5proto7exprns_10basic_exprINS7_6tagns_3tag8terminalENS7_7argsns_4termINS5_8argumentILi2EEEEELl0EEEEENS1_7trivial14severity_levelENS1_16fallback_to_noneENS1_10to_log_funIvEEEC2ERKSP_
_ZN5boost3log12v2s_mt_posix21value_visitor_invokerINS1_7trivial14severity_levelENS1_16fallback_to_noneEEC2ERKS6_
_ZN5boost6detail12shared_countC2ERKS1_
_ZN5boost6detail15sp_counted_base12add_ref_copyEv
_ZN5boost6detail16atomic_incrementEPU7_Atomici
_ZN5boost6detail12shared_countC2Ev
_ZN5boost6detail21sp_assert_convertibleINS_3log12v2s_mt_posix23basic_formatter_factoryIcNS3_7trivial14severity_levelEEENS3_17formatter_factoryIcEEEEvv
_ZN5boost6detail12shared_count4swapERS1_
_ZN5boost3log12v2s_mt_posix3aux15add_console_logIcNS_9parameter3aux25tagged_argument_list_of_1INS5_15tagged_argumentINS1_8keywords3tag6formatEA38_KcEEEEEENS_10shared_ptrINS1_5sinks16synchronous_sinkINSG_26basic_text_ostream_backendIT_EEEEEERSt13basic_ostreamISJ_St11char_traitsISJ_EERKT0_
_ZN5boost10shared_ptrISoEC2ISoNS_12null_deleterEEEPT_T0_
_ZN5boost11make_sharedINS_3log12v2s_mt_posix5sinks26basic_text_ostream_backendIcEEJRKNS_9parameter3aux25tagged_argument_list_of_1INS7_15tagged_argumentINS2_8keywords3tag6formatEA38_KcEEEEEEENS_6detail15sp_if_not_arrayIT_E4typeEDpOT0_
_ZNK5boost10shared_ptrINS_3log12v2s_mt_posix5sinks26basic_text_ostream_backendIcEEEptEv
_ZN5boost3log12v2s_mt_posix5sinks26basic_text_ostream_backendIcE10add_streamERKNS_10shared_ptrISoEE
_ZN5boost11make_sharedINS_3log12v2s_mt_posix5sinks16synchronous_sinkINS3_26basic_text_ostream_backendIcEEEEJRNS_10shared_ptrIS6_EEEEENS_6detail15sp_if_not_arrayIT_E4typeEDpOT0_
_ZN5boost3log12v2s_mt_posix3aux12setup_filterINS1_5sinks16synchronous_sinkINS4_26basic_text_ostream_backendIcEEEENS_9parameter3aux25tagged_argument_list_of_1INSA_15tagged_argumentINS1_8keywords3tag6formatEA38_KcEEEEEEvRT_RKT0_N4mpl_5bool_ILb1EEE
_ZNK5boost10shared_ptrINS_3log12v2s_mt_posix5sinks16synchronous_sinkINS3_26basic_text_ostream_backendIcEEEEEdeEv
_ZNK5boost17integral_constantIbLb1EEcvRKN4mpl_5bool_ILb1EEEEv
_ZN5boost3log12v2s_mt_posix3aux15setup_formatterINS1_5sinks16synchronous_sinkINS4_26basic_text_ostream_backendIcEEEENS_9parameter3aux25tagged_argument_list_of_1INSA_15tagged_argumentINS1_8keywords3tag6formatEA38_KcEEEEEEvRT_RKT0_N4mpl_5bool_ILb0EEE
_ZNK5boost17integral_constantIbLb0EEcvRKN4mpl_5bool_ILb0EEEEv
_ZN5boost3log12v2s_mt_posix4core8add_sinkERKNS_10shared_ptrINS1_5sinks4sinkEEE
_ZN5boost10shared_ptrINS_3log12v2s_mt_posix5sinks4sinkEEC2INS3_16synchronous_sinkINS3_26basic_text_ostream_backendIcEEEEEERKNS0_IT_EENS_6detail24sp_enable_if_convertibleISB_S4_E4typeE
_ZN5boost10shared_ptrINS_3log12v2s_mt_posix5sinks4sinkEED2Ev
_ZN5boost10shared_ptrINS_3log12v2s_mt_posix5sinks26basic_text_ostream_backendIcEEED2Ev
_ZN5boost10shared_ptrISoED2Ev
_ZN5boost6detail12shared_countC2IPSoNS_12null_deleterEEET_T0_
_ZN5boost6detail20sp_deleter_constructISoSoEEvPNS_10shared_ptrIT_EEPT0_
_ZN5boost6detail18sp_counted_impl_pdIPSoNS_12null_deleterEEC2ES2_RS3_
_ZNK5boost12null_deleterclISoEEvPT_
_ZN5boost6detail18sp_counted_impl_pdIPSoNS_12null_deleterEED2Ev
_ZN5boost6detail18sp_counted_impl_pdIPSoNS_12null_deleterEED0Ev
_ZN5boost6detail18sp_counted_impl_pdIPSoNS_12null_deleterEE7disposeEv
_ZN5boost6detail18sp_counted_impl_pdIPSoNS_12null_deleterEE11get_deleterERKSt9type_info
_ZN5boost6detail18sp_counted_impl_pdIPSoNS_12null_deleterEE17get_local_deleterERKSt9type_info
_ZN5boost6detail18sp_counted_impl_pdIPSoNS_12null_deleterEE19get_untyped_deleterEv
_ZN5boost6detail17get_local_deleterINS_12null_deleterEEEPT_S4_
_ZN5boost9addressofINS_12null_deleterEEEPT_RS2_
_ZN5boost10shared_ptrINS_3log12v2s_mt_posix5sinks26basic_text_ostream_backendIcEEEC2IS5_NS_6detail14sp_inplace_tagINS8_13sp_ms_deleterIS5_EEEEEEPT_T0_
_ZNK5boost10shared_ptrINS_3log12v2s_mt_posix5sinks26basic_text_ostream_backendIcEEE29_internal_get_untyped_deleterEv
_ZN5boost6detail13sp_ms_deleterINS_3log12v2s_mt_posix5sinks26basic_text_ostream_backendIcEEE7addressEv
_ZN5boost6detail10sp_forwardIRKNS_9parameter3aux25tagged_argument_list_of_1INS3_15tagged_argumentINS_3log12v2s_mt_posix8keywords3tag6formatEA38_KcEEEEEEOT_RSH_
_ZN5boost3log12v2s_mt_posix5sinks26basic_text_ostream_backendIcEC2INS_9parameter3aux25tagged_argument_list_of_1INS7_15tagged_argumentINS1_8keywords3tag6formatEA38_KcEEEEEERKT_NS_11enable_if_cIXsr5boost3mpl3or_INS_10is_base_ofINS7_20tagged_argument_baseESH_EENSL_INS7_14empty_arg_listESH_EEEE5valueENS1_3aux12sfinae_dummyEE4typeE
_ZN5boost6detail13sp_ms_deleterINS_3log12v2s_mt_posix5sinks26basic_text_ostream_backendIcEEE15set_initializedEv
_ZN5boost10shared_ptrINS_3log12v2s_mt_posix5sinks26basic_text_ostream_backendIcEEEC2IS5_EERKNS0_IT_EEPS5_
_ZN5boost6detail12shared_countC2IPNS_3log12v2s_mt_posix5sinks26basic_text_ostream_backendIcEENS0_13sp_ms_deleterIS7_EEEET_NS0_14sp_inplace_tagIT0_EE
_ZN5boost6detail20sp_deleter_constructINS_3log12v2s_mt_posix5sinks26basic_text_ostream_backendIcEES6_EEvPNS_10shared_ptrIT_EEPT0_
_ZN5boost6detail18sp_counted_impl_pdIPNS_3log12v2s_mt_posix5sinks26basic_text_ostream_backendIcEENS0_13sp_ms_deleterIS6_EEEC2ES7_
_ZN5boost6detail13sp_ms_deleterINS_3log12v2s_mt_posix5sinks26basic_text_ostream_backendIcEEE11operator_fnEPS6_
_ZN5boost6detail13sp_ms_deleterINS_3log12v2s_mt_posix5sinks26basic_text_ostream_backendIcEEEC2Ev
_ZN5boost6detail18sp_counted_impl_pdIPNS_3log12v2s_mt_posix5sinks26basic_text_ostream_backendIcEENS0_13sp_ms_deleterIS6_EEED2Ev
_ZN5boost6detail18sp_counted_impl_pdIPNS_3log12v2s_mt_posix5sinks26basic_text_ostream_backendIcEENS0_13sp_ms_deleterIS6_EEED0Ev
_ZN5boost6detail18sp_counted_impl_pdIPNS_3log12v2s_mt_posix5sinks26basic_text_ostream_backendIcEENS0_13sp_ms_deleterIS6_EEE7disposeEv
_ZN5boost6detail18sp_counted_impl_pdIPNS_3log12v2s_mt_posix5sinks26basic_text_ostream_backendIcEENS0_13sp_ms_deleterIS6_EEE11get_deleterERKSt9type_info
_ZN5boost6detail18sp_counted_impl_pdIPNS_3log12v2s_mt_posix5sinks26basic_text_ostream_backendIcEENS0_13sp_ms_deleterIS6_EEE17get_local_deleterERKSt9type_info
_ZN5boost6detail18sp_counted_impl_pdIPNS_3log12v2s_mt_posix5sinks26basic_text_ostream_backendIcEENS0_13sp_ms_deleterIS6_EEE19get_untyped_deleterEv
_ZN5boost6detail13sp_ms_deleterINS_3log12v2s_mt_posix5sinks26basic_text_ostream_backendIcEEED2Ev
_ZN5boost6detail13sp_ms_deleterINS_3log12v2s_mt_posix5sinks26basic_text_ostream_backendIcEEE7destroyEv
_ZN5boost3log12v2s_mt_posix5sinks26basic_text_ostream_backendIcED1Ev
_ZN5boost6detail13sp_ms_deleterINS_3log12v2s_mt_posix5sinks26basic_text_ostream_backendIcEEEclEPS6_
_ZN5boost6detail17get_local_deleterINS0_13sp_ms_deleterINS_3log12v2s_mt_posix5sinks26basic_text_ostream_backendIcEEEEEEPT_SA_
_ZN5boost9addressofINS_6detail13sp_ms_deleterINS_3log12v2s_mt_posix5sinks26basic_text_ostream_backendIcEEEEEEPT_RS9_
_ZN5boost3log12v2s_mt_posix5sinks26basic_text_ostream_backendIcE9constructINS_9parameter3aux25tagged_argument_list_of_1INS7_15tagged_argumentINS1_8keywords3tag6formatEA38_KcEEEEEEvRKT_
_ZN5boost3log12v2s_mt_posix5sinks26basic_text_ostream_backendIcE9constructENS2_17auto_newline_modeEb
_ZNK5boost9parameter3aux15tagged_argumentINS_3log12v2s_mt_posix8keywords3tag6formatEA38_KcEixINS6_17auto_newline_modeEKNS4_5sinks17auto_newline_modeEEERT0_RKNS1_8default_IT_SG_EE
_ZNK5boost9parameter7keywordINS_3log12v2s_mt_posix8keywords3tag17auto_newline_modeEEorINS3_5sinks17auto_newline_modeEEENS_9enable_ifINS_4mp116detail12mp_if_c_implIXscbsrSt9is_scalarIT_E5valueESt17integral_constantIbLb1EEJSt7is_sameINS0_17forward_referenceESL_EEE4typeENS0_3aux8default_IS6_KSG_EEE4typeERSR_
_ZNK5boost9parameter3aux15tagged_argumentINS_3log12v2s_mt_posix8keywords3tag6formatEA38_KcEixINS6_10auto_flushEKbEERT0_RKNS1_8default_IT_SE_EE
_ZNK5boost9parameter7keywordINS_3log12v2s_mt_posix8keywords3tag10auto_flushEEorIbEENS_9enable_ifINS_4mp116detail12mp_if_c_implIXscbsrSt9is_scalarIT_E5valueESt17integral_constantIbLb1EEJSt7is_sameINS0_17forward_referenceESJ_EEE4typeENS0_3aux8default_IS6_KSE_EEE4typeERSP_
_ZN5boost9parameter3aux8default_INS_3log12v2s_mt_posix8keywords3tag17auto_newline_modeEKNS4_5sinks17auto_newline_modeEEC2ERSA_
_ZN5boost9parameter3aux8default_INS_3log12v2s_mt_posix8keywords3tag10auto_flushEKbEC2ERS8_
_ZN5boost10shared_ptrINS_3log12v2s_mt_posix5sinks16synchronous_sinkINS3_26basic_text_ostream_backendIcEEEEEC2IS7_NS_6detail14sp_inplace_tagINSA_13sp_ms_deleterIS7_EEEEEEPT_T0_
_ZNK5boost10shared_ptrINS_3log12v2s_mt_posix5sinks16synchronous_sinkINS3_26basic_text_ostream_backendIcEEEEE29_internal_get_untyped_deleterEv
_ZN5boost6detail13sp_ms_deleterINS_3log12v2s_mt_posix5sinks16synchronous_sinkINS4_26basic_text_ostream_backendIcEEEEE7addressEv
_ZN5boost6detail10sp_forwardIRNS_10shared_ptrINS_3log12v2s_mt_posix5sinks26basic_text_ostream_backendIcEEEEEEOT_RSA_
_ZN5boost3log12v2s_mt_posix5sinks16synchronous_sinkINS2_26basic_text_ostream_backendIcEEEC2ERKNS_10shared_ptrIS5_EE
_ZN5boost6detail13sp_ms_deleterINS_3log12v2s_mt_posix5sinks16synchronous_sinkINS4_26basic_text_ostream_backendIcEEEEE15set_initializedEv
_ZN5boost10shared_ptrINS_3log12v2s_mt_posix5sinks16synchronous_sinkINS3_26basic_text_ostream_backendIcEEEEEC2IS7_EERKNS0_IT_EEPS7_
_ZN5boost6detail12shared_countC2IPNS_3log12v2s_mt_posix5sinks16synchronous_sinkINS5_26basic_text_ostream_backendIcEEEENS0_13sp_ms_deleterIS9_EEEET_NS0_14sp_inplace_tagIT0_EE
_ZN5boost6detail20sp_deleter_constructINS_3log12v2s_mt_posix5sinks16synchronous_sinkINS4_26basic_text_ostream_backendIcEEEES8_EEvPNS_10shared_ptrIT_EEPT0_
_ZN5boost6detail18sp_counted_impl_pdIPNS_3log12v2s_mt_posix5sinks16synchronous_sinkINS4_26basic_text_ostream_backendIcEEEENS0_13sp_ms_deleterIS8_EEEC2ES9_
_ZN5boost6detail13sp_ms_deleterINS_3log12v2s_mt_posix5sinks16synchronous_sinkINS4_26basic_text_ostream_backendIcEEEEE11operator_fnEPS8_
_ZN5boost6detail13sp_ms_deleterINS_3log12v2s_mt_posix5sinks16synchronous_sinkINS4_26basic_text_ostream_backendIcEEEEEC2Ev
_ZN5boost6detail18sp_counted_impl_pdIPNS_3log12v2s_mt_posix5sinks16synchronous_sinkINS4_26basic_text_ostream_backendIcEEEENS0_13sp_ms_deleterIS8_EEED2Ev
_ZN5boost6detail18sp_counted_impl_pdIPNS_3log12v2s_mt_posix5sinks16synchronous_sinkINS4_26basic_text_ostream_backendIcEEEENS0_13sp_ms_deleterIS8_EEED0Ev
_ZN5boost6detail18sp_counted_impl_pdIPNS_3log12v2s_mt_posix5sinks16synchronous_sinkINS4_26basic_text_ostream_backendIcEEEENS0_13sp_ms_deleterIS8_EEE7disposeEv
_ZN5boost6detail18sp_counted_impl_pdIPNS_3log12v2s_mt_posix5sinks16synchronous_sinkINS4_26basic_text_ostream_backendIcEEEENS0_13sp_ms_deleterIS8_EEE11get_deleterERKSt9type_info
_ZN5boost6detail18sp_counted_impl_pdIPNS_3log12v2s_mt_posix5sinks16synchronous_sinkINS4_26basic_text_ostream_backendIcEEEENS0_13sp_ms_deleterIS8_EEE17get_local_deleterERKSt9type_info
_ZN5boost6detail18sp_counted_impl_pdIPNS_3log12v2s_mt_posix5sinks16synchronous_sinkINS4_26basic_text_ostream_backendIcEEEENS0_13sp_ms_deleterIS8_EEE19get_untyped_deleterEv
_ZN5boost6detail13sp_ms_deleterINS_3log12v2s_mt_posix5sinks16synchronous_sinkINS4_26basic_text_ostream_backendIcEEEEED2Ev
_ZN5boost6detail13sp_ms_deleterINS_3log12v2s_mt_posix5sinks16synchronous_sinkINS4_26basic_text_ostream_backendIcEEEEE7destroyEv
_ZN5boost6detail13sp_ms_deleterINS_3log12v2s_mt_posix5sinks16synchronous_sinkINS4_26basic_text_ostream_backendIcEEEEEclEPS8_
_ZN5boost6detail17get_local_deleterINS0_13sp_ms_deleterINS_3log12v2s_mt_posix5sinks16synchronous_sinkINS5_26basic_text_ostream_backendIcEEEEEEEEPT_SC_
_ZN5boost9addressofINS_6detail13sp_ms_deleterINS_3log12v2s_mt_posix5sinks16synchronous_sinkINS5_26basic_text_ostream_backendIcEEEEEEEEPT_RSB_
_ZN5boost3log12v2s_mt_posix5sinks30basic_formatting_sink_frontendIcEC2Eb
_ZN5boost15recursive_mutexC2Ev
_ZN5boost10shared_ptrINS_3log12v2s_mt_posix5sinks26basic_text_ostream_backendIcEEEC2ERKS6_
_ZN5boost3log12v2s_mt_posix5sinks16synchronous_sinkINS2_26basic_text_ostream_backendIcEEED2Ev
_ZN5boost3log12v2s_mt_posix5sinks16synchronous_sinkINS2_26basic_text_ostream_backendIcEEED0Ev
_ZN5boost3log12v2s_mt_posix5sinks19basic_sink_frontend12will_consumeERKNS1_19attribute_value_setE
_ZN5boost3log12v2s_mt_posix5sinks16synchronous_sinkINS2_26basic_text_ostream_backendIcEEE7consumeERKNS1_11record_viewE
_ZN5boost3log12v2s_mt_posix5sinks16synchronous_sinkINS2_26basic_text_ostream_backendIcEEE11try_consumeERKNS1_11record_viewE
_ZN5boost3log12v2s_mt_posix5sinks16synchronous_sinkINS2_26basic_text_ostream_backendIcEEE5flushEv
_ZN5boost3log12v2s_mt_posix5sinks19basic_sink_frontendC2Eb
_ZN5boost3log12v2s_mt_posix15basic_formatterIcEC2Ev
_ZNSt6localeC1Ev
_ZN5boost19thread_specific_ptrINS_3log12v2s_mt_posix5sinks30basic_formatting_sink_frontendIcE18formatting_contextEEC2Ev
_ZNSt6localeD1Ev
_ZN5boost3log12v2s_mt_posix15basic_formatterIcED2Ev
_ZN5boost3log12v2s_mt_posix5sinks30basic_formatting_sink_frontendIcED2Ev
_ZN5boost3log12v2s_mt_posix5sinks30basic_formatting_sink_frontendIcED0Ev
_ZN5boost3log12v2s_mt_posix5sinks4sink11try_consumeERKNS1_11record_viewE
_ZN5boost3log12v2s_mt_posix5sinks4sinkC2Eb
_ZN5boost3log12v2s_mt_posix3aux14light_rw_mutexC2Ev
_ZN5boost3log12v2s_mt_posix6filterC2Ev
_ZN5boost3log12v2s_mt_posix3aux14light_functionIFvvEEC2Ev
_ZN5boost3log12v2s_mt_posix3aux14light_rw_mutexD2Ev
_ZN5boost3log12v2s_mt_posix5sinks19basic_sink_frontendD2Ev
_ZN5boost3log12v2s_mt_posix5sinks19basic_sink_frontendD0Ev
_ZN5boost3log12v2s_mt_posix5sinks4sinkD2Ev
_ZN5boost3log12v2s_mt_posix5sinks4sinkD0Ev
pthread_rwlock_init
_ZN5boost3log12v2s_mt_posix3aux14light_functionIFbRKNS1_19attribute_value_setEEEC2INS1_6filter14default_filterEEEOT_
_ZN5boost7forwardINS_3log12v2s_mt_posix6filter14default_filterEEEOT_RNS_11move_detail16remove_referenceIS5_E4typeE
_ZN5boost3log12v2s_mt_posix3aux14light_functionIFbRKNS1_19attribute_value_setEEE4implINS1_6filter14default_filterEEC2EOSB_
_ZN5boost3log12v2s_mt_posix3aux14light_functionIFbRKNS1_19attribute_value_setEEE4implINS1_6filter14default_filterEE11invoke_implEPvS6_
_ZN5boost3log12v2s_mt_posix3aux14light_functionIFbRKNS1_19attribute_value_setEEE4implINS1_6filter14default_filterEE10clone_implEPKv
_ZN5boost3log12v2s_mt_posix3aux14light_functionIFbRKNS1_19attribute_value_setEEE4implINS1_6filter14default_filterEE12destroy_implEPv
_ZN5boost3log12v2s_mt_posix3aux14light_functionIFbRKNS1_19attribute_value_setEEE9impl_baseC2EPFbPvS6_EPFPS9_PKvEPFvSA_E
_ZN5boost4moveIRNS_3log12v2s_mt_posix6filter14default_filterEEEONS_11move_detail16remove_referenceIT_E4typeEOS8_
_ZNK5boost3log12v2s_mt_posix6filter14default_filterclERKNS1_19attribute_value_setE
_ZN5boost3log12v2s_mt_posix3aux14light_functionIFbRKNS1_19attribute_value_setEEE4implINS1_6filter14default_filterEEC2ERKSB_
pthread_rwlock_destroy
_ZN5boost3log12v2s_mt_posix11expressions3aux17message_formatterC2Ev
_ZN5boost3log12v2s_mt_posix3aux14light_functionIFvRKNS1_11record_viewENS1_11expressions3aux10stream_refINS1_24basic_formatting_ostreamIcSt11char_traitsIcESaIcEEEEEEEC2INS8_17message_formatterEEEOT_
_ZN5boost3log12v2s_mt_posix11expressions3tag7message8get_nameEv
_ZN5boost3log12v2s_mt_posix3aux23default_attribute_names7messageEv
_ZN5boost7forwardINS_3log12v2s_mt_posix11expressions3aux17message_formatterEEEOT_RNS_11move_detail16remove_referenceIS6_E4typeE
_ZN5boost3log12v2s_mt_posix3aux14light_functionIFvRKNS1_11record_viewENS1_11expressions3aux10stream_refINS1_24basic_formatting_ostreamIcSt11char_traitsIcESaIcEEEEEEE4implINS8_17message_formatterEEC2EOSJ_
_ZN5boost3log12v2s_mt_posix3aux14light_functionIFvRKNS1_11record_viewENS1_11expressions3aux10stream_refINS1_24basic_formatting_ostreamIcSt11char_traitsIcESaIcEEEEEEE4implINS8_17message_formatterEE11invoke_implEPvS6_SF_
_ZN5boost3log12v2s_mt_posix3aux14light_functionIFvRKNS1_11record_viewENS1_11expressions3aux10stream_refINS1_24basic_formatting_ostreamIcSt11char_traitsIcESaIcEEEEEEE4implINS8_17message_formatterEE10clone_implEPKv
_ZN5boost3log12v2s_mt_posix3aux14light_functionIFvRKNS1_11record_viewENS1_11expressions3aux10stream_refINS1_24basic_formatting_ostreamIcSt11char_traitsIcESaIcEEEEEEE4implINS8_17message_formatterEE12destroy_implEPv
_ZN5boost4moveIRNS_3log12v2s_mt_posix11expressions3aux17message_formatterEEEONS_11move_detail16remove_referenceIT_E4typeEOS9_
_ZN5boost3log12v2s_mt_posix5visitINS_3mpl7vector2INSt7__cxx1112basic_stringIcSt11char_traitsIcESaIcEEENS6_IwS7_IwESaIwEEEEENS1_9binder1stINS1_10output_funERNS1_11expressions3aux10stream_refINS1_24basic_formatting_ostreamIcS8_S9_EEEEEEEENS1_17visitation_resultERKNS1_14attribute_nameERKNS1_11record_viewET0_
_ZNK5boost3log12v2s_mt_posix21value_visitor_invokerINS_3mpl7vector2INSt7__cxx1112basic_stringIcSt11char_traitsIcESaIcEEENS6_IwS7_IwESaIwEEEEENS1_16fallback_to_noneEEclINS1_9binder1stINS1_10output_funERNS1_11expressions3aux10stream_refINS1_24basic_formatting_ostreamIcS8_S9_EEEEEEEENS1_17visitation_resultERKNS1_14attribute_nameERKNS1_11record_viewET_
_ZNK5boost3log12v2s_mt_posix21value_visitor_invokerINS_3mpl7vector2INSt7__cxx1112basic_stringIcSt11char_traitsIcESaIcEEENS6_IwS7_IwESaIwEEEEENS1_16fallback_to_noneEEclINS1_9binder1stINS1_10output_funERNS1_11expressions3aux10stream_refINS1_24basic_formatting_ostreamIcS8_S9_EEEEEEEENS1_17visitation_resultERKNS1_14attribute_nameERKNS1_19attribute_value_setET_
_ZNK5boost3log12v2s_mt_posix21value_visitor_invokerINS_3mpl7vector2INSt7__cxx1112basic_stringIcSt11char_traitsIcESaIcEEENS6_IwS7_IwESaIwEEEEENS1_16fallback_to_noneEEclINS1_9binder1stINS1_10output_funERNS1_11expressions3aux10stream_refINS1_24basic_formatting_ostreamIcS8_S9_EEEEEEEENS1_17visitation_resultERKNS1_15attribute_valueET_
_ZN5boost3log12v2s_mt_posix22static_type_dispatcherINS_3mpl7vector2INSt7__cxx1112basic_stringIcSt11char_traitsIcESaIcEEENS6_IwS7_IwESaIwEEEEEEC2INS1_9binder1stINS1_10output_funERNS1_11expressions3aux10stream_refINS1_24basic_formatting_ostreamIcS8_S9_EEEEEEEERT_
_ZN5boost3log12v2s_mt_posix16fallback_to_none13apply_defaultINS1_9binder1stINS1_10output_funERNS1_11expressions3aux10stream_refINS1_24basic_formatting_ostreamIcSt11char_traitsIcESaIcEEEEEEEEEbRT_
_ZN5boost3log12v2s_mt_posix3aux24type_sequence_dispatcherINS_3mpl7vector2INSt7__cxx1112basic_stringIcSt11char_traitsIcESaIcEEENS7_IwS8_IwESaIwEEEEEEC2INS1_9binder1stINS1_10output_funERNS1_11expressions3aux10stream_refINS1_24basic_formatting_ostreamIcS9_SA_EEEEEEEERT_
_ZN5boost3log12v2s_mt_posix3aux24type_sequence_dispatcherINS_3mpl7vector2INSt7__cxx1112basic_stringIcSt11char_traitsIcESaIcEEENS7_IwS8_IwESaIwEEEEEE19get_dispatching_mapINS1_9binder1stINS1_10output_funERNS1_11expressions3aux10stream_refINS1_24basic_formatting_ostreamIcS9_SA_EEEEEEEERKNS_5arrayISt4pairINS_9typeindex14stl_type_indexEPvELm2EEEv
_ZNK5boost5arrayISt4pairINS_9typeindex14stl_type_indexEPvELm2EE4dataEv
_ZN5boost9addressofINS_3log12v2s_mt_posix9binder1stINS2_10output_funERNS2_11expressions3aux10stream_refINS2_24basic_formatting_ostreamIcSt11char_traitsIcESaIcEEEEEEEEEPT_RSG_
_ZN5boost3log12v2s_mt_posix3aux29type_sequence_dispatcher_baseC2EPKSt4pairINS_9typeindex14stl_type_indexEPvEmS7_
_ZN5boost3log12v2s_mt_posix3aux17once_block_sentryC2ERNS1_15once_block_flagE
_ZNK5boost3log12v2s_mt_posix3aux17once_block_sentry8executedEv
_ZN5boost5arrayISt4pairINS_9typeindex14stl_type_indexEPvELm2EEC2Ev
_ZN5boost5arrayISt4pairINS_9typeindex14stl_type_indexEPvELm2EE5beginEv
_ZSt4sortIPSt4pairIN5boost9typeindex14stl_type_indexEPvENS1_3log12v2s_mt_posix3aux21dispatching_map_orderEEvT_SB_T0_
_ZN5boost5arrayISt4pairINS_9typeindex14stl_type_indexEPvELm2EE3endEv
_ZN5boost3log12v2s_mt_posix3aux17once_block_sentry6commitEv
_ZN5boost3log12v2s_mt_posix3aux17once_block_sentryD2Ev
_ZNK5boost3log12v2s_mt_posix3aux17once_block_sentry16enter_once_blockEv
_ZNSt4pairIN5boost9typeindex14stl_type_indexEPvEC2IS2_S3_Lb1EEEv
_ZN5boost9typeindex7type_idINSt7__cxx1112basic_stringIcSt11char_traitsIcESaIcEEEEENS0_14stl_type_indexEv
_ZN5boost3log12v2s_mt_posix15type_dispatcher13callback_base10trampolineINS1_9binder1stINS1_10output_funERNS1_11expressions3aux10stream_refINS1_24basic_formatting_ostreamIcSt11char_traitsIcESaIcEEEEEEENSt7__cxx1112basic_stringIcSC_SD_EEEEvPvRKT0_
_ZN5boost9typeindex14stl_type_index7type_idINSt7__cxx1112basic_stringIcSt11char_traitsIcESaIcEEEEES1_v
_ZNK5boost3log12v2s_mt_posix9binder1stINS1_10output_funERNS1_11expressions3aux10stream_refINS1_24basic_formatting_ostreamIcSt11char_traitsIcESaIcEEEEEEclINSt7__cxx1112basic_stringIcS9_SA_EEEEvRKT_
_ZNK5boost3log12v2s_mt_posix10output_funclINS1_11expressions3aux10stream_refINS1_24basic_formatting_ostreamIcSt11char_traitsIcESaIcEEEEENSt7__cxx1112basic_stringIcS9_SA_EEEEvRT_RKT0_
_ZN5boost3log12v2s_mt_posixlsIcSt11char_traitsIcESaIcEEENS1_3aux30enable_if_streamable_char_typeIT_RNS1_24basic_formatting_ostreamIcS4_S5_EEE4typeESB_RKNSt7__cxx1112basic_stringIS8_T0_T1_EE
_ZN5boost3log12v2s_mt_posix24basic_formatting_ostreamIcSt11char_traitsIcESaIcEE15formatted_writeEPKcl
_ZN5boost3log12v2s_mt_posix24basic_formatting_ostreamIcSt11char_traitsIcESaIcEE6sentryC2ERS6_
_ZNK5boost3log12v2s_mt_posix24basic_formatting_ostreamIcSt11char_traitsIcESaIcEE6sentryntEv
_ZNSo5flushEv
_ZNKSt8ios_base5widthEv
_ZN5boost3log12v2s_mt_posix3aux22basic_ostringstreambufIcSt11char_traitsIcESaIcEE6appendEPKcm
_ZN5boost3log12v2s_mt_posix24basic_formatting_ostreamIcSt11char_traitsIcESaIcEE13aligned_writeEPKcl
_ZNSt8ios_base5widthEl
_ZN5boost3log12v2s_mt_posix24basic_formatting_ostreamIcSt11char_traitsIcESaIcEE6sentryD2Ev
_ZNSo6sentryC2ERSo
_ZNKSo6sentrycvbEv
_ZNK5boost3log12v2s_mt_posix3aux22basic_ostringstreambufIcSt11char_traitsIcESaIcEE9size_leftEv
_ZNSt7__cxx1112basic_stringIcSt11char_traitsIcESaIcEE6appendEPKcm
_ZNK5boost3log12v2s_mt_posix3aux22basic_ostringstreambufIcSt11char_traitsIcESaIcEE21length_until_boundaryEPKcmm
_ZNK5boost3log12v2s_mt_posix3aux22basic_ostringstreambufIcSt11char_traitsIcESaIcEE21length_until_boundaryEPKcmmNS_17integral_constantIbLb1EEE
_ZNKSt15basic_streambufIcSt11char_traitsIcEE6getlocEv
_ZSt9use_facetISt7codecvtIwc11__mbstate_tEERKT_RKSt6locale
_ZNKSt23__codecvt_abstract_baseIwc11__mbstate_tE6lengthERS0_PKcS4_m
_ZNKSt8ios_base5flagsEv
_ZN5boost3log12v2s_mt_posix3aux22basic_ostringstreambufIcSt11char_traitsIcESaIcEE6appendEmc
_ZNKSt9basic_iosIcSt11char_traitsIcEE4fillEv
_ZNSt7__cxx1112basic_stringIcSt11char_traitsIcESaIcEE6appendEmc
_ZNSo6sentryD2Ev
_ZN5boost9typeindex7type_idINSt7__cxx1112basic_stringIwSt11char_traitsIwESaIwEEEEENS0_14stl_type_indexEv
_ZN5boost3log12v2s_mt_posix15type_dispatcher13callback_base10trampolineINS1_9binder1stINS1_10output_funERNS1_11expressions3aux10stream_refINS1_24basic_formatting_ostreamIcSt11char_traitsIcESaIcEEEEEEENSt7__cxx1112basic_stringIwSB_IwESaIwEEEEEvPvRKT0_
_ZN5boost9typeindex14stl_type_index7type_idINSt7__cxx1112basic_stringIwSt11char_traitsIwESaIwEEEEES1_v
_ZNK5boost3log12v2s_mt_posix9binder1stINS1_10output_funERNS1_11expressions3aux10stream_refINS1_24basic_formatting_ostreamIcSt11char_traitsIcESaIcEEEEEEclINSt7__cxx1112basic_stringIwS8_IwESaIwEEEEEvRKT_
_ZNK5boost3log12v2s_mt_posix10output_funclINS1_11expressions3aux10stream_refINS1_24basic_formatting_ostreamIcSt11char_traitsIcESaIcEEEEENSt7__cxx1112basic_stringIwS8_IwESaIwEEEEEvRT_RKT0_
_ZN5boost3log12v2s_mt_posixlsIwSt11char_traitsIwESaIwEEENS1_3aux30enable_if_streamable_char_typeIT_RNS1_24basic_formatting_ostreamIcS3_IcESaIcEEEE4typeESD_RKNSt7__cxx1112basic_stringIS8_T0_T1_EE
_ZN5boost3log12v2s_mt_posix24basic_formatting_ostreamIcSt11char_traitsIcESaIcEE15formatted_writeIwEERS6_PKT_l
_ZNKSt7__cxx1112basic_stringIwSt11char_traitsIwESaIwEE4dataEv
_ZNKSt7__cxx1112basic_stringIwSt11char_traitsIwESaIwEE4sizeEv
_ZNK5boost3log12v2s_mt_posix3aux22basic_ostringstreambufIcSt11char_traitsIcESaIcEE16storage_overflowEv
_ZN5boost3log12v2s_mt_posix3aux12code_convertIwcSt11char_traitsIcESaIcEEENS_11enable_if_cIXaaaasr17is_character_typeIT_EE5valuesr17is_character_typeIT0_EE5valuenestS8_stS9_EbE4typeEPKS8_mRNSt7__cxx1112basic_stringIS9_T1_T2_EEmRKSt6locale
_ZNK5boost3log12v2s_mt_posix3aux22basic_ostringstreambufIcSt11char_traitsIcESaIcEE7storageB5cxx11Ev
_ZNK5boost3log12v2s_mt_posix3aux22basic_ostringstreambufIcSt11char_traitsIcESaIcEE8max_sizeEv
_ZNKSt8ios_base6getlocEv
_ZN5boost3log12v2s_mt_posix3aux22basic_ostringstreambufIcSt11char_traitsIcESaIcEE16storage_overflowEb
_ZN5boost3log12v2s_mt_posix24basic_formatting_ostreamIcSt11char_traitsIcESaIcEE13aligned_writeIwEEvPKT_l
_ZN5boost3log12v2s_mt_posix3aux17code_convert_implEPKwmRNSt7__cxx1112basic_stringIcSt11char_traitsIcESaIcEEEmRKSt6locale
_ZNSt6localeC1ERKS_
_ZSt6__sortIPSt4pairIN5boost9typeindex14stl_type_indexEPvEN9__gnu_cxx5__ops15_Iter_comp_iterINS1_3log12v2s_mt_posix3aux21dispatching_map_orderEEEEvT_SF_T0_
_ZN9__gnu_cxx5__ops16__iter_comp_iterIN5boost3log12v2s_mt_posix3aux21dispatching_map_orderEEENS0_15_Iter_comp_iterIT_EES8_
_ZSt16__introsort_loopIPSt4pairIN5boost9typeindex14stl_type_indexEPvElN9__gnu_cxx5__ops15_Iter_comp_iterINS1_3log12v2s_mt_posix3aux21dispatching_map_orderEEEEvT_SF_T0_T1_
_ZSt4__lgl
_ZSt22__final_insertion_sortIPSt4pairIN5boost9typeindex14stl_type_indexEPvEN9__gnu_cxx5__ops15_Iter_comp_iterINS1_3log12v2s_mt_posix3aux21dispatching_map_orderEEEEvT_SF_T0_
_ZSt14__partial_sortIPSt4pairIN5boost9typeindex14stl_type_indexEPvEN9__gnu_cxx5__ops15_Iter_comp_iterINS1_3log12v2s_mt_posix3aux21dispatching_map_orderEEEEvT_SF_SF_T0_
_ZSt27__unguarded_partition_pivotIPSt4pairIN5boost9typeindex14stl_type_indexEPvEN9__gnu_cxx5__ops15_Iter_comp_iterINS1_3log12v2s_mt_posix3aux21dispatching_map_orderEEEET_SF_SF_T0_
_ZSt13__heap_selectIPSt4pairIN5boost9typeindex14stl_type_indexEPvEN9__gnu_cxx5__ops15_Iter_comp_iterINS1_3log12v2s_mt_posix3aux21dispatching_map_orderEEEEvT_SF_SF_T0_
_ZSt11__sort_heapIPSt4pairIN5boost9typeindex14stl_type_indexEPvEN9__gnu_cxx5__ops15_Iter_comp_iterINS1_3log12v2s_mt_posix3aux21dispatching_map_orderEEEEvT_SF_RT0_
_ZSt11__make_heapIPSt4pairIN5boost9typeindex14stl_type_indexEPvEN9__gnu_cxx5__ops15_Iter_comp_iterINS1_3log12v2s_mt_posix3aux21dispatching_map_orderEEEEvT_SF_RT0_
_ZN9__gnu_cxx5__ops15_Iter_comp_iterIN5boost3log12v2s_mt_posix3aux21dispatching_map_orderEEclIPSt4pairINS2_9typeindex14stl_type_indexEPvESE_EEbT_T0_
_ZSt10__pop_heapIPSt4pairIN5boost9typeindex14stl_type_indexEPvEN9__gnu_cxx5__ops15_Iter_comp_iterINS1_3log12v2s_mt_posix3aux21dispatching_map_orderEEEEvT_SF_SF_RT0_
_ZSt4moveIRSt4pairIN5boost9typeindex14stl_type_indexEPvEEONSt16remove_referenceIT_E4typeEOS8_
_ZSt13__adjust_heapIPSt4pairIN5boost9typeindex14stl_type_indexEPvElS5_N9__gnu_cxx5__ops15_Iter_comp_iterINS1_3log12v2s_mt_posix3aux21dispatching_map_orderEEEEvT_T0_SG_T1_T2_
_ZNSt4pairIN5boost9typeindex14stl_type_indexEPvEaSEOS4_
_ZSt4moveIRN9__gnu_cxx5__ops15_Iter_comp_iterIN5boost3log12v2s_mt_posix3aux21dispatching_map_orderEEEEONSt16remove_referenceIT_E4typeEOSB_
_ZN9__gnu_cxx5__ops14_Iter_comp_valIN5boost3log12v2s_mt_posix3aux21dispatching_map_orderEEC2EONS0_15_Iter_comp_iterIS6_EE
_ZSt11__push_heapIPSt4pairIN5boost9typeindex14stl_type_indexEPvElS5_N9__gnu_cxx5__ops14_Iter_comp_valINS1_3log12v2s_mt_posix3aux21dispatching_map_orderEEEEvT_T0_SG_T1_RT2_
_ZSt7forwardIN5boost9typeindex14stl_type_indexEEOT_RNSt16remove_referenceIS3_E4typeE
_ZSt7forwardIPvEOT_RNSt16remove_referenceIS1_E4typeE
_ZSt4moveIRN5boost3log12v2s_mt_posix3aux21dispatching_map_orderEEONSt16remove_referenceIT_E4typeEOS7_
_ZN9__gnu_cxx5__ops14_Iter_comp_valIN5boost3log12v2s_mt_posix3aux21dispatching_map_orderEEclIPSt4pairINS2_9typeindex14stl_type_indexEPvESD_EEbT_RT0_
_ZNK5boost3log12v2s_mt_posix3aux21dispatching_map_orderclERKSt4pairINS_9typeindex14stl_type_indexEPvESA_
_ZN5boost9typeindexltINS0_14stl_type_indexESt9type_infoEEbRKNS0_17type_index_facadeIT_T0_EES9_
_ZNK5boost9typeindex14stl_type_index6beforeERKS1_
_ZSt22__move_median_to_firstIPSt4pairIN5boost9typeindex14stl_type_indexEPvEN9__gnu_cxx5__ops15_Iter_comp_iterINS1_3log12v2s_mt_posix3aux21dispatching_map_orderEEEEvT_SF_SF_SF_T0_
_ZSt21__unguarded_partitionIPSt4pairIN5boost9typeindex14stl_type_indexEPvEN9__gnu_cxx5__ops15_Iter_comp_iterINS1_3log12v2s_mt_posix3aux21dispatching_map_orderEEEET_SF_SF_SF_T0_
_ZSt9iter_swapIPSt4pairIN5boost9typeindex14stl_type_indexEPvES6_EvT_T0_
_ZSt4swapIN5boost9typeindex14stl_type_indexEPvENSt9enable_ifIXsr6__and_ISt14__is_swappableIT_ES5_IT0_EEE5valueEvE4typeERSt4pairIS6_S8_ESE_
_ZNSt4pairIN5boost9typeindex14stl_type_indexEPvE4swapERS4_
_ZSt4swapIN5boost9typeindex14stl_type_indexEENSt9enable_ifIXsr6__and_ISt6__not_ISt15__is_tuple_likeIT_EESt21is_move_constructibleIS6_ESt18is_move_assignableIS6_EEE5valueEvE4typeERS6_SF_
_ZSt4swapIPvENSt9enable_ifIXsr6__and_ISt6__not_ISt15__is_tuple_likeIT_EESt21is_move_constructibleIS4_ESt18is_move_assignableIS4_EEE5valueEvE4typeERS4_SD_
_ZSt4moveIRN5boost9typeindex14stl_type_indexEEONSt16remove_referenceIT_E4typeEOS5_
_ZSt4moveIRPvEONSt16remove_referenceIT_E4typeEOS3_
llvm.ctlz.i64
_ZSt16__insertion_sortIPSt4pairIN5boost9typeindex14stl_type_indexEPvEN9__gnu_cxx5__ops15_Iter_comp_iterINS1_3log12v2s_mt_posix3aux21dispatching_map_orderEEEEvT_SF_T0_
_ZSt26__unguarded_insertion_sortIPSt4pairIN5boost9typeindex14stl_type_indexEPvEN9__gnu_cxx5__ops15_Iter_comp_iterINS1_3log12v2s_mt_posix3aux21dispatching_map_orderEEEEvT_SF_T0_
_ZSt13move_backwardIPSt4pairIN5boost9typeindex14stl_type_indexEPvES6_ET0_T_S8_S7_
_ZSt25__unguarded_linear_insertIPSt4pairIN5boost9typeindex14stl_type_indexEPvEN9__gnu_cxx5__ops14_Val_comp_iterINS1_3log12v2s_mt_posix3aux21dispatching_map_orderEEEEvT_T0_
_ZN9__gnu_cxx5__ops15__val_comp_iterIN5boost3log12v2s_mt_posix3aux21dispatching_map_orderEEENS0_14_Val_comp_iterIT_EENS0_15_Iter_comp_iterIS8_EE
_ZSt23__copy_move_backward_a2ILb1EPSt4pairIN5boost9typeindex14stl_type_indexEPvES6_ET1_T0_S8_S7_
_ZSt12__miter_baseIPSt4pairIN5boost9typeindex14stl_type_indexEPvEET_S7_
_ZSt12__niter_wrapIPSt4pairIN5boost9typeindex14stl_type_indexEPvEET_RKS7_S7_
_ZSt22__copy_move_backward_aILb1EPSt4pairIN5boost9typeindex14stl_type_indexEPvES6_ET1_T0_S8_S7_
_ZSt12__niter_baseIPSt4pairIN5boost9typeindex14stl_type_indexEPvEET_S7_
_ZNSt20__copy_move_backwardILb1ELb0ESt26random_access_iterator_tagE13__copy_move_bIPSt4pairIN5boost9typeindex14stl_type_indexEPvES9_EET0_T_SB_SA_
_ZN9__gnu_cxx5__ops14_Val_comp_iterIN5boost3log12v2s_mt_posix3aux21dispatching_map_orderEEclISt4pairINS2_9typeindex14stl_type_indexEPvEPSD_EEbRT_T0_
_ZN9__gnu_cxx5__ops14_Val_comp_iterIN5boost3log12v2s_mt_posix3aux21dispatching_map_orderEEC2EONS0_15_Iter_comp_iterIS6_EE
_ZN9__gnu_cxx5__ops15_Iter_comp_iterIN5boost3log12v2s_mt_posix3aux21dispatching_map_orderEEC2ES6_
_ZN5boost3log12v2s_mt_posix3aux17once_block_sentry8rollbackEv
_ZN5boost3log12v2s_mt_posix3aux29type_sequence_dispatcher_base12get_callbackEPNS1_15type_dispatcherENS_9typeindex14stl_type_indexE
_ZSt11lower_boundIPKSt4pairIN5boost9typeindex14stl_type_indexEPvES5_NS1_3log12v2s_mt_posix3aux21dispatching_map_orderEET_SC_SC_RKT0_T1_
_ZNSt4pairIN5boost9typeindex14stl_type_indexEPvEC2IRS2_S3_Lb1EEEOT_OT0_
_ZSt13__lower_boundIPKSt4pairIN5boost9typeindex14stl_type_indexEPvES5_N9__gnu_cxx5__ops14_Iter_comp_valINS1_3log12v2s_mt_posix3aux21dispatching_map_orderEEEET_SG_SG_RKT0_T1_
_ZN9__gnu_cxx5__ops15__iter_comp_valIN5boost3log12v2s_mt_posix3aux21dispatching_map_orderEEENS0_14_Iter_comp_valIT_EES8_
_ZSt8distanceIPKSt4pairIN5boost9typeindex14stl_type_indexEPvEENSt15iterator_traitsIT_E15difference_typeES9_S9_
_ZSt7advanceIPKSt4pairIN5boost9typeindex14stl_type_indexEPvElEvRT_T0_
_ZN9__gnu_cxx5__ops14_Iter_comp_valIN5boost3log12v2s_mt_posix3aux21dispatching_map_orderEEclIPKSt4pairINS2_9typeindex14stl_type_indexEPvESE_EEbT_RT0_
_ZSt10__distanceIPKSt4pairIN5boost9typeindex14stl_type_indexEPvEENSt15iterator_traitsIT_E15difference_typeES9_S9_St26random_access_iterator_tag
_ZSt19__iterator_categoryIPKSt4pairIN5boost9typeindex14stl_type_indexEPvEENSt15iterator_traitsIT_E17iterator_categoryERKS9_
_ZSt9__advanceIPKSt4pairIN5boost9typeindex14stl_type_indexEPvElEvRT_T0_St26random_access_iterator_tag
llvm.is.constant.i64
_ZN9__gnu_cxx5__ops14_Iter_comp_valIN5boost3log12v2s_mt_posix3aux21dispatching_map_orderEEC2ES6_
_ZSt7forwardIRN5boost9typeindex14stl_type_indexEEOT_RNSt16remove_referenceIS4_E4typeE
_ZN5boost3log12v2s_mt_posix9binder1stINS1_10output_funERNS1_11expressions3aux10stream_refINS1_24basic_formatting_ostreamIcSt11char_traitsIcESaIcEEEEEEC2ERKS3_SD_
_ZN5boost3log12v2s_mt_posix3aux14light_functionIFvRKNS1_11record_viewENS1_11expressions3aux10stream_refINS1_24basic_formatting_ostreamIcSt11char_traitsIcESaIcEEEEEEE4implINS8_17message_formatterEEC2ERKSJ_
_ZN5boost19thread_specific_ptrINS_3log12v2s_mt_posix5sinks30basic_formatting_sink_frontendIcE18formatting_contextEE15default_deleterEPS6_
_ZN5boost3log12v2s_mt_posix5sinks30basic_formatting_sink_frontendIcE18formatting_contextD2Ev
_ZN5boost3log12v2s_mt_posix24basic_formatting_ostreamIcSt11char_traitsIcESaIcEED2Ev
_ZN5boost3log12v2s_mt_posix24basic_formatting_ostreamIcSt11char_traitsIcESaIcEE5flushEv
_ZNSoD1Ev
_ZN5boost3log12v2s_mt_posix3aux22basic_ostringstreambufIcSt11char_traitsIcESaIcEED2Ev
__cxa_call_unexpected
_ZNSt15basic_streambufIcSt11char_traitsIcEED2Ev
_ZN5boost3log12v2s_mt_posix3aux14light_functionIFvRKNS1_11record_viewENS1_11expressions3aux10stream_refINS1_24basic_formatting_ostreamIcSt11char_traitsIcESaIcEEEEEEED2Ev
_ZN5boost3log12v2s_mt_posix3aux14light_functionIFvRKNS1_11record_viewENS1_11expressions3aux10stream_refINS1_24basic_formatting_ostreamIcSt11char_traitsIcESaIcEEEEEEE5clearEv
_ZN5boost3log12v2s_mt_posix3aux14light_functionIFvvEED2Ev
_ZN5boost3log12v2s_mt_posix3aux14light_functionIFvvEE5clearEv
pthread_mutexattr_init
_ZN5boost15throw_exceptionINS_21thread_resource_errorEEEvRKT_
_ZN5boost21thread_resource_errorC2EiPKc
_ZN5boost21thread_resource_errorD2Ev
pthread_mutexattr_settype
pthread_mutexattr_destroy
_ZN5boost16exception_detail11enable_bothINS_21thread_resource_errorEEENS_10wrapexceptINS0_26remove_error_info_injectorIT_E4typeEEERKS5_
_ZN5boost10wrapexceptINS_21thread_resource_errorEED1Ev
_ZN5boost17enable_error_infoINS_21thread_resource_errorEEENS_16exception_detail29enable_error_info_return_typeIT_E4typeERKS4_
_ZN5boost10wrapexceptINS_21thread_resource_errorEEC1ERKNS_16exception_detail19error_info_injectorIS1_EE
_ZN5boost16exception_detail19error_info_injectorINS_21thread_resource_errorEED2Ev
_ZN5boost16exception_detail19error_info_injectorINS_21thread_resource_errorEEC2ERKS2_
_ZN5boost21thread_resource_errorC2ERKS0_
_ZN5boost16exception_detail19error_info_injectorINS_21thread_resource_errorEED0Ev
_ZThn64_N5boost16exception_detail19error_info_injectorINS_21thread_resource_errorEED1Ev
_ZThn64_N5boost16exception_detail19error_info_injectorINS_21thread_resource_errorEED0Ev
_ZN5boost16thread_exceptionC2ERKS0_
_ZN5boost21thread_resource_errorD0Ev
_ZN5boost6system12system_errorC2ERKS1_
_ZN5boost16thread_exceptionD2Ev
_ZN5boost16thread_exceptionD0Ev
_ZN5boost16exception_detail10clone_implINS0_19error_info_injectorINS_21thread_resource_errorEEEEC2ERKS4_
_ZN5boost16exception_detail10clone_implINS0_19error_info_injectorINS_21thread_resource_errorEEEED1Ev
_ZN5boost16exception_detail10clone_implINS0_19error_info_injectorINS_21thread_resource_errorEEEED0Ev
_ZNK5boost16exception_detail10clone_implINS0_19error_info_injectorINS_21thread_resource_errorEEEE5cloneEv
_ZNK5boost16exception_detail10clone_implINS0_19error_info_injectorINS_21thread_resource_errorEEEE7rethrowEv
_ZTv0_n24_NK5boost16exception_detail10clone_implINS0_19error_info_injectorINS_21thread_resource_errorEEEE5cloneEv
_ZTv0_n32_NK5boost16exception_detail10clone_implINS0_19error_info_injectorINS_21thread_resource_errorEEEE7rethrowEv
_ZTv0_n40_N5boost16exception_detail10clone_implINS0_19error_info_injectorINS_21thread_resource_errorEEEED1Ev
_ZTv0_n40_N5boost16exception_detail10clone_implINS0_19error_info_injectorINS_21thread_resource_errorEEEED0Ev
_ZN5boost10wrapexceptINS_21thread_resource_errorEED0Ev
_ZThn64_N5boost10wrapexceptINS_21thread_resource_errorEED1Ev
_ZThn64_N5boost10wrapexceptINS_21thread_resource_errorEED0Ev
_ZTv0_n40_N5boost10wrapexceptINS_21thread_resource_errorEED1Ev
_ZTv0_n40_N5boost10wrapexceptINS_21thread_resource_errorEED0Ev
_ZN5boost16exception_detail19error_info_injectorINS_21thread_resource_errorEEC2ERKS3_
_ZThn64_N5boost16exception_detail10clone_implINS0_19error_info_injectorINS_21thread_resource_errorEEEED1Ev
_ZThn64_N5boost16exception_detail10clone_implINS0_19error_info_injectorINS_21thread_resource_errorEEEED0Ev
_ZN5boost16exception_detail10clone_implINS0_19error_info_injectorINS_21thread_resource_errorEEEED2Ev
_ZN5boost16exception_detail10clone_implINS0_19error_info_injectorINS_21thread_resource_errorEEEEC1ERKS5_NS5_9clone_tagE
_ZN5boost16exception_detail10clone_implINS0_19error_info_injectorINS_21thread_resource_errorEEEEC1ERKS5_
_ZN5boost10wrapexceptINS_21thread_resource_errorEED2Ev
_ZN5boost16thread_exceptionC2EiPKc
_ZN5boost6system12system_errorC2ENS0_10error_codeEPKc
_ZNSt13runtime_errorC2EPKc
pthread_mutex_init
_ZN5boost19thread_specific_ptrINS_3log12v2s_mt_posix5sinks30basic_formatting_sink_frontendIcE18formatting_contextEED2Ev
_ZN5boost6detail12set_tss_dataEPKvPFvPFvPvES3_ES5_S3_b
_ZN5boost15recursive_mutexD2Ev
pthread_mutex_destroy
_ZN5boost3log12v2s_mt_posix3aux17shared_lock_guardINS2_14light_rw_mutexEEC2ERS4_
_ZNK5boost3log12v2s_mt_posix6filterclERKNS1_19attribute_value_setE
_ZNK5boost3log12v2s_mt_posix3aux14light_functionIFvvEE5emptyEv
_ZNK5boost3log12v2s_mt_posix3aux14light_functionIFvvEEclEv
_ZN5boost3log12v2s_mt_posix3aux17shared_lock_guardINS2_14light_rw_mutexEED2Ev
_ZN5boost3log12v2s_mt_posix3aux14light_rw_mutex11lock_sharedEv
pthread_rwlock_rdlock
_ZNK5boost3log12v2s_mt_posix3aux14light_functionIFbRKNS1_19attribute_value_setEEEclES6_
_ZN5boost3log12v2s_mt_posix3aux14light_rw_mutex13unlock_sharedEv
pthread_rwlock_unlock
_ZN5boost3log12v2s_mt_posix5sinks30basic_formatting_sink_frontendIcE11feed_recordINS_15recursive_mutexENS2_26basic_text_ostream_backendIcEEEEvRKNS1_11record_viewERT_RT0_
_ZNK5boost10shared_ptrINS_3log12v2s_mt_posix5sinks26basic_text_ostream_backendIcEEEdeEv
_ZNK5boost19thread_specific_ptrINS_3log12v2s_mt_posix5sinks30basic_formatting_sink_frontendIcE18formatting_contextEE3getEv
_ZNK5boost3log12v2s_mt_posix5sinks19basic_sink_frontend14frontend_mutexEv
_ZN5boost3log12v2s_mt_posix5sinks30basic_formatting_sink_frontendIcE18formatting_contextC2EjRKSt6localeRKNS1_15basic_formatterIcEE
_ZN5boost19thread_specific_ptrINS_3log12v2s_mt_posix5sinks30basic_formatting_sink_frontendIcE18formatting_contextEE5resetEPS6_
_ZN5boost3log12v2s_mt_posix5sinks30basic_formatting_sink_frontendIcE18formatting_context13cleanup_guardC2ERS5_
_ZNK5boost3log12v2s_mt_posix15basic_formatterIcEclERKNS1_11record_viewERNS1_24basic_formatting_ostreamIcSt11char_traitsIcESaIcEEE
_ZN5boost3log12v2s_mt_posix3aux20exclusive_lock_guardINS_15recursive_mutexEEC2ERS4_
_ZN5boost3log12v2s_mt_posix5sinks26basic_text_ostream_backendIcE7consumeERKNS1_11record_viewERKNSt7__cxx1112basic_stringIcSt11char_traitsIcESaIcEEE
_ZN5boost3log12v2s_mt_posix3aux20exclusive_lock_guardINS_15recursive_mutexEED2Ev
_ZN5boost3log12v2s_mt_posix5sinks19basic_sink_frontend17exception_handlerEv
_ZN5boost3log12v2s_mt_posix5sinks30basic_formatting_sink_frontendIcE18formatting_context13cleanup_guardD2Ev
_ZN5boost6detail12get_tss_dataEPKv
_ZN5boost3log12v2s_mt_posix24basic_formatting_ostreamIcSt11char_traitsIcESaIcEEC2ERNSt7__cxx1112basic_stringIcS4_S5_EE
_ZN5boost3log12v2s_mt_posix15basic_formatterIcEC2ERKS3_
_ZN5boost3log12v2s_mt_posix24basic_formatting_ostreamIcSt11char_traitsIcESaIcEE10exceptionsESt12_Ios_Iostate
_ZStorSt12_Ios_IostateS_
_ZN5boost3log12v2s_mt_posix24basic_formatting_ostreamIcSt11char_traitsIcESaIcEE5imbueERKSt6locale
_ZN5boost3log12v2s_mt_posix3aux22basic_ostringstreambufIcSt11char_traitsIcESaIcEEC2ERNSt7__cxx1112basic_stringIcS5_S6_EE
_ZNSoC1EPSt15basic_streambufIcSt11char_traitsIcEE
_ZN5boost3log12v2s_mt_posix24basic_formatting_ostreamIcSt11char_traitsIcESaIcEE11init_streamEv
_ZNSt15basic_streambufIcSt11char_traitsIcEEC2Ev
_ZN5boost3log12v2s_mt_posix3aux22basic_ostringstreambufIcSt11char_traitsIcESaIcEE13storage_stateC2Ev
_ZNSt15basic_streambufIcSt11char_traitsIcEE4setpEPcS3_
_ZN5boost3log12v2s_mt_posix3aux22basic_ostringstreambufIcSt11char_traitsIcESaIcEE6attachERNSt7__cxx1112basic_stringIcS5_S6_EE
_ZN5boost3log12v2s_mt_posix3aux22basic_ostringstreambufIcSt11char_traitsIcESaIcEED0Ev
_ZNSt15basic_streambufIcSt11char_traitsIcEE5imbueERKSt6locale
_ZNSt15basic_streambufIcSt11char_traitsIcEE6setbufEPcl
_ZNSt15basic_streambufIcSt11char_traitsIcEE7seekoffElSt12_Ios_SeekdirSt13_Ios_Openmode
_ZNSt15basic_streambufIcSt11char_traitsIcEE7seekposESt4fposI11__mbstate_tESt13_Ios_Openmode
_ZN5boost3log12v2s_mt_posix3aux22basic_ostringstreambufIcSt11char_traitsIcESaIcEE4syncEv
_ZNSt15basic_streambufIcSt11char_traitsIcEE9showmanycEv
_ZNSt15basic_streambufIcSt11char_traitsIcEE6xsgetnEPcl
_ZNSt15basic_streambufIcSt11char_traitsIcEE9underflowEv
_ZNSt15basic_streambufIcSt11char_traitsIcEE5uflowEv
_ZNSt15basic_streambufIcSt11char_traitsIcEE9pbackfailEi
_ZN5boost3log12v2s_mt_posix3aux22basic_ostringstreambufIcSt11char_traitsIcESaIcEE6xsputnEPKcl
_ZN5boost3log12v2s_mt_posix3aux22basic_ostringstreambufIcSt11char_traitsIcESaIcEE8overflowEi
_ZN5boost3log12v2s_mt_posix3aux22basic_ostringstreambufIcSt11char_traitsIcESaIcEE6attachERNSt7__cxx1112basic_stringIcS5_S6_EEm
_ZNKSt7__cxx1112basic_stringIcSt11char_traitsIcESaIcEE8max_sizeEv
_ZN5boost3log12v2s_mt_posix3aux22basic_ostringstreambufIcSt11char_traitsIcESaIcEE6detachEv
_ZN5boost3log12v2s_mt_posix3aux22basic_ostringstreambufIcSt11char_traitsIcESaIcEE8max_sizeEm
_ZN5boost3log12v2s_mt_posix3aux22basic_ostringstreambufIcSt11char_traitsIcESaIcEE15ensure_max_sizeEv
_ZNKSt15basic_streambufIcSt11char_traitsIcEE5pbaseEv
_ZNKSt15basic_streambufIcSt11char_traitsIcEE4pptrEv
_ZNSt15basic_streambufIcSt11char_traitsIcEE5pbumpEi
_ZNSt11char_traitsIcE11eq_int_typeERKiS2_
_ZNSt11char_traitsIcE3eofEv
_ZN5boost3log12v2s_mt_posix3aux22basic_ostringstreambufIcSt11char_traitsIcESaIcEE9push_backEc
_ZNSt11char_traitsIcE12to_char_typeERKi
_ZNSt11char_traitsIcE7not_eofERKi
_ZNSt9basic_iosIcSt11char_traitsIcEE10exceptionsESt12_Ios_Iostate
_ZNSt8ios_base5flagsESt13_Ios_Fmtflags
_ZNSt8ios_base9precisionEl
_ZNSt9basic_iosIcSt11char_traitsIcEE4fillEc
_ZN5boost3log12v2s_mt_posix3aux14light_functionIFvRKNS1_11record_viewENS1_11expressions3aux10stream_refINS1_24basic_formatting_ostreamIcSt11char_traitsIcESaIcEEEEEEEC2ERKSH_
_ZNSt9basic_iosIcSt11char_traitsIcEE5imbueERKSt6locale
_ZN5boost19thread_specific_ptrINS_3log12v2s_mt_posix5sinks30basic_formatting_sink_frontendIcE18formatting_contextEE14cleanup_callerEPFvPvES8_
_ZNK5boost3log12v2s_mt_posix3aux14light_functionIFvRKNS1_11record_viewENS1_11expressions3aux10stream_refINS1_24basic_formatting_ostreamIcSt11char_traitsIcESaIcEEEEEEEclES6_SF_
_ZN5boost9addressofINS_3log12v2s_mt_posix24basic_formatting_ostreamIcSt11char_traitsIcESaIcEEEEEPT_RS8_
_ZN5boost15recursive_mutex4lockEv
_ZN5boost15recursive_mutex6unlockEv
_ZNK5boost3log12v2s_mt_posix24basic_formatting_ostreamIcSt11char_traitsIcESaIcEE5rdbufEv
_ZN5boost3log12v2s_mt_posix24basic_formatting_ostreamIcSt11char_traitsIcESaIcEE5clearESt12_Ios_Iostate
_ZN5boost3log12v2s_mt_posix5sinks30basic_formatting_sink_frontendIcE15try_feed_recordINS_15recursive_mutexENS2_26basic_text_ostream_backendIcEEEEbRKNS1_11record_viewERT_RT0_
_ZN5boost15recursive_mutex8try_lockEv
_ZN5boost3log12v2s_mt_posix3aux23exclusive_auto_unlockerINS_15recursive_mutexEEC2ERS4_
_ZN5boost3log12v2s_mt_posix5sinks30basic_formatting_sink_frontendIcE11feed_recordINS1_3aux10fake_mutexENS2_26basic_text_ostream_backendIcEEEEvRKNS1_11record_viewERT_RT0_
_ZN5boost3log12v2s_mt_posix3aux23exclusive_auto_unlockerINS_15recursive_mutexEED2Ev
_ZN5boost3log12v2s_mt_posix3aux20exclusive_lock_guardINS2_10fake_mutexEEC2ERS4_
_ZN5boost3log12v2s_mt_posix3aux20exclusive_lock_guardINS2_10fake_mutexEED2Ev
_ZN5boost3log12v2s_mt_posix3aux10fake_mutex4lockEv
_ZN5boost3log12v2s_mt_posix3aux10fake_mutex6unlockEv
_ZN5boost3log12v2s_mt_posix5sinks19basic_sink_frontend13flush_backendINS_15recursive_mutexENS2_26basic_text_ostream_backendIcEEEEvRT_RT0_
_ZN5boost3log12v2s_mt_posix5sinks19basic_sink_frontend18flush_backend_implINS_15recursive_mutexENS2_26basic_text_ostream_backendIcEEEEvRT_RT0_N4mpl_5bool_ILb1EEE
_ZN5boost3log12v2s_mt_posix5sinks26basic_text_ostream_backendIcE5flushEv
_ZN5boost3log12v2s_mt_posix5sinks30basic_formatting_sink_frontendIcE13set_formatterINS1_15basic_formatterIcEEEEvRKT_
_ZN5boost3log12v2s_mt_posix3aux17acquire_formatterIcEENS_11enable_if_cIXsr3log3aux17is_character_typeIT_EE5valueENS1_15basic_formatterIS5_EEE4typeEPKS5_
_ZNK5boost9parameter3aux15tagged_argumentINS_3log12v2s_mt_posix8keywords3tag6formatEA38_KcEixERKNS0_7keywordIS7_EE
_ZN5boost3log12v2s_mt_posix3aux20exclusive_lock_guardINS2_14light_rw_mutexEEC2ERS4_
_ZN5boost3log12v2s_mt_posix15basic_formatterIcEaSERKS3_
_ZN5boost3log12v2s_mt_posix3aux20exclusive_lock_guardINS2_14light_rw_mutexEED2Ev
_ZN5boost3log12v2s_mt_posix3aux14light_rw_mutex4lockEv
pthread_rwlock_wrlock
_ZN5boost3log12v2s_mt_posix3aux14light_functionIFvRKNS1_11record_viewENS1_11expressions3aux10stream_refINS1_24basic_formatting_ostreamIcSt11char_traitsIcESaIcEEEEEEEaSERKSH_
_ZN5boost3log12v2s_mt_posix3aux14light_functionIFvRKNS1_11record_viewENS1_11expressions3aux10stream_refINS1_24basic_formatting_ostreamIcSt11char_traitsIcESaIcEEEEEEE4swapERSH_
_ZN5boost3log12v2s_mt_posix3aux14light_rw_mutex6unlockEv
_ZN5boost3log12v2s_mt_posix15parse_formatterIcEENS1_15basic_formatterIT_EEPKS4_
_ZN5boost3log12v2s_mt_posix15parse_formatterIcEENS1_15basic_formatterIT_EEPKS4_S7_
_ZNSt11char_traitsIcE6lengthEPKc
_ZNK5boost9parameter3aux15tagged_argumentINS_3log12v2s_mt_posix8keywords3tag6formatEA38_KcE9get_valueEv
_ZN5boost6detail21sp_assert_convertibleINS_3log12v2s_mt_posix5sinks16synchronous_sinkINS4_26basic_text_ostream_backendIcEEEENS4_4sinkEEEvv
_ZNK5boost5proto6detail8protoifyINS_3log12v2s_mt_posix11expressions17attribute_keywordINS4_7trivial3tag8severityENS_7phoenix5actorEEENSA_14phoenix_domainEEclERKSC_
_ZN5boost3log12v2s_mt_posix11expressions17attribute_keywordINS1_7trivial3tag8severityENS_7phoenix5actorEE7or_noneEv
_ZN5boost3log12v2s_mt_posix11expressions17attribute_keywordINS1_7trivial3tag8severityENS_7phoenix5actorEE8get_nameEv
_ZN5boost3log12v2s_mt_posix11expressions18attribute_terminalINS1_7trivial14severity_levelENS1_16fallback_to_noneENS4_3tag8severityEEC2ERKNS1_14attribute_nameE
_ZN5boost3log12v2s_mt_posix11expressions15attribute_actorINS1_7trivial14severity_levelENS1_16fallback_to_noneENS4_3tag8severityENS_7phoenix5actorEEC2ERKNSA_INS2_18attribute_terminalIS5_S6_S8_EEEE
_ZN5boost3log12v2s_mt_posix7trivial3tag8severity8get_nameEv
_ZN5boost7phoenix5actorINS_3log12v2s_mt_posix11expressions18attribute_terminalINS3_7trivial14severity_levelENS3_16fallback_to_noneENS6_3tag8severityEEEEC2ERKSC_
_ZN5boost5proto7exprns_4exprINS0_6tagns_3tag8terminalENS0_7argsns_4termINS_3log12v2s_mt_posix11expressions18attribute_terminalINS9_7trivial14severity_levelENS9_16fallback_to_noneENSC_3tag8severityEEEEELl0EEC2ERKSJ_
_ZN5boost3log12v2s_mt_posix11expressions18attribute_terminalINS1_7trivial14severity_levelENS1_16fallback_to_noneENS4_3tag8severityEEC2ERKS9_
_ZN5boost3log12v2s_mt_posix15value_extractorINS1_7trivial14severity_levelENS1_16fallback_to_noneENS3_3tag8severityEEC2ERKS8_
_ZNK5boost5proto1_4implIRKNS0_7exprns_10basic_exprINS0_6tagns_3tag8terminalENS0_7argsns_4termINS_3log12v2s_mt_posix7trivial14severity_levelEEELl0EEEiNS0_6envns_9empty_envEEclESH_RKiRKSJ_
_ZNK5boost5proto1_4implIRKNS0_7exprns_10basic_exprINS0_6tagns_3tag13greater_equalENS0_7argsns_5list2INS_3log12v2s_mt_posix11expressions15attribute_actorINSB_7trivial14severity_levelENSB_16fallback_to_noneENSE_3tag8severityENS_7phoenix5actorEEENSK_INS4_INS6_8terminalENS8_4termISF_EELl0EEEEEEELl2EEEiNS0_6envns_9empty_envEEclESU_RKiRKSW_
_ZN5boost5proto7exprns_10basic_exprINS0_6tagns_3tag13greater_equalENS0_7argsns_5list2INS_3log12v2s_mt_posix11expressions15attribute_actorINS9_7trivial14severity_levelENS9_16fallback_to_noneENSC_3tag8severityENS_7phoenix5actorEEENSI_INS2_INS4_8terminalENS6_4termISD_EELl0EEEEEEELl2EEC2ERKSQ_
_ZN5boost3log12v2s_mt_posix11expressions15attribute_actorINS1_7trivial14severity_levelENS1_16fallback_to_noneENS4_3tag8severityENS_7phoenix5actorEEC2ERKSB_
_ZN5boost7forwardIKNS_7phoenix5actorINS_5proto7exprns_10basic_exprINS3_6tagns_3tag13greater_equalENS3_7argsns_5list2INS_3log12v2s_mt_posix11expressions15attribute_actorINSC_7trivial14severity_levelENSC_16fallback_to_noneENSF_3tag8severityES2_EENS2_INS5_INS7_8terminalENS9_4termISG_EELl0EEEEEEELl2EEEEEEEOT_RNS_11move_detail16remove_referenceISU_E4typeE
_ZN5boost3log12v2s_mt_posix3aux14light_functionIFbRKNS1_19attribute_value_setEEEC2IKNS_7phoenix5actorINS_5proto7exprns_10basic_exprINSC_6tagns_3tag13greater_equalENSC_7argsns_5list2INS1_11expressions15attribute_actorINS1_7trivial14severity_levelENS1_16fallback_to_noneENSM_3tag8severityESB_EENSB_INSE_INSG_8terminalENSI_4termISN_EELl0EEEEEEELl2EEEEEEEOT_
_ZN5boost3log12v2s_mt_posix3aux14light_functionIFbRKNS1_19attribute_value_setEEE4implINS_7phoenix5actorINS_5proto7exprns_10basic_exprINSC_6tagns_3tag13greater_equalENSC_7argsns_5list2INS1_11expressions15attribute_actorINS1_7trivial14severity_levelENS1_16fallback_to_noneENSM_3tag8severityESB_EENSB_INSE_INSG_8terminalENSI_4termISN_EELl0EEEEEEELl2EEEEEEC2ERKSZ_
_ZN5boost3log12v2s_mt_posix3aux14light_functionIFbRKNS1_19attribute_value_setEEE4implINS_7phoenix5actorINS_5proto7exprns_10basic_exprINSC_6tagns_3tag13greater_equalENSC_7argsns_5list2INS1_11expressions15attribute_actorINS1_7trivial14severity_levelENS1_16fallback_to_noneENSM_3tag8severityESB_EENSB_INSE_INSG_8terminalENSI_4termISN_EELl0EEEEEEELl2EEEEEE11invoke_implEPvS6_
_ZN5boost3log12v2s_mt_posix3aux14light_functionIFbRKNS1_19attribute_value_setEEE4implINS_7phoenix5actorINS_5proto7exprns_10basic_exprINSC_6tagns_3tag13greater_equalENSC_7argsns_5list2INS1_11expressions15attribute_actorINS1_7trivial14severity_levelENS1_16fallback_to_noneENSM_3tag8severityESB_EENSB_INSE_INSG_8terminalENSI_4termISN_EELl0EEEEEEELl2EEEEEE10clone_implEPKv
_ZN5boost3log12v2s_mt_posix3aux14light_functionIFbRKNS1_19attribute_value_setEEE4implINS_7phoenix5actorINS_5proto7exprns_10basic_exprINSC_6tagns_3tag13greater_equalENSC_7argsns_5list2INS1_11expressions15attribute_actorINS1_7trivial14severity_levelENS1_16fallback_to_noneENSM_3tag8severityESB_EENSB_INSE_INSG_8terminalENSI_4termISN_EELl0EEEEEEELl2EEEEEE12destroy_implEPv
_ZN5boost7phoenix5actorINS_5proto7exprns_10basic_exprINS2_6tagns_3tag13greater_equalENS2_7argsns_5list2INS_3log12v2s_mt_posix11expressions15attribute_actorINSB_7trivial14severity_levelENSB_16fallback_to_noneENSE_3tag8severityES1_EENS1_INS4_INS6_8terminalENS8_4termISF_EELl0EEEEEEELl2EEEEC2ERKSR_
_ZN5boost7phoenix5actorINS_5proto7exprns_10basic_exprINS2_6tagns_3tag13greater_equalENS2_7argsns_5list2INS_3log12v2s_mt_posix11expressions15attribute_actorINSB_7trivial14severity_levelENSB_16fallback_to_noneENSE_3tag8severityES1_EENS1_INS4_INS6_8terminalENS8_4termISF_EELl0EEEEEEELl2EEEEclIJRKNSB_19attribute_value_setEEEENSR_6resultIFSR_DpT_EE4typeEDpOSX_
_ZN5boost7phoenix4evalINS0_5actorINS_5proto7exprns_10basic_exprINS3_6tagns_3tag13greater_equalENS3_7argsns_5list2INS_3log12v2s_mt_posix11expressions15attribute_actorINSC_7trivial14severity_levelENSC_16fallback_to_noneENSF_3tag8severityES2_EENS2_INS5_INS7_8terminalENS9_4termISG_EELl0EEEEEEELl2EEEEENS0_7vector2IRNST_IPKSS_RKNSC_19attribute_value_setEEERKNS0_15default_actionsEEEEENS3_7switch_INS0_12meta_grammarEFNS3_6tag_ofINS3_1_EEEvEE4implIRT_NS0_9result_of3envIRKT0_E4typeENS1F_7actionsIS1J_E4typeEE11result_typeES1E_S1J_
_ZN5boost7phoenix7contextINS0_7vector2IPKNS0_5actorINS_5proto7exprns_10basic_exprINS4_6tagns_3tag13greater_equalENS4_7argsns_5list2INS_3log12v2s_mt_posix11expressions15attribute_actorINSD_7trivial14severity_levelENSD_16fallback_to_noneENSG_3tag8severityES3_EENS3_INS6_INS8_8terminalENSA_4termISH_EELl0EEEEEEELl2EEEEERKNSD_19attribute_value_setEEENS0_15default_actionsEEEKNS0_9result_of7contextIRT_RKT0_E4typeES14_S17_
_ZNK5boost7phoenix9evaluator4implIRNS0_5actorINS_5proto7exprns_10basic_exprINS4_6tagns_3tag13greater_equalENS4_7argsns_5list2INS_3log12v2s_mt_posix11expressions15attribute_actorINSD_7trivial14severity_levelENSD_16fallback_to_noneENSG_3tag8severityES3_EENS3_INS6_INS8_8terminalENSA_4termISH_EELl0EEEEEEELl2EEEEERKNS0_7vector2IRNSV_IPKST_RKNSD_19attribute_value_setEEERKNS0_15default_actionsEEENS4_6envns_9empty_envEEclESU_S18_RKS1A_
_ZNK5boost5proto6detail21default_greater_equalINS_7phoenix12meta_grammarEE4implIRNS3_5actorINS0_7exprns_10basic_exprINS0_6tagns_3tag13greater_equalENS0_7argsns_5list2INS_3log12v2s_mt_posix11expressions15attribute_actorINSG_7trivial14severity_levelENSG_16fallback_to_noneENSJ_3tag8severityES7_EENS7_INS9_INSB_8terminalENSD_4termISK_EELl0EEEEEEELl2EEEEERNS3_7vector2IPKSW_RKNSG_19attribute_value_setEEERKNS3_15default_actionsEEclESX_S15_S18_
_ZN5boost7phoenix3envINS0_7vector2IRNS2_IPKNS0_5actorINS_5proto7exprns_10basic_exprINS4_6tagns_3tag13greater_equalENS4_7argsns_5list2INS_3log12v2s_mt_posix11expressions15attribute_actorINSD_7trivial14severity_levelENSD_16fallback_to_noneENSG_3tag8severityES3_EENS3_INS6_INS8_8terminalENSA_4termISH_EELl0EEEEEEELl2EEEEERKNSD_19attribute_value_setEEERKNS0_15default_actionsEEEEENS_6fusion9result_of4at_cIKT_Li0EE4typeERS19_
_ZN5boost7phoenix7actionsINS0_7vector2IRNS2_IPKNS0_5actorINS_5proto7exprns_10basic_exprINS4_6tagns_3tag13greater_equalENS4_7argsns_5list2INS_3log12v2s_mt_posix11expressions15attribute_actorINSD_7trivial14severity_levelENSD_16fallback_to_noneENSG_3tag8severityES3_EENS3_INS6_INS8_8terminalENSA_4termISH_EELl0EEEEEEELl2EEEEERKNSD_19attribute_value_setEEERKNS0_15default_actionsEEEEENS_6fusion9result_of4at_cIKT_Li1EE4typeERS19_
_ZN5boost3log12v2s_mt_posixgeINS1_7trivial14severity_levelENS3_3tag8severityES4_EEbRKNS1_9value_refIT_T0_EERKT1_
_ZNK5boost5proto6_value4implIRNS_7phoenix5actorINS0_7exprns_10basic_exprINS0_6tagns_3tag8terminalENS0_7argsns_4termINS_3log12v2s_mt_posix7trivial14severity_levelEEELl0EEEEERNS3_7vector2IPKNS4_INS6_INS8_13greater_equalENSA_5list2INSD_11expressions15attribute_actorISF_NSD_16fallback_to_noneENSE_3tag8severityES4_EESI_EELl2EEEEERKNSD_19attribute_value_setEEERKNS3_15default_actionsEEclESJ_S12_S15_
_ZNK5boost3log12v2s_mt_posix3aux12singular_refINS1_7trivial14severity_levelENS4_3tag8severityEE24apply_visitor_or_defaultINS1_9binder2ndINS1_13greater_equalERKS5_EEbEENT_11result_typeESF_RKT0_
_ZN5boost3log12v2s_mt_posix9binder2ndINS1_13greater_equalERKNS1_7trivial14severity_levelEEC2ERKS3_S7_
_ZNK5boost3log12v2s_mt_posix9binder2ndINS1_13greater_equalERKNS1_7trivial14severity_levelEEclIS5_EEbRKT_
_ZNK5boost3log12v2s_mt_posix13greater_equalclINS1_7trivial14severity_levelES5_EEbRKT_RKT0_
_ZN5boost3log12v2s_mt_posix13greater_equal2opINS1_7trivial14severity_levelES5_EEbRKT_RKT0_RKN4mpl_5bool_ILb0EEE
_ZNK5boost7phoenix15custom_terminalINS_3log12v2s_mt_posix11expressions18attribute_terminalINS3_7trivial14severity_levelENS3_16fallback_to_noneENS6_3tag8severityEEEvEclIKNS0_7vector2IRNSE_IPKNS0_5actorINS_5proto7exprns_10basic_exprINSG_6tagns_3tag13greater_equalENSG_7argsns_5list2INS4_15attribute_actorIS7_S8_SA_SF_EENSF_INSI_INSK_8terminalENSM_4termIS7_EELl0EEEEEEELl2EEEEERKNS3_19attribute_value_setEEERKNS0_15default_actionsEEEEENSC_6resultIFKSC_RKSB_RT_EE4typeES1D_S1F_
_ZNK5boost5proto6_value4implIRNS_3log12v2s_mt_posix11expressions15attribute_actorINS4_7trivial14severity_levelENS4_16fallback_to_noneENS7_3tag8severityENS_7phoenix5actorEEERNSC_7vector2IPKNSD_INS0_7exprns_10basic_exprINS0_6tagns_3tag13greater_equalENS0_7argsns_5list2ISE_NSD_INSI_INSK_8terminalENSM_4termIS8_EELl0EEEEEEELl2EEEEERKNS4_19attribute_value_setEEERKNSC_15default_actionsEEclESF_S12_S15_
_ZNK5boost7phoenix8_context4implIRNS_3log12v2s_mt_posix11expressions15attribute_actorINS4_7trivial14severity_levelENS4_16fallback_to_noneENS7_3tag8severityENS0_5actorEEERNS0_7vector2IPKNSC_INS_5proto7exprns_10basic_exprINSG_6tagns_3tag13greater_equalENSG_7argsns_5list2ISD_NSC_INSI_INSK_8terminalENSM_4termIS8_EELl0EEEEEEELl2EEEEERKNS4_19attribute_value_setEEERKNS0_15default_actionsEEclESE_S12_S15_
_ZNK5boost3log12v2s_mt_posix11expressions18attribute_terminalINS1_7trivial14severity_levelENS1_16fallback_to_noneENS4_3tag8severityEEclINS_7phoenix7vector2IRNSC_IPKNSB_5actorINS_5proto7exprns_10basic_exprINSE_6tagns_3tag13greater_equalENSE_7argsns_5list2INS2_15attribute_actorIS5_S6_S8_SD_EENSD_INSG_INSI_8terminalENSK_4termIS5_EELl0EEEEEEELl2EEEEERKNS1_19attribute_value_setEEERKNSB_15default_actionsEEEEENS9_6resultIFKS9_RKT_EE4typeES1B_
_ZNK5boost3log12v2s_mt_posix15value_extractorINS1_7trivial14severity_levelENS1_16fallback_to_noneENS3_3tag8severityEEclERKNS1_14attribute_nameERKNS1_19attribute_value_setE
_ZN5boost6fusion4at_cILi0ENS_7phoenix7vector1IRKNS_3log12v2s_mt_posix19attribute_value_setEEEEENS0_9result_of4at_cIKT0_XT_EE4typeERSD_
_ZNK5boost7phoenix7vector2IPKNS0_5actorINS_5proto7exprns_10basic_exprINS3_6tagns_3tag13greater_equalENS3_7argsns_5list2INS_3log12v2s_mt_posix11expressions15attribute_actorINSC_7trivial14severity_levelENSC_16fallback_to_noneENSF_3tag8severityES2_EENS2_INS5_INS7_8terminalENS9_4termISG_EELl0EEEEEEELl2EEEEERKNSC_19attribute_value_setEE4argsEv
_ZNK5boost3log12v2s_mt_posix15value_extractorINS1_7trivial14severity_levelENS1_16fallback_to_noneENS3_3tag8severityEEclERKNS1_15attribute_valueE
